
Booloader.elf:     file format elf32-littlearm

Sections:
Idx Name          Size      VMA       LMA       File off  Algn
  0 .isr_vector   00000194  08000000  08000000  00001000  2**0
                  CONTENTS, ALLOC, LOAD, READONLY, DATA
  1 .text         00008e7c  080001a0  080001a0  000011a0  2**4
                  CONTENTS, ALLOC, LOAD, READONLY, CODE
  2 .rodata       00000664  0800901c  0800901c  0000a01c  2**2
                  CONTENTS, ALLOC, LOAD, READONLY, DATA
  3 CMOX_CTA_PROTECTED_DATA 00000264  08009680  08009680  0000a680  2**2
                  CONTENTS, ALLOC, LOAD, READONLY, DATA
  4 .ARM.extab    00000000  080098e4  080098e4  0000b09c  2**0
                  CONTENTS, READONLY
  5 .ARM          00000008  080098e4  080098e4  0000a8e4  2**2
                  CONTENTS, ALLOC, LOAD, READONLY, DATA
  6 .preinit_array 00000000  080098ec  080098ec  0000b09c  2**0
                  CONTENTS, ALLOC, LOAD, DATA
  7 .init_array   00000004  080098ec  080098ec  0000a8ec  2**2
                  CONTENTS, ALLOC, LOAD, READONLY, DATA
  8 .fini_array   00000004  080098f0  080098f0  0000a8f0  2**2
                  CONTENTS, ALLOC, LOAD, READONLY, DATA
  9 .data         0000009c  20000000  080098f4  0000b000  2**2
                  CONTENTS, ALLOC, LOAD, DATA
 10 .ccmram       00000000  10000000  10000000  0000b09c  2**0
                  CONTENTS
 11 .bss          00000b18  200000a0  200000a0  0000b0a0  2**3
                  ALLOC
 12 ._user_heap_stack 00001200  20000bb8  20000bb8  0000b0a0  2**0
                  ALLOC
 13 .ARM.attributes 0000002e  00000000  00000000  0000b09c  2**0
                  CONTENTS, READONLY
 14 .debug_info   0000aff9  00000000  00000000  0000b0ca  2**0
                  CONTENTS, READONLY, DEBUGGING, OCTETS
 15 .debug_abbrev 0000217c  00000000  00000000  000160c3  2**0
                  CONTENTS, READONLY, DEBUGGING, OCTETS
 16 .debug_aranges 00000900  00000000  00000000  00018240  2**3
                  CONTENTS, READONLY, DEBUGGING, OCTETS
 17 .debug_rnglists 000006c8  00000000  00000000  00018b40  2**0
                  CONTENTS, READONLY, DEBUGGING, OCTETS
 18 .debug_macro  00021f22  00000000  00000000  00019208  2**0
                  CONTENTS, READONLY, DEBUGGING, OCTETS
 19 .debug_line   0000ee48  00000000  00000000  0003b12a  2**0
                  CONTENTS, READONLY, DEBUGGING, OCTETS
 20 .debug_str    000c4e10  00000000  00000000  00049f72  2**0
                  CONTENTS, READONLY, DEBUGGING, OCTETS
 21 .comment      00000043  00000000  00000000  0010ed82  2**0
                  CONTENTS, READONLY
 22 .iar_vfe_header 00000050  00000000  00000000  0010edc8  2**2
                  CONTENTS, READONLY
 23 .debug_frame  000027b4  00000000  00000000  0010ee18  2**2
                  CONTENTS, READONLY, DEBUGGING, OCTETS
 24 .debug_line_str 00000064  00000000  00000000  001115cc  2**0
                  CONTENTS, READONLY, DEBUGGING, OCTETS

Disassembly of section .text:

080001a0 <__do_global_dtors_aux>:
 80001a0:	b510      	push	{r4, lr}
 80001a2:	4c05      	ldr	r4, [pc, #20]	@ (80001b8 <__do_global_dtors_aux+0x18>)
 80001a4:	7823      	ldrb	r3, [r4, #0]
 80001a6:	b933      	cbnz	r3, 80001b6 <__do_global_dtors_aux+0x16>
 80001a8:	4b04      	ldr	r3, [pc, #16]	@ (80001bc <__do_global_dtors_aux+0x1c>)
 80001aa:	b113      	cbz	r3, 80001b2 <__do_global_dtors_aux+0x12>
 80001ac:	4804      	ldr	r0, [pc, #16]	@ (80001c0 <__do_global_dtors_aux+0x20>)
 80001ae:	f3af 8000 	nop.w
 80001b2:	2301      	movs	r3, #1
 80001b4:	7023      	strb	r3, [r4, #0]
 80001b6:	bd10      	pop	{r4, pc}
 80001b8:	200000a0 	.word	0x200000a0
 80001bc:	00000000 	.word	0x00000000
 80001c0:	08009004 	.word	0x08009004

080001c4 <frame_dummy>:
 80001c4:	b508      	push	{r3, lr}
 80001c6:	4b03      	ldr	r3, [pc, #12]	@ (80001d4 <frame_dummy+0x10>)
 80001c8:	b11b      	cbz	r3, 80001d2 <frame_dummy+0xe>
 80001ca:	4903      	ldr	r1, [pc, #12]	@ (80001d8 <frame_dummy+0x14>)
 80001cc:	4803      	ldr	r0, [pc, #12]	@ (80001dc <frame_dummy+0x18>)
 80001ce:	f3af 8000 	nop.w
 80001d2:	bd08      	pop	{r3, pc}
 80001d4:	00000000 	.word	0x00000000
 80001d8:	200000a4 	.word	0x200000a4
 80001dc:	08009004 	.word	0x08009004

080001e0 <cmox_ecc_construct>:
 80001e0:	b510      	push	{r4, lr}
 80001e2:	0004      	movs	r4, r0
 80001e4:	4610      	mov	r0, r2
 80001e6:	bf18      	it	ne
 80001e8:	2900      	cmpne	r1, #0
 80001ea:	461a      	mov	r2, r3
 80001ec:	d00a      	beq.n	8000204 <cmox_ecc_construct+0x24>
 80001ee:	2800      	cmp	r0, #0
 80001f0:	bf18      	it	ne
 80001f2:	2a00      	cmpne	r2, #0
 80001f4:	d006      	beq.n	8000204 <cmox_ecc_construct+0x24>
 80001f6:	6121      	str	r1, [r4, #16]
 80001f8:	4601      	mov	r1, r0
 80001fa:	4620      	mov	r0, r4
 80001fc:	f002 fc33 	bl	8002a66 <cmox_membuf_init>
 8000200:	4b01      	ldr	r3, [pc, #4]	@ (8000208 <cmox_ecc_construct+0x28>)
 8000202:	6163      	str	r3, [r4, #20]
 8000204:	bd10      	pop	{r4, pc}
 8000206:	bf00      	nop
 8000208:	5e1caffe 	.word	0x5e1caffe

0800020c <cmox_ECC_InvertModN>:
 800020c:	b5fe      	push	{r1, r2, r3, r4, r5, r6, r7, lr}
 800020e:	0004      	movs	r4, r0
 8000210:	460d      	mov	r5, r1
 8000212:	bf18      	it	ne
 8000214:	2d00      	cmpne	r5, #0
 8000216:	4616      	mov	r6, r2
 8000218:	461f      	mov	r7, r3
 800021a:	d00d      	beq.n	8000238 <cmox_ECC_InvertModN+0x2c>
 800021c:	2e00      	cmp	r6, #0
 800021e:	bf18      	it	ne
 8000220:	2f00      	cmpne	r7, #0
 8000222:	d009      	beq.n	8000238 <cmox_ECC_InvertModN+0x2c>
 8000224:	69a0      	ldr	r0, [r4, #24]
 8000226:	6801      	ldr	r1, [r0, #0]
 8000228:	6888      	ldr	r0, [r1, #8]
 800022a:	682a      	ldr	r2, [r5, #0]
 800022c:	6801      	ldr	r1, [r0, #0]
 800022e:	428a      	cmp	r2, r1
 8000230:	bf24      	itt	cs
 8000232:	683b      	ldrcs	r3, [r7, #0]
 8000234:	428b      	cmpcs	r3, r1
 8000236:	d201      	bcs.n	800023c <cmox_ECC_InvertModN+0x30>
 8000238:	2001      	movs	r0, #1
 800023a:	bdfe      	pop	{r1, r2, r3, r4, r5, r6, r7, pc}
 800023c:	463a      	mov	r2, r7
 800023e:	f06f 0101 	mvn.w	r1, #1
 8000242:	f002 fa45 	bl	80026d0 <cmox_AddBN_Int>
 8000246:	69a0      	ldr	r0, [r4, #24]
 8000248:	f8d0 c01c 	ldr.w	ip, [r0, #28]
 800024c:	6a20      	ldr	r0, [r4, #32]
 800024e:	9002      	str	r0, [sp, #8]
 8000250:	4622      	mov	r2, r4
 8000252:	69e1      	ldr	r1, [r4, #28]
 8000254:	9101      	str	r1, [sp, #4]
 8000256:	9600      	str	r6, [sp, #0]
 8000258:	f8dc 3004 	ldr.w	r3, [ip, #4]
 800025c:	f8dc 4000 	ldr.w	r4, [ip]
 8000260:	4639      	mov	r1, r7
 8000262:	4628      	mov	r0, r5
 8000264:	47a0      	blx	r4
 8000266:	bdfe      	pop	{r1, r2, r3, r4, r5, r6, r7, pc}

08000268 <cmox_ECC_InitCurve>:
 8000268:	b510      	push	{r4, lr}
 800026a:	2800      	cmp	r0, #0
 800026c:	bf18      	it	ne
 800026e:	2900      	cmpne	r1, #0
 8000270:	d101      	bne.n	8000276 <cmox_ECC_InitCurve+0xe>
 8000272:	2001      	movs	r0, #1
 8000274:	bd10      	pop	{r4, pc}
 8000276:	2400      	movs	r4, #0
 8000278:	6144      	str	r4, [r0, #20]
 800027a:	6181      	str	r1, [r0, #24]
 800027c:	61c2      	str	r2, [r0, #28]
 800027e:	6203      	str	r3, [r0, #32]
 8000280:	2000      	movs	r0, #0
 8000282:	bd10      	pop	{r4, pc}

08000284 <cmox_ECC_InitCurveModDomainP>:
 8000284:	4602      	mov	r2, r0
 8000286:	6990      	ldr	r0, [r2, #24]
 8000288:	6800      	ldr	r0, [r0, #0]
 800028a:	6841      	ldr	r1, [r0, #4]
 800028c:	69d3      	ldr	r3, [r2, #28]
 800028e:	6800      	ldr	r0, [r0, #0]
 8000290:	f002 bb1c 	b.w	80028cc <cmox_ModularBN_InitWithR2>

08000294 <cmox_ECC_InitCurveModDomainN>:
 8000294:	4602      	mov	r2, r0
 8000296:	6990      	ldr	r0, [r2, #24]
 8000298:	6800      	ldr	r0, [r0, #0]
 800029a:	68c1      	ldr	r1, [r0, #12]
 800029c:	69d3      	ldr	r3, [r2, #28]
 800029e:	6880      	ldr	r0, [r0, #8]
 80002a0:	f002 bb14 	b.w	80028cc <cmox_ModularBN_InitWithR2>

080002a4 <cmox_ECC_DeInitCurveModDomain>:
 80002a4:	69c1      	ldr	r1, [r0, #28]
 80002a6:	f002 bb98 	b.w	80029da <cmox_ModularBN_DeinitWithR2>

080002aa <cmox_ECC_AllocPoint>:
 80002aa:	b570      	push	{r4, r5, r6, lr}
 80002ac:	4605      	mov	r5, r0
 80002ae:	460e      	mov	r6, r1
 80002b0:	69e8      	ldr	r0, [r5, #28]
 80002b2:	2214      	movs	r2, #20
 80002b4:	f002 fbe7 	bl	8002a86 <cmox_membuf_alloc>
 80002b8:	0004      	movs	r4, r0
 80002ba:	d149      	bne.n	8000350 <cmox_ECC_AllocPoint+0xa6>
 80002bc:	6831      	ldr	r1, [r6, #0]
 80002be:	2000      	movs	r0, #0
 80002c0:	6108      	str	r0, [r1, #16]
 80002c2:	69aa      	ldr	r2, [r5, #24]
 80002c4:	6810      	ldr	r0, [r2, #0]
 80002c6:	6803      	ldr	r3, [r0, #0]
 80002c8:	69e8      	ldr	r0, [r5, #28]
 80002ca:	681a      	ldr	r2, [r3, #0]
 80002cc:	f003 ff7e 	bl	80041cc <cmox_bn_alloc>
 80002d0:	0004      	movs	r4, r0
 80002d2:	d138      	bne.n	8000346 <cmox_ECC_AllocPoint+0x9c>
 80002d4:	69a8      	ldr	r0, [r5, #24]
 80002d6:	6801      	ldr	r1, [r0, #0]
 80002d8:	6830      	ldr	r0, [r6, #0]
 80002da:	680a      	ldr	r2, [r1, #0]
 80002dc:	6812      	ldr	r2, [r2, #0]
 80002de:	f100 0108 	add.w	r1, r0, #8
 80002e2:	69e8      	ldr	r0, [r5, #28]
 80002e4:	f003 ff72 	bl	80041cc <cmox_bn_alloc>
 80002e8:	0004      	movs	r4, r0
 80002ea:	d128      	bne.n	800033e <cmox_ECC_AllocPoint+0x94>
 80002ec:	69a8      	ldr	r0, [r5, #24]
 80002ee:	6842      	ldr	r2, [r0, #4]
 80002f0:	69d3      	ldr	r3, [r2, #28]
 80002f2:	6831      	ldr	r1, [r6, #0]
 80002f4:	2b03      	cmp	r3, #3
 80002f6:	d030      	beq.n	800035a <cmox_ECC_AllocPoint+0xb0>
 80002f8:	6800      	ldr	r0, [r0, #0]
 80002fa:	6802      	ldr	r2, [r0, #0]
 80002fc:	69e8      	ldr	r0, [r5, #28]
 80002fe:	6812      	ldr	r2, [r2, #0]
 8000300:	1d09      	adds	r1, r1, #4
 8000302:	f003 ff63 	bl	80041cc <cmox_bn_alloc>
 8000306:	0004      	movs	r4, r0
 8000308:	d113      	bne.n	8000332 <cmox_ECC_AllocPoint+0x88>
 800030a:	69a8      	ldr	r0, [r5, #24]
 800030c:	6842      	ldr	r2, [r0, #4]
 800030e:	69d3      	ldr	r3, [r2, #28]
 8000310:	6831      	ldr	r1, [r6, #0]
 8000312:	2b02      	cmp	r3, #2
 8000314:	d11e      	bne.n	8000354 <cmox_ECC_AllocPoint+0xaa>
 8000316:	6800      	ldr	r0, [r0, #0]
 8000318:	6802      	ldr	r2, [r0, #0]
 800031a:	69e8      	ldr	r0, [r5, #28]
 800031c:	6812      	ldr	r2, [r2, #0]
 800031e:	310c      	adds	r1, #12
 8000320:	f003 ff54 	bl	80041cc <cmox_bn_alloc>
 8000324:	0004      	movs	r4, r0
 8000326:	d013      	beq.n	8000350 <cmox_ECC_AllocPoint+0xa6>
 8000328:	6830      	ldr	r0, [r6, #0]
 800032a:	1d01      	adds	r1, r0, #4
 800032c:	69e8      	ldr	r0, [r5, #28]
 800032e:	f003 ff58 	bl	80041e2 <cmox_bn_free>
 8000332:	6830      	ldr	r0, [r6, #0]
 8000334:	f100 0108 	add.w	r1, r0, #8
 8000338:	69e8      	ldr	r0, [r5, #28]
 800033a:	f003 ff52 	bl	80041e2 <cmox_bn_free>
 800033e:	6831      	ldr	r1, [r6, #0]
 8000340:	69e8      	ldr	r0, [r5, #28]
 8000342:	f003 ff4e 	bl	80041e2 <cmox_bn_free>
 8000346:	69e8      	ldr	r0, [r5, #28]
 8000348:	2214      	movs	r2, #20
 800034a:	4631      	mov	r1, r6
 800034c:	f002 fbba 	bl	8002ac4 <cmox_membuf_free>
 8000350:	4620      	mov	r0, r4
 8000352:	bd70      	pop	{r4, r5, r6, pc}
 8000354:	2000      	movs	r0, #0
 8000356:	60c8      	str	r0, [r1, #12]
 8000358:	e7fa      	b.n	8000350 <cmox_ECC_AllocPoint+0xa6>
 800035a:	2200      	movs	r2, #0
 800035c:	604a      	str	r2, [r1, #4]
 800035e:	60ca      	str	r2, [r1, #12]
 8000360:	e7f6      	b.n	8000350 <cmox_ECC_AllocPoint+0xa6>

08000362 <cmox_ECC_FreePoint>:
 8000362:	b570      	push	{r4, r5, r6, lr}
 8000364:	460c      	mov	r4, r1
 8000366:	2500      	movs	r5, #0
 8000368:	4606      	mov	r6, r0
 800036a:	2c00      	cmp	r4, #0
 800036c:	bf1a      	itte	ne
 800036e:	6820      	ldrne	r0, [r4, #0]
 8000370:	2800      	cmpne	r0, #0
 8000372:	2501      	moveq	r5, #1
 8000374:	d023      	beq.n	80003be <cmox_ECC_FreePoint+0x5c>
 8000376:	69b1      	ldr	r1, [r6, #24]
 8000378:	684a      	ldr	r2, [r1, #4]
 800037a:	69d3      	ldr	r3, [r2, #28]
 800037c:	2b02      	cmp	r3, #2
 800037e:	d104      	bne.n	800038a <cmox_ECC_FreePoint+0x28>
 8000380:	f100 010c 	add.w	r1, r0, #12
 8000384:	69f0      	ldr	r0, [r6, #28]
 8000386:	f003 ff2c 	bl	80041e2 <cmox_bn_free>
 800038a:	69b0      	ldr	r0, [r6, #24]
 800038c:	6841      	ldr	r1, [r0, #4]
 800038e:	69c8      	ldr	r0, [r1, #28]
 8000390:	2803      	cmp	r0, #3
 8000392:	d004      	beq.n	800039e <cmox_ECC_FreePoint+0x3c>
 8000394:	6821      	ldr	r1, [r4, #0]
 8000396:	69f0      	ldr	r0, [r6, #28]
 8000398:	1d09      	adds	r1, r1, #4
 800039a:	f003 ff22 	bl	80041e2 <cmox_bn_free>
 800039e:	6820      	ldr	r0, [r4, #0]
 80003a0:	f100 0108 	add.w	r1, r0, #8
 80003a4:	69f0      	ldr	r0, [r6, #28]
 80003a6:	f003 ff1c 	bl	80041e2 <cmox_bn_free>
 80003aa:	6821      	ldr	r1, [r4, #0]
 80003ac:	69f0      	ldr	r0, [r6, #28]
 80003ae:	f003 ff18 	bl	80041e2 <cmox_bn_free>
 80003b2:	69f0      	ldr	r0, [r6, #28]
 80003b4:	2214      	movs	r2, #20
 80003b6:	4621      	mov	r1, r4
 80003b8:	f002 fb84 	bl	8002ac4 <cmox_membuf_free>
 80003bc:	6025      	str	r5, [r4, #0]
 80003be:	4628      	mov	r0, r5
 80003c0:	bd70      	pop	{r4, r5, r6, pc}
	...

080003c4 <cmox_ECC_CondCopyPoint>:
 80003c4:	b5f8      	push	{r3, r4, r5, r6, r7, lr}
 80003c6:	460f      	mov	r7, r1
 80003c8:	2500      	movs	r5, #0
 80003ca:	4616      	mov	r6, r2
 80003cc:	2f00      	cmp	r7, #0
 80003ce:	bf18      	it	ne
 80003d0:	2e00      	cmpne	r6, #0
 80003d2:	4604      	mov	r4, r0
 80003d4:	d00b      	beq.n	80003ee <cmox_ECC_CondCopyPoint+0x2a>
 80003d6:	6839      	ldr	r1, [r7, #0]
 80003d8:	2900      	cmp	r1, #0
 80003da:	bf1c      	itt	ne
 80003dc:	68b8      	ldrne	r0, [r7, #8]
 80003de:	2800      	cmpne	r0, #0
 80003e0:	d005      	beq.n	80003ee <cmox_ECC_CondCopyPoint+0x2a>
 80003e2:	6832      	ldr	r2, [r6, #0]
 80003e4:	2a00      	cmp	r2, #0
 80003e6:	bf1c      	itt	ne
 80003e8:	68b0      	ldrne	r0, [r6, #8]
 80003ea:	2800      	cmpne	r0, #0
 80003ec:	d101      	bne.n	80003f2 <cmox_ECC_CondCopyPoint+0x2e>
 80003ee:	2501      	movs	r5, #1
 80003f0:	e019      	b.n	8000426 <cmox_ECC_CondCopyPoint+0x62>
 80003f2:	693b      	ldr	r3, [r7, #16]
 80003f4:	6133      	str	r3, [r6, #16]
 80003f6:	4620      	mov	r0, r4
 80003f8:	f003 ff2e 	bl	8004258 <cmox_bn_cCopy>
 80003fc:	6879      	ldr	r1, [r7, #4]
 80003fe:	2900      	cmp	r1, #0
 8000400:	bf1f      	itttt	ne
 8000402:	6872      	ldrne	r2, [r6, #4]
 8000404:	2a00      	cmpne	r2, #0
 8000406:	4620      	movne	r0, r4
 8000408:	f003 ff26 	blne	8004258 <cmox_bn_cCopy>
 800040c:	68b2      	ldr	r2, [r6, #8]
 800040e:	68b9      	ldr	r1, [r7, #8]
 8000410:	4620      	mov	r0, r4
 8000412:	f003 ff21 	bl	8004258 <cmox_bn_cCopy>
 8000416:	68f9      	ldr	r1, [r7, #12]
 8000418:	2900      	cmp	r1, #0
 800041a:	bf1f      	itttt	ne
 800041c:	68f2      	ldrne	r2, [r6, #12]
 800041e:	2a00      	cmpne	r2, #0
 8000420:	4620      	movne	r0, r4
 8000422:	f003 ff19 	blne	8004258 <cmox_bn_cCopy>
 8000426:	4628      	mov	r0, r5
 8000428:	bdf2      	pop	{r1, r4, r5, r6, r7, pc}

0800042a <cmox_ECC_CondSymmetricPoint>:
 800042a:	b570      	push	{r4, r5, r6, lr}
 800042c:	460e      	mov	r6, r1
 800042e:	4615      	mov	r5, r2
 8000430:	69b1      	ldr	r1, [r6, #24]
 8000432:	680a      	ldr	r2, [r1, #0]
 8000434:	69d3      	ldr	r3, [r2, #28]
 8000436:	4604      	mov	r4, r0
 8000438:	2001      	movs	r0, #1
 800043a:	b13b      	cbz	r3, 800044c <cmox_ECC_CondSymmetricPoint+0x22>
 800043c:	2b02      	cmp	r3, #2
 800043e:	d001      	beq.n	8000444 <cmox_ECC_CondSymmetricPoint+0x1a>
 8000440:	d307      	bcc.n	8000452 <cmox_ECC_CondSymmetricPoint+0x28>
 8000442:	bd70      	pop	{r4, r5, r6, pc}
 8000444:	6849      	ldr	r1, [r1, #4]
 8000446:	69cb      	ldr	r3, [r1, #28]
 8000448:	2b03      	cmp	r3, #3
 800044a:	d014      	beq.n	8000476 <cmox_ECC_CondSymmetricPoint+0x4c>
 800044c:	6812      	ldr	r2, [r2, #0]
 800044e:	6869      	ldr	r1, [r5, #4]
 8000450:	e00c      	b.n	800046c <cmox_ECC_CondSymmetricPoint+0x42>
 8000452:	6812      	ldr	r2, [r2, #0]
 8000454:	6829      	ldr	r1, [r5, #0]
 8000456:	4620      	mov	r0, r4
 8000458:	f002 fa0a 	bl	8002870 <cmox_FieldBN_CondNegate>
 800045c:	69b1      	ldr	r1, [r6, #24]
 800045e:	684a      	ldr	r2, [r1, #4]
 8000460:	69d3      	ldr	r3, [r2, #28]
 8000462:	2b02      	cmp	r3, #2
 8000464:	d107      	bne.n	8000476 <cmox_ECC_CondSymmetricPoint+0x4c>
 8000466:	6808      	ldr	r0, [r1, #0]
 8000468:	68e9      	ldr	r1, [r5, #12]
 800046a:	6802      	ldr	r2, [r0, #0]
 800046c:	4620      	mov	r0, r4
 800046e:	e8bd 4070 	ldmia.w	sp!, {r4, r5, r6, lr}
 8000472:	f002 b9fd 	b.w	8002870 <cmox_FieldBN_CondNegate>
 8000476:	bd70      	pop	{r4, r5, r6, pc}

08000478 <cmox_ECC_SetPointAtInfinity>:
 8000478:	b570      	push	{r4, r5, r6, lr}
 800047a:	460d      	mov	r5, r1
 800047c:	4606      	mov	r6, r0
 800047e:	6928      	ldr	r0, [r5, #16]
 8000480:	f040 0001 	orr.w	r0, r0, #1
 8000484:	6128      	str	r0, [r5, #16]
 8000486:	2400      	movs	r4, #0
 8000488:	69b1      	ldr	r1, [r6, #24]
 800048a:	6808      	ldr	r0, [r1, #0]
 800048c:	69c2      	ldr	r2, [r0, #28]
 800048e:	b11a      	cbz	r2, 8000498 <cmox_ECC_SetPointAtInfinity+0x20>
 8000490:	2a02      	cmp	r2, #2
 8000492:	d00b      	beq.n	80004ac <cmox_ECC_SetPointAtInfinity+0x34>
 8000494:	d31a      	bcc.n	80004cc <cmox_ECC_SetPointAtInfinity+0x54>
 8000496:	e02f      	b.n	80004f8 <cmox_ECC_SetPointAtInfinity+0x80>
 8000498:	6828      	ldr	r0, [r5, #0]
 800049a:	2100      	movs	r1, #0
 800049c:	f003 fecd 	bl	800423a <cmox_bn_init>
 80004a0:	6868      	ldr	r0, [r5, #4]
 80004a2:	2101      	movs	r1, #1
 80004a4:	f003 fec9 	bl	800423a <cmox_bn_init>
 80004a8:	68a8      	ldr	r0, [r5, #8]
 80004aa:	e021      	b.n	80004f0 <cmox_ECC_SetPointAtInfinity+0x78>
 80004ac:	6849      	ldr	r1, [r1, #4]
 80004ae:	69ca      	ldr	r2, [r1, #28]
 80004b0:	6828      	ldr	r0, [r5, #0]
 80004b2:	2a03      	cmp	r2, #3
 80004b4:	bf08      	it	eq
 80004b6:	2101      	moveq	r1, #1
 80004b8:	d004      	beq.n	80004c4 <cmox_ECC_SetPointAtInfinity+0x4c>
 80004ba:	2100      	movs	r1, #0
 80004bc:	f003 febd 	bl	800423a <cmox_bn_init>
 80004c0:	6868      	ldr	r0, [r5, #4]
 80004c2:	2101      	movs	r1, #1
 80004c4:	f003 feb9 	bl	800423a <cmox_bn_init>
 80004c8:	68a8      	ldr	r0, [r5, #8]
 80004ca:	e011      	b.n	80004f0 <cmox_ECC_SetPointAtInfinity+0x78>
 80004cc:	6828      	ldr	r0, [r5, #0]
 80004ce:	2100      	movs	r1, #0
 80004d0:	f003 feb3 	bl	800423a <cmox_bn_init>
 80004d4:	6868      	ldr	r0, [r5, #4]
 80004d6:	2101      	movs	r1, #1
 80004d8:	f003 feaf 	bl	800423a <cmox_bn_init>
 80004dc:	68a8      	ldr	r0, [r5, #8]
 80004de:	2101      	movs	r1, #1
 80004e0:	f003 feab 	bl	800423a <cmox_bn_init>
 80004e4:	69b0      	ldr	r0, [r6, #24]
 80004e6:	6841      	ldr	r1, [r0, #4]
 80004e8:	69c8      	ldr	r0, [r1, #28]
 80004ea:	2802      	cmp	r0, #2
 80004ec:	d105      	bne.n	80004fa <cmox_ECC_SetPointAtInfinity+0x82>
 80004ee:	68e8      	ldr	r0, [r5, #12]
 80004f0:	2100      	movs	r1, #0
 80004f2:	f003 fea2 	bl	800423a <cmox_bn_init>
 80004f6:	e000      	b.n	80004fa <cmox_ECC_SetPointAtInfinity+0x82>
 80004f8:	2401      	movs	r4, #1
 80004fa:	4620      	mov	r0, r4
 80004fc:	bd70      	pop	{r4, r5, r6, pc}

080004fe <cmox_ECC_CondImportPoint>:
 80004fe:	e92d 4bfc 	stmdb	sp!, {r2, r3, r4, r5, r6, r7, r8, r9, fp, lr}
 8000502:	4616      	mov	r6, r2
 8000504:	2500      	movs	r5, #0
 8000506:	2e00      	cmp	r6, #0
 8000508:	bf1c      	itt	ne
 800050a:	9f0b      	ldrne	r7, [sp, #44]	@ 0x2c
 800050c:	2f00      	cmpne	r7, #0
 800050e:	4680      	mov	r8, r0
 8000510:	468b      	mov	fp, r1
 8000512:	461c      	mov	r4, r3
 8000514:	d005      	beq.n	8000522 <cmox_ECC_CondImportPoint+0x24>
 8000516:	6839      	ldr	r1, [r7, #0]
 8000518:	2900      	cmp	r1, #0
 800051a:	bf1c      	itt	ne
 800051c:	68b8      	ldrne	r0, [r7, #8]
 800051e:	2800      	cmpne	r0, #0
 8000520:	d103      	bne.n	800052a <cmox_ECC_CondImportPoint+0x2c>
 8000522:	2501      	movs	r5, #1
 8000524:	4628      	mov	r0, r5
 8000526:	e8bd 8bf6 	ldmia.w	sp!, {r1, r2, r4, r5, r6, r7, r8, r9, fp, pc}
 800052a:	980a      	ldr	r0, [sp, #40]	@ 0x28
 800052c:	6138      	str	r0, [r7, #16]
 800052e:	4640      	mov	r0, r8
 8000530:	684a      	ldr	r2, [r1, #4]
 8000532:	6831      	ldr	r1, [r6, #0]
 8000534:	f002 fa69 	bl	8002a0a <cmox_mathUtils_mux>
 8000538:	683a      	ldr	r2, [r7, #0]
 800053a:	6050      	str	r0, [r2, #4]
 800053c:	6878      	ldr	r0, [r7, #4]
 800053e:	b138      	cbz	r0, 8000550 <cmox_ECC_CondImportPoint+0x52>
 8000540:	6842      	ldr	r2, [r0, #4]
 8000542:	f856 102b 	ldr.w	r1, [r6, fp, lsl #2]
 8000546:	4640      	mov	r0, r8
 8000548:	f002 fa5f 	bl	8002a0a <cmox_mathUtils_mux>
 800054c:	6879      	ldr	r1, [r7, #4]
 800054e:	6048      	str	r0, [r1, #4]
 8000550:	2c00      	cmp	r4, #0
 8000552:	68b8      	ldr	r0, [r7, #8]
 8000554:	6842      	ldr	r2, [r0, #4]
 8000556:	bf0c      	ite	eq
 8000558:	2101      	moveq	r1, #1
 800055a:	6821      	ldrne	r1, [r4, #0]
 800055c:	4640      	mov	r0, r8
 800055e:	f002 fa54 	bl	8002a0a <cmox_mathUtils_mux>
 8000562:	68b9      	ldr	r1, [r7, #8]
 8000564:	6048      	str	r0, [r1, #4]
 8000566:	68f8      	ldr	r0, [r7, #12]
 8000568:	b138      	cbz	r0, 800057a <cmox_ECC_CondImportPoint+0x7c>
 800056a:	6842      	ldr	r2, [r0, #4]
 800056c:	f856 103b 	ldr.w	r1, [r6, fp, lsl #3]
 8000570:	4640      	mov	r0, r8
 8000572:	f002 fa4a 	bl	8002a0a <cmox_mathUtils_mux>
 8000576:	68f9      	ldr	r1, [r7, #12]
 8000578:	6048      	str	r0, [r1, #4]
 800057a:	f04f 0902 	mov.w	r9, #2
 800057e:	1f36      	subs	r6, r6, #4
 8000580:	e015      	b.n	80005ae <cmox_ECC_CondImportPoint+0xb0>
 8000582:	4640      	mov	r0, r8
 8000584:	f002 fa41 	bl	8002a0a <cmox_mathUtils_mux>
 8000588:	68b9      	ldr	r1, [r7, #8]
 800058a:	f841 0029 	str.w	r0, [r1, r9, lsl #2]
 800058e:	68f8      	ldr	r0, [r7, #12]
 8000590:	b158      	cbz	r0, 80005aa <cmox_ECC_CondImportPoint+0xac>
 8000592:	f850 2029 	ldr.w	r2, [r0, r9, lsl #2]
 8000596:	eb09 004b 	add.w	r0, r9, fp, lsl #1
 800059a:	f856 1020 	ldr.w	r1, [r6, r0, lsl #2]
 800059e:	4640      	mov	r0, r8
 80005a0:	f002 fa33 	bl	8002a0a <cmox_mathUtils_mux>
 80005a4:	68f9      	ldr	r1, [r7, #12]
 80005a6:	f841 0029 	str.w	r0, [r1, r9, lsl #2]
 80005aa:	f109 0901 	add.w	r9, r9, #1
 80005ae:	45cb      	cmp	fp, r9
 80005b0:	d3b8      	bcc.n	8000524 <cmox_ECC_CondImportPoint+0x26>
 80005b2:	6838      	ldr	r0, [r7, #0]
 80005b4:	f850 2029 	ldr.w	r2, [r0, r9, lsl #2]
 80005b8:	f856 1029 	ldr.w	r1, [r6, r9, lsl #2]
 80005bc:	4640      	mov	r0, r8
 80005be:	f002 fa24 	bl	8002a0a <cmox_mathUtils_mux>
 80005c2:	6839      	ldr	r1, [r7, #0]
 80005c4:	f841 0029 	str.w	r0, [r1, r9, lsl #2]
 80005c8:	6878      	ldr	r0, [r7, #4]
 80005ca:	b158      	cbz	r0, 80005e4 <cmox_ECC_CondImportPoint+0xe6>
 80005cc:	f850 2029 	ldr.w	r2, [r0, r9, lsl #2]
 80005d0:	eb0b 0009 	add.w	r0, fp, r9
 80005d4:	f856 1020 	ldr.w	r1, [r6, r0, lsl #2]
 80005d8:	4640      	mov	r0, r8
 80005da:	f002 fa16 	bl	8002a0a <cmox_mathUtils_mux>
 80005de:	6879      	ldr	r1, [r7, #4]
 80005e0:	f841 0029 	str.w	r0, [r1, r9, lsl #2]
 80005e4:	2c00      	cmp	r4, #0
 80005e6:	68b8      	ldr	r0, [r7, #8]
 80005e8:	f850 2029 	ldr.w	r2, [r0, r9, lsl #2]
 80005ec:	bf0e      	itee	eq
 80005ee:	2100      	moveq	r1, #0
 80005f0:	1f20      	subne	r0, r4, #4
 80005f2:	f850 1029 	ldrne.w	r1, [r0, r9, lsl #2]
 80005f6:	e7c4      	b.n	8000582 <cmox_ECC_CondImportPoint+0x84>

080005f8 <cmox_ECC_PointToModularDomain>:
 80005f8:	b570      	push	{r4, r5, r6, lr}
 80005fa:	4604      	mov	r4, r0
 80005fc:	460d      	mov	r5, r1
 80005fe:	69a0      	ldr	r0, [r4, #24]
 8000600:	6841      	ldr	r1, [r0, #4]
 8000602:	69c8      	ldr	r0, [r1, #28]
 8000604:	2600      	movs	r6, #0
 8000606:	2803      	cmp	r0, #3
 8000608:	d818      	bhi.n	800063c <cmox_ECC_PointToModularDomain+0x44>
 800060a:	e8df f000 	tbb	[pc, r0]
 800060e:	0707      	.short	0x0707
 8000610:	0c02      	.short	0x0c02
 8000612:	6a22      	ldr	r2, [r4, #32]
 8000614:	68e8      	ldr	r0, [r5, #12]
 8000616:	4621      	mov	r1, r4
 8000618:	f002 f971 	bl	80028fe <cmox_ModularBN_Enter>
 800061c:	6a22      	ldr	r2, [r4, #32]
 800061e:	6868      	ldr	r0, [r5, #4]
 8000620:	4621      	mov	r1, r4
 8000622:	f002 f96c 	bl	80028fe <cmox_ModularBN_Enter>
 8000626:	6a22      	ldr	r2, [r4, #32]
 8000628:	6828      	ldr	r0, [r5, #0]
 800062a:	4621      	mov	r1, r4
 800062c:	f002 f967 	bl	80028fe <cmox_ModularBN_Enter>
 8000630:	6a22      	ldr	r2, [r4, #32]
 8000632:	68a8      	ldr	r0, [r5, #8]
 8000634:	4621      	mov	r1, r4
 8000636:	f002 f962 	bl	80028fe <cmox_ModularBN_Enter>
 800063a:	e000      	b.n	800063e <cmox_ECC_PointToModularDomain+0x46>
 800063c:	2601      	movs	r6, #1
 800063e:	6928      	ldr	r0, [r5, #16]
 8000640:	f040 0004 	orr.w	r0, r0, #4
 8000644:	6128      	str	r0, [r5, #16]
 8000646:	4630      	mov	r0, r6
 8000648:	bd70      	pop	{r4, r5, r6, pc}
	...

0800064c <cmox_ECC_PointFromModularDomain>:
 800064c:	b538      	push	{r3, r4, r5, lr}
 800064e:	4604      	mov	r4, r0
 8000650:	460d      	mov	r5, r1
 8000652:	69a0      	ldr	r0, [r4, #24]
 8000654:	6841      	ldr	r1, [r0, #4]
 8000656:	69c8      	ldr	r0, [r1, #28]
 8000658:	2803      	cmp	r0, #3
 800065a:	d81f      	bhi.n	800069c <cmox_ECC_PointFromModularDomain+0x50>
 800065c:	e8df f000 	tbb	[pc, r0]
 8000660:	10020909 	.word	0x10020909
 8000664:	6a23      	ldr	r3, [r4, #32]
 8000666:	69e2      	ldr	r2, [r4, #28]
 8000668:	68e8      	ldr	r0, [r5, #12]
 800066a:	4621      	mov	r1, r4
 800066c:	f002 f94f 	bl	800290e <cmox_ModularBN_Exit>
 8000670:	b9a8      	cbnz	r0, 800069e <cmox_ECC_PointFromModularDomain+0x52>
 8000672:	6a23      	ldr	r3, [r4, #32]
 8000674:	69e2      	ldr	r2, [r4, #28]
 8000676:	6868      	ldr	r0, [r5, #4]
 8000678:	4621      	mov	r1, r4
 800067a:	f002 f948 	bl	800290e <cmox_ModularBN_Exit>
 800067e:	b970      	cbnz	r0, 800069e <cmox_ECC_PointFromModularDomain+0x52>
 8000680:	6a23      	ldr	r3, [r4, #32]
 8000682:	69e2      	ldr	r2, [r4, #28]
 8000684:	6828      	ldr	r0, [r5, #0]
 8000686:	4621      	mov	r1, r4
 8000688:	f002 f941 	bl	800290e <cmox_ModularBN_Exit>
 800068c:	b938      	cbnz	r0, 800069e <cmox_ECC_PointFromModularDomain+0x52>
 800068e:	6a23      	ldr	r3, [r4, #32]
 8000690:	69e2      	ldr	r2, [r4, #28]
 8000692:	68a8      	ldr	r0, [r5, #8]
 8000694:	4621      	mov	r1, r4
 8000696:	f002 f93a 	bl	800290e <cmox_ModularBN_Exit>
 800069a:	e000      	b.n	800069e <cmox_ECC_PointFromModularDomain+0x52>
 800069c:	2001      	movs	r0, #1
 800069e:	6929      	ldr	r1, [r5, #16]
 80006a0:	f021 0104 	bic.w	r1, r1, #4
 80006a4:	6129      	str	r1, [r5, #16]
 80006a6:	bd32      	pop	{r1, r4, r5, pc}

080006a8 <cmox_ECC_PointValidation>:
 80006a8:	b5f8      	push	{r3, r4, r5, r6, r7, lr}
 80006aa:	4604      	mov	r4, r0
 80006ac:	2600      	movs	r6, #0
 80006ae:	460d      	mov	r5, r1
 80006b0:	2c00      	cmp	r4, #0
 80006b2:	bf18      	it	ne
 80006b4:	2d00      	cmpne	r5, #0
 80006b6:	d05e      	beq.n	8000776 <cmox_ECC_PointValidation+0xce>
 80006b8:	7c28      	ldrb	r0, [r5, #16]
 80006ba:	2100      	movs	r1, #0
 80006bc:	f000 0001 	and.w	r0, r0, #1
 80006c0:	f002 f9ab 	bl	8002a1a <cmox_mathUtils_neq>
 80006c4:	2801      	cmp	r0, #1
 80006c6:	d056      	beq.n	8000776 <cmox_ECC_PointValidation+0xce>
 80006c8:	68a8      	ldr	r0, [r5, #8]
 80006ca:	2100      	movs	r1, #0
 80006cc:	f003 fe42 	bl	8004354 <cmox_bn_cmpUint>
 80006d0:	2801      	cmp	r0, #1
 80006d2:	d050      	beq.n	8000776 <cmox_ECC_PointValidation+0xce>
 80006d4:	69a0      	ldr	r0, [r4, #24]
 80006d6:	6801      	ldr	r1, [r0, #0]
 80006d8:	6828      	ldr	r0, [r5, #0]
 80006da:	6809      	ldr	r1, [r1, #0]
 80006dc:	f003 fdf9 	bl	80042d2 <cmox_bn_cmp>
 80006e0:	2800      	cmp	r0, #0
 80006e2:	d548      	bpl.n	8000776 <cmox_ECC_PointValidation+0xce>
 80006e4:	69a0      	ldr	r0, [r4, #24]
 80006e6:	6841      	ldr	r1, [r0, #4]
 80006e8:	69ca      	ldr	r2, [r1, #28]
 80006ea:	2a03      	cmp	r2, #3
 80006ec:	d006      	beq.n	80006fc <cmox_ECC_PointValidation+0x54>
 80006ee:	6800      	ldr	r0, [r0, #0]
 80006f0:	6801      	ldr	r1, [r0, #0]
 80006f2:	6868      	ldr	r0, [r5, #4]
 80006f4:	f003 fded 	bl	80042d2 <cmox_bn_cmp>
 80006f8:	2800      	cmp	r0, #0
 80006fa:	d53c      	bpl.n	8000776 <cmox_ECC_PointValidation+0xce>
 80006fc:	69a1      	ldr	r1, [r4, #24]
 80006fe:	6809      	ldr	r1, [r1, #0]
 8000700:	6908      	ldr	r0, [r1, #16]
 8000702:	2800      	cmp	r0, #0
 8000704:	bf1c      	itt	ne
 8000706:	6948      	ldrne	r0, [r1, #20]
 8000708:	2800      	cmpne	r0, #0
 800070a:	d035      	beq.n	8000778 <cmox_ECC_PointValidation+0xd0>
 800070c:	69c8      	ldr	r0, [r1, #28]
 800070e:	b118      	cbz	r0, 8000718 <cmox_ECC_PointValidation+0x70>
 8000710:	2802      	cmp	r0, #2
 8000712:	d031      	beq.n	8000778 <cmox_ECC_PointValidation+0xd0>
 8000714:	d332      	bcc.n	800077c <cmox_ECC_PointValidation+0xd4>
 8000716:	e02e      	b.n	8000776 <cmox_ECC_PointValidation+0xce>
 8000718:	6960      	ldr	r0, [r4, #20]
 800071a:	6801      	ldr	r1, [r0, #0]
 800071c:	6a23      	ldr	r3, [r4, #32]
 800071e:	6828      	ldr	r0, [r5, #0]
 8000720:	4622      	mov	r2, r4
 8000722:	f002 f939 	bl	8002998 <cmox_ModularBN_Sqr>
 8000726:	69a0      	ldr	r0, [r4, #24]
 8000728:	6961      	ldr	r1, [r4, #20]
 800072a:	6800      	ldr	r0, [r0, #0]
 800072c:	680b      	ldr	r3, [r1, #0]
 800072e:	6802      	ldr	r2, [r0, #0]
 8000730:	6901      	ldr	r1, [r0, #16]
 8000732:	4618      	mov	r0, r3
 8000734:	f001 fe88 	bl	8002448 <cmox_ModAddBN>
 8000738:	6960      	ldr	r0, [r4, #20]
 800073a:	6a21      	ldr	r1, [r4, #32]
 800073c:	6802      	ldr	r2, [r0, #0]
 800073e:	9100      	str	r1, [sp, #0]
 8000740:	4623      	mov	r3, r4
 8000742:	6829      	ldr	r1, [r5, #0]
 8000744:	4610      	mov	r0, r2
 8000746:	f002 f904 	bl	8002952 <cmox_ModularBN_Mul>
 800074a:	69a0      	ldr	r0, [r4, #24]
 800074c:	6962      	ldr	r2, [r4, #20]
 800074e:	6801      	ldr	r1, [r0, #0]
 8000750:	6810      	ldr	r0, [r2, #0]
 8000752:	680a      	ldr	r2, [r1, #0]
 8000754:	6949      	ldr	r1, [r1, #20]
 8000756:	4603      	mov	r3, r0
 8000758:	f001 fe76 	bl	8002448 <cmox_ModAddBN>
 800075c:	6960      	ldr	r0, [r4, #20]
 800075e:	6841      	ldr	r1, [r0, #4]
 8000760:	6a23      	ldr	r3, [r4, #32]
 8000762:	6868      	ldr	r0, [r5, #4]
 8000764:	4622      	mov	r2, r4
 8000766:	f002 f917 	bl	8002998 <cmox_ModularBN_Sqr>
 800076a:	6960      	ldr	r0, [r4, #20]
 800076c:	6841      	ldr	r1, [r0, #4]
 800076e:	6800      	ldr	r0, [r0, #0]
 8000770:	f003 fdaf 	bl	80042d2 <cmox_bn_cmp>
 8000774:	b100      	cbz	r0, 8000778 <cmox_ECC_PointValidation+0xd0>
 8000776:	2604      	movs	r6, #4
 8000778:	4630      	mov	r0, r6
 800077a:	bdf2      	pop	{r1, r4, r5, r6, r7, pc}
 800077c:	6960      	ldr	r0, [r4, #20]
 800077e:	6801      	ldr	r1, [r0, #0]
 8000780:	6a23      	ldr	r3, [r4, #32]
 8000782:	6828      	ldr	r0, [r5, #0]
 8000784:	4622      	mov	r2, r4
 8000786:	f002 f907 	bl	8002998 <cmox_ModularBN_Sqr>
 800078a:	6960      	ldr	r0, [r4, #20]
 800078c:	6841      	ldr	r1, [r0, #4]
 800078e:	6a23      	ldr	r3, [r4, #32]
 8000790:	6868      	ldr	r0, [r5, #4]
 8000792:	4622      	mov	r2, r4
 8000794:	f002 f900 	bl	8002998 <cmox_ModularBN_Sqr>
 8000798:	6960      	ldr	r0, [r4, #20]
 800079a:	6a22      	ldr	r2, [r4, #32]
 800079c:	6801      	ldr	r1, [r0, #0]
 800079e:	9200      	str	r2, [sp, #0]
 80007a0:	4623      	mov	r3, r4
 80007a2:	69a0      	ldr	r0, [r4, #24]
 80007a4:	6807      	ldr	r7, [r0, #0]
 80007a6:	6938      	ldr	r0, [r7, #16]
 80007a8:	460a      	mov	r2, r1
 80007aa:	f002 f8d2 	bl	8002952 <cmox_ModularBN_Mul>
 80007ae:	69a2      	ldr	r2, [r4, #24]
 80007b0:	6961      	ldr	r1, [r4, #20]
 80007b2:	6817      	ldr	r7, [r2, #0]
 80007b4:	6808      	ldr	r0, [r1, #0]
 80007b6:	683a      	ldr	r2, [r7, #0]
 80007b8:	6849      	ldr	r1, [r1, #4]
 80007ba:	4603      	mov	r3, r0
 80007bc:	f001 fe44 	bl	8002448 <cmox_ModAddBN>
 80007c0:	6960      	ldr	r0, [r4, #20]
 80007c2:	6a21      	ldr	r1, [r4, #32]
 80007c4:	6840      	ldr	r0, [r0, #4]
 80007c6:	9100      	str	r1, [sp, #0]
 80007c8:	4623      	mov	r3, r4
 80007ca:	6829      	ldr	r1, [r5, #0]
 80007cc:	4602      	mov	r2, r0
 80007ce:	f002 f8c0 	bl	8002952 <cmox_ModularBN_Mul>
 80007d2:	6960      	ldr	r0, [r4, #20]
 80007d4:	6a21      	ldr	r1, [r4, #32]
 80007d6:	6840      	ldr	r0, [r0, #4]
 80007d8:	9100      	str	r1, [sp, #0]
 80007da:	4623      	mov	r3, r4
 80007dc:	6829      	ldr	r1, [r5, #0]
 80007de:	4602      	mov	r2, r0
 80007e0:	f002 f8b7 	bl	8002952 <cmox_ModularBN_Mul>
 80007e4:	6960      	ldr	r0, [r4, #20]
 80007e6:	6a21      	ldr	r1, [r4, #32]
 80007e8:	6840      	ldr	r0, [r0, #4]
 80007ea:	9100      	str	r1, [sp, #0]
 80007ec:	4623      	mov	r3, r4
 80007ee:	69a7      	ldr	r7, [r4, #24]
 80007f0:	683f      	ldr	r7, [r7, #0]
 80007f2:	6979      	ldr	r1, [r7, #20]
 80007f4:	4602      	mov	r2, r0
 80007f6:	f002 f8ac 	bl	8002952 <cmox_ModularBN_Mul>
 80007fa:	69a1      	ldr	r1, [r4, #24]
 80007fc:	6960      	ldr	r0, [r4, #20]
 80007fe:	680a      	ldr	r2, [r1, #0]
 8000800:	6840      	ldr	r0, [r0, #4]
 8000802:	6812      	ldr	r2, [r2, #0]
 8000804:	68a9      	ldr	r1, [r5, #8]
 8000806:	4603      	mov	r3, r0
 8000808:	f001 fe1e 	bl	8002448 <cmox_ModAddBN>
 800080c:	e7ad      	b.n	800076a <cmox_ECC_PointValidation+0xc2>
	...

08000810 <cmox_ECC_PointToAffine>:
 8000810:	b5f0      	push	{r4, r5, r6, r7, lr}
 8000812:	b085      	sub	sp, #20
 8000814:	460f      	mov	r7, r1
 8000816:	4606      	mov	r6, r0
 8000818:	2100      	movs	r1, #0
 800081a:	9103      	str	r1, [sp, #12]
 800081c:	9104      	str	r1, [sp, #16]
 800081e:	a903      	add	r1, sp, #12
 8000820:	69b0      	ldr	r0, [r6, #24]
 8000822:	6803      	ldr	r3, [r0, #0]
 8000824:	681c      	ldr	r4, [r3, #0]
 8000826:	69f0      	ldr	r0, [r6, #28]
 8000828:	6822      	ldr	r2, [r4, #0]
 800082a:	f003 fccf 	bl	80041cc <cmox_bn_alloc>
 800082e:	2501      	movs	r5, #1
 8000830:	0004      	movs	r4, r0
 8000832:	f040 80c5 	bne.w	80009c0 <cmox_ECC_PointToAffine+0x1b0>
 8000836:	69b0      	ldr	r0, [r6, #24]
 8000838:	6801      	ldr	r1, [r0, #0]
 800083a:	680a      	ldr	r2, [r1, #0]
 800083c:	69f0      	ldr	r0, [r6, #28]
 800083e:	6812      	ldr	r2, [r2, #0]
 8000840:	a904      	add	r1, sp, #16
 8000842:	f003 fcc3 	bl	80041cc <cmox_bn_alloc>
 8000846:	0004      	movs	r4, r0
 8000848:	f040 80b6 	bne.w	80009b8 <cmox_ECC_PointToAffine+0x1a8>
 800084c:	7c38      	ldrb	r0, [r7, #16]
 800084e:	2100      	movs	r1, #0
 8000850:	f000 0004 	and.w	r0, r0, #4
 8000854:	f002 f8e1 	bl	8002a1a <cmox_mathUtils_neq>
 8000858:	b920      	cbnz	r0, 8000864 <cmox_ECC_PointToAffine+0x54>
 800085a:	4639      	mov	r1, r7
 800085c:	4630      	mov	r0, r6
 800085e:	f7ff fecb 	bl	80005f8 <cmox_ECC_PointToModularDomain>
 8000862:	2500      	movs	r5, #0
 8000864:	f8df 2178 	ldr.w	r2, [pc, #376]	@ 80009e0 <.text_19>
 8000868:	4957      	ldr	r1, [pc, #348]	@ (80009c8 <cmox_ECC_PointToAffine+0x1b8>)
 800086a:	e9d2 3400 	ldrd	r3, r4, [r2]
 800086e:	e9cd 3400 	strd	r3, r4, [sp]
 8000872:	7808      	ldrb	r0, [r1, #0]
 8000874:	4b55      	ldr	r3, [pc, #340]	@ (80009cc <cmox_ECC_PointToAffine+0x1bc>)
 8000876:	2800      	cmp	r0, #0
 8000878:	bf0e      	itee	eq
 800087a:	2100      	moveq	r1, #0
 800087c:	2004      	movne	r0, #4
 800087e:	2104      	movne	r1, #4
 8000880:	581a      	ldr	r2, [r3, r0]
 8000882:	f85d 0001 	ldr.w	r0, [sp, r1]
 8000886:	4952      	ldr	r1, [pc, #328]	@ (80009d0 <cmox_ECC_PointToAffine+0x1c0>)
 8000888:	1882      	adds	r2, r0, r2
 800088a:	6011      	str	r1, [r2, #0]
 800088c:	2101      	movs	r1, #1
 800088e:	6810      	ldr	r0, [r2, #0]
 8000890:	6091      	str	r1, [r2, #8]
 8000892:	685a      	ldr	r2, [r3, #4]
 8000894:	9900      	ldr	r1, [sp, #0]
 8000896:	4050      	eors	r0, r2
 8000898:	4041      	eors	r1, r0
 800089a:	484e      	ldr	r0, [pc, #312]	@ (80009d4 <cmox_ECC_PointToAffine+0x1c4>)
 800089c:	681a      	ldr	r2, [r3, #0]
 800089e:	ea80 0c01 	eor.w	ip, r0, r1
 80008a2:	9901      	ldr	r1, [sp, #4]
 80008a4:	484c      	ldr	r0, [pc, #304]	@ (80009d8 <cmox_ECC_PointToAffine+0x1c8>)
 80008a6:	404a      	eors	r2, r1
 80008a8:	4042      	eors	r2, r0
 80008aa:	69b0      	ldr	r0, [r6, #24]
 80008ac:	6803      	ldr	r3, [r0, #0]
 80008ae:	6818      	ldr	r0, [r3, #0]
 80008b0:	4494      	add	ip, r2
 80008b2:	4a4a      	ldr	r2, [pc, #296]	@ (80009dc <cmox_ECC_PointToAffine+0x1cc>)
 80008b4:	ea92 0f0c 	teq	r2, ip
 80008b8:	9a04      	ldr	r2, [sp, #16]
 80008ba:	bf14      	ite	ne
 80008bc:	f06f 0102 	mvnne.w	r1, #2
 80008c0:	f06f 0101 	mvneq.w	r1, #1
 80008c4:	f001 ff04 	bl	80026d0 <cmox_AddBN_Int>
 80008c8:	69b0      	ldr	r0, [r6, #24]
 80008ca:	69c4      	ldr	r4, [r0, #28]
 80008cc:	6a30      	ldr	r0, [r6, #32]
 80008ce:	9002      	str	r0, [sp, #8]
 80008d0:	4632      	mov	r2, r6
 80008d2:	69f1      	ldr	r1, [r6, #28]
 80008d4:	9803      	ldr	r0, [sp, #12]
 80008d6:	9101      	str	r1, [sp, #4]
 80008d8:	9000      	str	r0, [sp, #0]
 80008da:	6863      	ldr	r3, [r4, #4]
 80008dc:	9904      	ldr	r1, [sp, #16]
 80008de:	68b8      	ldr	r0, [r7, #8]
 80008e0:	6824      	ldr	r4, [r4, #0]
 80008e2:	47a0      	blx	r4
 80008e4:	4604      	mov	r4, r0
 80008e6:	69b0      	ldr	r0, [r6, #24]
 80008e8:	6841      	ldr	r1, [r0, #4]
 80008ea:	69c8      	ldr	r0, [r1, #28]
 80008ec:	2803      	cmp	r0, #3
 80008ee:	d849      	bhi.n	8000984 <cmox_ECC_PointToAffine+0x174>
 80008f0:	e8df f000 	tbb	[pc, r0]
 80008f4:	3f281e02 	.word	0x3f281e02
 80008f8:	6a33      	ldr	r3, [r6, #32]
 80008fa:	9904      	ldr	r1, [sp, #16]
 80008fc:	9803      	ldr	r0, [sp, #12]
 80008fe:	4632      	mov	r2, r6
 8000900:	f002 f84a 	bl	8002998 <cmox_ModularBN_Sqr>
 8000904:	683a      	ldr	r2, [r7, #0]
 8000906:	6a30      	ldr	r0, [r6, #32]
 8000908:	9904      	ldr	r1, [sp, #16]
 800090a:	9000      	str	r0, [sp, #0]
 800090c:	4633      	mov	r3, r6
 800090e:	4610      	mov	r0, r2
 8000910:	f002 f81f 	bl	8002952 <cmox_ModularBN_Mul>
 8000914:	6a30      	ldr	r0, [r6, #32]
 8000916:	9a04      	ldr	r2, [sp, #16]
 8000918:	9000      	str	r0, [sp, #0]
 800091a:	4633      	mov	r3, r6
 800091c:	9803      	ldr	r0, [sp, #12]
 800091e:	4611      	mov	r1, r2
 8000920:	f002 f817 	bl	8002952 <cmox_ModularBN_Mul>
 8000924:	6878      	ldr	r0, [r7, #4]
 8000926:	6a31      	ldr	r1, [r6, #32]
 8000928:	9100      	str	r1, [sp, #0]
 800092a:	4633      	mov	r3, r6
 800092c:	9904      	ldr	r1, [sp, #16]
 800092e:	e025      	b.n	800097c <cmox_ECC_PointToAffine+0x16c>
 8000930:	6838      	ldr	r0, [r7, #0]
 8000932:	6a31      	ldr	r1, [r6, #32]
 8000934:	9100      	str	r1, [sp, #0]
 8000936:	4633      	mov	r3, r6
 8000938:	9903      	ldr	r1, [sp, #12]
 800093a:	4602      	mov	r2, r0
 800093c:	f002 f809 	bl	8002952 <cmox_ModularBN_Mul>
 8000940:	6878      	ldr	r0, [r7, #4]
 8000942:	e017      	b.n	8000974 <cmox_ECC_PointToAffine+0x164>
 8000944:	6838      	ldr	r0, [r7, #0]
 8000946:	6a31      	ldr	r1, [r6, #32]
 8000948:	9100      	str	r1, [sp, #0]
 800094a:	4633      	mov	r3, r6
 800094c:	9903      	ldr	r1, [sp, #12]
 800094e:	4602      	mov	r2, r0
 8000950:	f001 ffff 	bl	8002952 <cmox_ModularBN_Mul>
 8000954:	6878      	ldr	r0, [r7, #4]
 8000956:	6a31      	ldr	r1, [r6, #32]
 8000958:	9100      	str	r1, [sp, #0]
 800095a:	4633      	mov	r3, r6
 800095c:	9903      	ldr	r1, [sp, #12]
 800095e:	4602      	mov	r2, r0
 8000960:	f001 fff7 	bl	8002952 <cmox_ModularBN_Mul>
 8000964:	6a30      	ldr	r0, [r6, #32]
 8000966:	9000      	str	r0, [sp, #0]
 8000968:	68fa      	ldr	r2, [r7, #12]
 800096a:	6879      	ldr	r1, [r7, #4]
 800096c:	6838      	ldr	r0, [r7, #0]
 800096e:	4633      	mov	r3, r6
 8000970:	e005      	b.n	800097e <cmox_ECC_PointToAffine+0x16e>
 8000972:	6838      	ldr	r0, [r7, #0]
 8000974:	6a31      	ldr	r1, [r6, #32]
 8000976:	9100      	str	r1, [sp, #0]
 8000978:	4633      	mov	r3, r6
 800097a:	9903      	ldr	r1, [sp, #12]
 800097c:	4602      	mov	r2, r0
 800097e:	f001 ffe8 	bl	8002952 <cmox_ModularBN_Mul>
 8000982:	e000      	b.n	8000986 <cmox_ECC_PointToAffine+0x176>
 8000984:	2401      	movs	r4, #1
 8000986:	68b8      	ldr	r0, [r7, #8]
 8000988:	6a31      	ldr	r1, [r6, #32]
 800098a:	9100      	str	r1, [sp, #0]
 800098c:	4633      	mov	r3, r6
 800098e:	9903      	ldr	r1, [sp, #12]
 8000990:	4602      	mov	r2, r0
 8000992:	f001 ffde 	bl	8002952 <cmox_ModularBN_Mul>
 8000996:	2d00      	cmp	r5, #0
 8000998:	bf08      	it	eq
 800099a:	2c00      	cmpeq	r4, #0
 800099c:	d104      	bne.n	80009a8 <cmox_ECC_PointToAffine+0x198>
 800099e:	4639      	mov	r1, r7
 80009a0:	4630      	mov	r0, r6
 80009a2:	f7ff fe53 	bl	800064c <cmox_ECC_PointFromModularDomain>
 80009a6:	4604      	mov	r4, r0
 80009a8:	6938      	ldr	r0, [r7, #16]
 80009aa:	f040 0002 	orr.w	r0, r0, #2
 80009ae:	6138      	str	r0, [r7, #16]
 80009b0:	a904      	add	r1, sp, #16
 80009b2:	69f0      	ldr	r0, [r6, #28]
 80009b4:	f003 fc15 	bl	80041e2 <cmox_bn_free>
 80009b8:	69f0      	ldr	r0, [r6, #28]
 80009ba:	a903      	add	r1, sp, #12
 80009bc:	f003 fc11 	bl	80041e2 <cmox_bn_free>
 80009c0:	4620      	mov	r0, r4
 80009c2:	b005      	add	sp, #20
 80009c4:	bdf0      	pop	{r4, r5, r6, r7, pc}
 80009c6:	bf00      	nop
 80009c8:	200000bc 	.word	0x200000bc
 80009cc:	080094a4 	.word	0x080094a4
 80009d0:	ad827e2c 	.word	0xad827e2c
 80009d4:	12008504 	.word	0x12008504
 80009d8:	7a0168fc 	.word	0x7a0168fc
 80009dc:	8e9be2a8 	.word	0x8e9be2a8

080009e0 <.text_19>:
 80009e0:	08001fa4 	.word	0x08001fa4

080009e4 <cmox_ECC_EDW_DecPoint_ed25519>:
 80009e4:	e92d 47f0 	stmdb	sp!, {r4, r5, r6, r7, r8, r9, sl, lr}
 80009e8:	4606      	mov	r6, r0
 80009ea:	b088      	sub	sp, #32
 80009ec:	69b0      	ldr	r0, [r6, #24]
 80009ee:	4689      	mov	r9, r1
 80009f0:	461d      	mov	r5, r3
 80009f2:	6a01      	ldr	r1, [r0, #32]
 80009f4:	6800      	ldr	r0, [r0, #0]
 80009f6:	f8d1 8008 	ldr.w	r8, [r1, #8]
 80009fa:	6803      	ldr	r3, [r0, #0]
 80009fc:	69f0      	ldr	r0, [r6, #28]
 80009fe:	4692      	mov	sl, r2
 8000a00:	eb09 020a 	add.w	r2, r9, sl
 8000a04:	a906      	add	r1, sp, #24
 8000a06:	f812 7c01 	ldrb.w	r7, [r2, #-1]
 8000a0a:	681a      	ldr	r2, [r3, #0]
 8000a0c:	f003 fbde 	bl	80041cc <cmox_bn_alloc>
 8000a10:	09ff      	lsrs	r7, r7, #7
 8000a12:	0004      	movs	r4, r0
 8000a14:	f040 8141 	bne.w	8000c9a <cmox_ECC_EDW_DecPoint_ed25519+0x2b6>
 8000a18:	69b0      	ldr	r0, [r6, #24]
 8000a1a:	6801      	ldr	r1, [r0, #0]
 8000a1c:	680a      	ldr	r2, [r1, #0]
 8000a1e:	69f0      	ldr	r0, [r6, #28]
 8000a20:	6812      	ldr	r2, [r2, #0]
 8000a22:	a907      	add	r1, sp, #28
 8000a24:	f003 fbd2 	bl	80041cc <cmox_bn_alloc>
 8000a28:	0004      	movs	r4, r0
 8000a2a:	f040 8132 	bne.w	8000c92 <cmox_ECC_EDW_DecPoint_ed25519+0x2ae>
 8000a2e:	69b0      	ldr	r0, [r6, #24]
 8000a30:	6801      	ldr	r1, [r0, #0]
 8000a32:	680a      	ldr	r2, [r1, #0]
 8000a34:	69f0      	ldr	r0, [r6, #28]
 8000a36:	6812      	ldr	r2, [r2, #0]
 8000a38:	a903      	add	r1, sp, #12
 8000a3a:	f003 fbc7 	bl	80041cc <cmox_bn_alloc>
 8000a3e:	0004      	movs	r4, r0
 8000a40:	f040 8123 	bne.w	8000c8a <cmox_ECC_EDW_DecPoint_ed25519+0x2a6>
 8000a44:	69b0      	ldr	r0, [r6, #24]
 8000a46:	6801      	ldr	r1, [r0, #0]
 8000a48:	680a      	ldr	r2, [r1, #0]
 8000a4a:	69f0      	ldr	r0, [r6, #28]
 8000a4c:	6812      	ldr	r2, [r2, #0]
 8000a4e:	a905      	add	r1, sp, #20
 8000a50:	f003 fbbc 	bl	80041cc <cmox_bn_alloc>
 8000a54:	0004      	movs	r4, r0
 8000a56:	f040 8114 	bne.w	8000c82 <cmox_ECC_EDW_DecPoint_ed25519+0x29e>
 8000a5a:	69b0      	ldr	r0, [r6, #24]
 8000a5c:	6801      	ldr	r1, [r0, #0]
 8000a5e:	680a      	ldr	r2, [r1, #0]
 8000a60:	69f0      	ldr	r0, [r6, #28]
 8000a62:	6812      	ldr	r2, [r2, #0]
 8000a64:	a904      	add	r1, sp, #16
 8000a66:	f003 fbb1 	bl	80041cc <cmox_bn_alloc>
 8000a6a:	0004      	movs	r4, r0
 8000a6c:	f040 8105 	bne.w	8000c7a <cmox_ECC_EDW_DecPoint_ed25519+0x296>
 8000a70:	9a03      	ldr	r2, [sp, #12]
 8000a72:	4651      	mov	r1, sl
 8000a74:	4648      	mov	r0, r9
 8000a76:	f003 fd4e 	bl	8004516 <cmox_bn_fromU8LE>
 8000a7a:	9803      	ldr	r0, [sp, #12]
 8000a7c:	9903      	ldr	r1, [sp, #12]
 8000a7e:	6800      	ldr	r0, [r0, #0]
 8000a80:	f851 2020 	ldr.w	r2, [r1, r0, lsl #2]
 8000a84:	f022 4200 	bic.w	r2, r2, #2147483648	@ 0x80000000
 8000a88:	f841 2020 	str.w	r2, [r1, r0, lsl #2]
 8000a8c:	69b0      	ldr	r0, [r6, #24]
 8000a8e:	6801      	ldr	r1, [r0, #0]
 8000a90:	9803      	ldr	r0, [sp, #12]
 8000a92:	6809      	ldr	r1, [r1, #0]
 8000a94:	f003 fc1d 	bl	80042d2 <cmox_bn_cmp>
 8000a98:	2800      	cmp	r0, #0
 8000a9a:	d404      	bmi.n	8000aa6 <cmox_ECC_EDW_DecPoint_ed25519+0xc2>
 8000a9c:	69f0      	ldr	r0, [r6, #28]
 8000a9e:	a904      	add	r1, sp, #16
 8000aa0:	f003 fb9f 	bl	80041e2 <cmox_bn_free>
 8000aa4:	e0c3      	b.n	8000c2e <cmox_ECC_EDW_DecPoint_ed25519+0x24a>
 8000aa6:	6868      	ldr	r0, [r5, #4]
 8000aa8:	2100      	movs	r1, #0
 8000aaa:	f003 fbc6 	bl	800423a <cmox_bn_init>
 8000aae:	686a      	ldr	r2, [r5, #4]
 8000ab0:	9903      	ldr	r1, [sp, #12]
 8000ab2:	2001      	movs	r0, #1
 8000ab4:	f003 fbd0 	bl	8004258 <cmox_bn_cCopy>
 8000ab8:	6a32      	ldr	r2, [r6, #32]
 8000aba:	9803      	ldr	r0, [sp, #12]
 8000abc:	4631      	mov	r1, r6
 8000abe:	f001 ff1e 	bl	80028fe <cmox_ModularBN_Enter>
 8000ac2:	6a33      	ldr	r3, [r6, #32]
 8000ac4:	9905      	ldr	r1, [sp, #20]
 8000ac6:	9803      	ldr	r0, [sp, #12]
 8000ac8:	4632      	mov	r2, r6
 8000aca:	f001 ff65 	bl	8002998 <cmox_ModularBN_Sqr>
 8000ace:	69b0      	ldr	r0, [r6, #24]
 8000ad0:	6801      	ldr	r1, [r0, #0]
 8000ad2:	68c0      	ldr	r0, [r0, #12]
 8000ad4:	680a      	ldr	r2, [r1, #0]
 8000ad6:	6812      	ldr	r2, [r2, #0]
 8000ad8:	1d01      	adds	r1, r0, #4
 8000ada:	9804      	ldr	r0, [sp, #16]
 8000adc:	f003 fb8c 	bl	80041f8 <cmox_bn_import>
 8000ae0:	69b0      	ldr	r0, [r6, #24]
 8000ae2:	6801      	ldr	r1, [r0, #0]
 8000ae4:	680a      	ldr	r2, [r1, #0]
 8000ae6:	9b07      	ldr	r3, [sp, #28]
 8000ae8:	9904      	ldr	r1, [sp, #16]
 8000aea:	9805      	ldr	r0, [sp, #20]
 8000aec:	f001 fd3d 	bl	800256a <cmox_ModSubBN>
 8000af0:	6a30      	ldr	r0, [r6, #32]
 8000af2:	9a06      	ldr	r2, [sp, #24]
 8000af4:	9000      	str	r0, [sp, #0]
 8000af6:	4633      	mov	r3, r6
 8000af8:	69b0      	ldr	r0, [r6, #24]
 8000afa:	6801      	ldr	r1, [r0, #0]
 8000afc:	9805      	ldr	r0, [sp, #20]
 8000afe:	6949      	ldr	r1, [r1, #20]
 8000b00:	f001 ff27 	bl	8002952 <cmox_ModularBN_Mul>
 8000b04:	69b0      	ldr	r0, [r6, #24]
 8000b06:	6801      	ldr	r1, [r0, #0]
 8000b08:	680a      	ldr	r2, [r1, #0]
 8000b0a:	9b06      	ldr	r3, [sp, #24]
 8000b0c:	9904      	ldr	r1, [sp, #16]
 8000b0e:	4618      	mov	r0, r3
 8000b10:	f001 fc9a 	bl	8002448 <cmox_ModAddBN>
 8000b14:	6a33      	ldr	r3, [r6, #32]
 8000b16:	9903      	ldr	r1, [sp, #12]
 8000b18:	9806      	ldr	r0, [sp, #24]
 8000b1a:	4632      	mov	r2, r6
 8000b1c:	f001 ff3c 	bl	8002998 <cmox_ModularBN_Sqr>
 8000b20:	6a30      	ldr	r0, [r6, #32]
 8000b22:	9a03      	ldr	r2, [sp, #12]
 8000b24:	9906      	ldr	r1, [sp, #24]
 8000b26:	9000      	str	r0, [sp, #0]
 8000b28:	4633      	mov	r3, r6
 8000b2a:	4610      	mov	r0, r2
 8000b2c:	f001 ff11 	bl	8002952 <cmox_ModularBN_Mul>
 8000b30:	6a30      	ldr	r0, [r6, #32]
 8000b32:	9a05      	ldr	r2, [sp, #20]
 8000b34:	9903      	ldr	r1, [sp, #12]
 8000b36:	9000      	str	r0, [sp, #0]
 8000b38:	4633      	mov	r3, r6
 8000b3a:	9807      	ldr	r0, [sp, #28]
 8000b3c:	f001 ff09 	bl	8002952 <cmox_ModularBN_Mul>
 8000b40:	9903      	ldr	r1, [sp, #12]
 8000b42:	6a33      	ldr	r3, [r6, #32]
 8000b44:	4632      	mov	r2, r6
 8000b46:	4608      	mov	r0, r1
 8000b48:	f001 ff26 	bl	8002998 <cmox_ModularBN_Sqr>
 8000b4c:	6a30      	ldr	r0, [r6, #32]
 8000b4e:	9a03      	ldr	r2, [sp, #12]
 8000b50:	9906      	ldr	r1, [sp, #24]
 8000b52:	9000      	str	r0, [sp, #0]
 8000b54:	4633      	mov	r3, r6
 8000b56:	4610      	mov	r0, r2
 8000b58:	f001 fefb 	bl	8002952 <cmox_ModularBN_Mul>
 8000b5c:	6a30      	ldr	r0, [r6, #32]
 8000b5e:	9a03      	ldr	r2, [sp, #12]
 8000b60:	9907      	ldr	r1, [sp, #28]
 8000b62:	9000      	str	r0, [sp, #0]
 8000b64:	4633      	mov	r3, r6
 8000b66:	4610      	mov	r0, r2
 8000b68:	f001 fef3 	bl	8002952 <cmox_ModularBN_Mul>
 8000b6c:	69b0      	ldr	r0, [r6, #24]
 8000b6e:	6803      	ldr	r3, [r0, #0]
 8000b70:	9a04      	ldr	r2, [sp, #16]
 8000b72:	6818      	ldr	r0, [r3, #0]
 8000b74:	f06f 0104 	mvn.w	r1, #4
 8000b78:	f001 fdaa 	bl	80026d0 <cmox_AddBN_Int>
 8000b7c:	9a04      	ldr	r2, [sp, #16]
 8000b7e:	2103      	movs	r1, #3
 8000b80:	4610      	mov	r0, r2
 8000b82:	f001 fc36 	bl	80023f2 <cmox_RightShiftBN>
 8000b86:	69b0      	ldr	r0, [r6, #24]
 8000b88:	69c4      	ldr	r4, [r0, #28]
 8000b8a:	6a30      	ldr	r0, [r6, #32]
 8000b8c:	9002      	str	r0, [sp, #8]
 8000b8e:	69f1      	ldr	r1, [r6, #28]
 8000b90:	9803      	ldr	r0, [sp, #12]
 8000b92:	9101      	str	r1, [sp, #4]
 8000b94:	682a      	ldr	r2, [r5, #0]
 8000b96:	9904      	ldr	r1, [sp, #16]
 8000b98:	9200      	str	r2, [sp, #0]
 8000b9a:	4632      	mov	r2, r6
 8000b9c:	6863      	ldr	r3, [r4, #4]
 8000b9e:	6824      	ldr	r4, [r4, #0]
 8000ba0:	47a0      	blx	r4
 8000ba2:	4604      	mov	r4, r0
 8000ba4:	69f0      	ldr	r0, [r6, #28]
 8000ba6:	a904      	add	r1, sp, #16
 8000ba8:	f003 fb1b 	bl	80041e2 <cmox_bn_free>
 8000bac:	2c00      	cmp	r4, #0
 8000bae:	d164      	bne.n	8000c7a <cmox_ECC_EDW_DecPoint_ed25519+0x296>
 8000bb0:	6828      	ldr	r0, [r5, #0]
 8000bb2:	6a31      	ldr	r1, [r6, #32]
 8000bb4:	9100      	str	r1, [sp, #0]
 8000bb6:	4633      	mov	r3, r6
 8000bb8:	9905      	ldr	r1, [sp, #20]
 8000bba:	4602      	mov	r2, r0
 8000bbc:	f001 fec9 	bl	8002952 <cmox_ModularBN_Mul>
 8000bc0:	6a33      	ldr	r3, [r6, #32]
 8000bc2:	9903      	ldr	r1, [sp, #12]
 8000bc4:	6828      	ldr	r0, [r5, #0]
 8000bc6:	4632      	mov	r2, r6
 8000bc8:	f001 fee6 	bl	8002998 <cmox_ModularBN_Sqr>
 8000bcc:	6a30      	ldr	r0, [r6, #32]
 8000bce:	9a03      	ldr	r2, [sp, #12]
 8000bd0:	9000      	str	r0, [sp, #0]
 8000bd2:	4633      	mov	r3, r6
 8000bd4:	9806      	ldr	r0, [sp, #24]
 8000bd6:	4611      	mov	r1, r2
 8000bd8:	f001 febb 	bl	8002952 <cmox_ModularBN_Mul>
 8000bdc:	9907      	ldr	r1, [sp, #28]
 8000bde:	9803      	ldr	r0, [sp, #12]
 8000be0:	f003 fb77 	bl	80042d2 <cmox_bn_cmp>
 8000be4:	b198      	cbz	r0, 8000c0e <cmox_ECC_EDW_DecPoint_ed25519+0x22a>
 8000be6:	69b0      	ldr	r0, [r6, #24]
 8000be8:	6803      	ldr	r3, [r0, #0]
 8000bea:	9a05      	ldr	r2, [sp, #20]
 8000bec:	9907      	ldr	r1, [sp, #28]
 8000bee:	6818      	ldr	r0, [r3, #0]
 8000bf0:	f001 fd3a 	bl	8002668 <cmox_SubBN>
 8000bf4:	9905      	ldr	r1, [sp, #20]
 8000bf6:	9803      	ldr	r0, [sp, #12]
 8000bf8:	f003 fb6b 	bl	80042d2 <cmox_bn_cmp>
 8000bfc:	b9b8      	cbnz	r0, 8000c2e <cmox_ECC_EDW_DecPoint_ed25519+0x24a>
 8000bfe:	6828      	ldr	r0, [r5, #0]
 8000c00:	6a31      	ldr	r1, [r6, #32]
 8000c02:	9100      	str	r1, [sp, #0]
 8000c04:	4633      	mov	r3, r6
 8000c06:	4602      	mov	r2, r0
 8000c08:	4641      	mov	r1, r8
 8000c0a:	f001 fea2 	bl	8002952 <cmox_ModularBN_Mul>
 8000c0e:	6a33      	ldr	r3, [r6, #32]
 8000c10:	69f2      	ldr	r2, [r6, #28]
 8000c12:	6828      	ldr	r0, [r5, #0]
 8000c14:	4631      	mov	r1, r6
 8000c16:	f001 fe7a 	bl	800290e <cmox_ModularBN_Exit>
 8000c1a:	0004      	movs	r4, r0
 8000c1c:	d12d      	bne.n	8000c7a <cmox_ECC_EDW_DecPoint_ed25519+0x296>
 8000c1e:	2f01      	cmp	r7, #1
 8000c20:	d107      	bne.n	8000c32 <cmox_ECC_EDW_DecPoint_ed25519+0x24e>
 8000c22:	6828      	ldr	r0, [r5, #0]
 8000c24:	2100      	movs	r1, #0
 8000c26:	f003 fb95 	bl	8004354 <cmox_bn_cmpUint>
 8000c2a:	2801      	cmp	r0, #1
 8000c2c:	d101      	bne.n	8000c32 <cmox_ECC_EDW_DecPoint_ed25519+0x24e>
 8000c2e:	2404      	movs	r4, #4
 8000c30:	e023      	b.n	8000c7a <cmox_ECC_EDW_DecPoint_ed25519+0x296>
 8000c32:	69b0      	ldr	r0, [r6, #24]
 8000c34:	6829      	ldr	r1, [r5, #0]
 8000c36:	6802      	ldr	r2, [r0, #0]
 8000c38:	7908      	ldrb	r0, [r1, #4]
 8000c3a:	6812      	ldr	r2, [r2, #0]
 8000c3c:	f000 0001 	and.w	r0, r0, #1
 8000c40:	4078      	eors	r0, r7
 8000c42:	f001 fe15 	bl	8002870 <cmox_FieldBN_CondNegate>
 8000c46:	6928      	ldr	r0, [r5, #16]
 8000c48:	f040 0002 	orr.w	r0, r0, #2
 8000c4c:	6128      	str	r0, [r5, #16]
 8000c4e:	2101      	movs	r1, #1
 8000c50:	68a8      	ldr	r0, [r5, #8]
 8000c52:	f003 faf2 	bl	800423a <cmox_bn_init>
 8000c56:	69b0      	ldr	r0, [r6, #24]
 8000c58:	6841      	ldr	r1, [r0, #4]
 8000c5a:	69c8      	ldr	r0, [r1, #28]
 8000c5c:	2802      	cmp	r0, #2
 8000c5e:	d10c      	bne.n	8000c7a <cmox_ECC_EDW_DecPoint_ed25519+0x296>
 8000c60:	6a30      	ldr	r0, [r6, #32]
 8000c62:	9000      	str	r0, [sp, #0]
 8000c64:	68ea      	ldr	r2, [r5, #12]
 8000c66:	6869      	ldr	r1, [r5, #4]
 8000c68:	6828      	ldr	r0, [r5, #0]
 8000c6a:	4633      	mov	r3, r6
 8000c6c:	f001 fe71 	bl	8002952 <cmox_ModularBN_Mul>
 8000c70:	6a32      	ldr	r2, [r6, #32]
 8000c72:	68e8      	ldr	r0, [r5, #12]
 8000c74:	4631      	mov	r1, r6
 8000c76:	f001 fe42 	bl	80028fe <cmox_ModularBN_Enter>
 8000c7a:	69f0      	ldr	r0, [r6, #28]
 8000c7c:	a905      	add	r1, sp, #20
 8000c7e:	f003 fab0 	bl	80041e2 <cmox_bn_free>
 8000c82:	69f0      	ldr	r0, [r6, #28]
 8000c84:	a903      	add	r1, sp, #12
 8000c86:	f003 faac 	bl	80041e2 <cmox_bn_free>
 8000c8a:	69f0      	ldr	r0, [r6, #28]
 8000c8c:	a907      	add	r1, sp, #28
 8000c8e:	f003 faa8 	bl	80041e2 <cmox_bn_free>
 8000c92:	69f0      	ldr	r0, [r6, #28]
 8000c94:	a906      	add	r1, sp, #24
 8000c96:	f003 faa4 	bl	80041e2 <cmox_bn_free>
 8000c9a:	4620      	mov	r0, r4
 8000c9c:	b008      	add	sp, #32
 8000c9e:	e8bd 87f0 	ldmia.w	sp!, {r4, r5, r6, r7, r8, r9, sl, pc}

08000ca2 <cmox_ECC_EDW_DecPoint_ed448>:
 8000ca2:	e92d 43f0 	stmdb	sp!, {r4, r5, r6, r7, r8, r9, lr}
 8000ca6:	461f      	mov	r7, r3
 8000ca8:	4605      	mov	r5, r0
 8000caa:	4688      	mov	r8, r1
 8000cac:	4691      	mov	r9, r2
 8000cae:	eb08 0009 	add.w	r0, r8, r9
 8000cb2:	b087      	sub	sp, #28
 8000cb4:	f810 6c01 	ldrb.w	r6, [r0, #-1]
 8000cb8:	69a8      	ldr	r0, [r5, #24]
 8000cba:	6803      	ldr	r3, [r0, #0]
 8000cbc:	681c      	ldr	r4, [r3, #0]
 8000cbe:	69e8      	ldr	r0, [r5, #28]
 8000cc0:	6822      	ldr	r2, [r4, #0]
 8000cc2:	a905      	add	r1, sp, #20
 8000cc4:	f003 fa82 	bl	80041cc <cmox_bn_alloc>
 8000cc8:	09f6      	lsrs	r6, r6, #7
 8000cca:	0004      	movs	r4, r0
 8000ccc:	f040 8113 	bne.w	8000ef6 <cmox_ECC_EDW_DecPoint_ed448+0x254>
 8000cd0:	69a8      	ldr	r0, [r5, #24]
 8000cd2:	6801      	ldr	r1, [r0, #0]
 8000cd4:	680a      	ldr	r2, [r1, #0]
 8000cd6:	69e8      	ldr	r0, [r5, #28]
 8000cd8:	6812      	ldr	r2, [r2, #0]
 8000cda:	a906      	add	r1, sp, #24
 8000cdc:	f003 fa76 	bl	80041cc <cmox_bn_alloc>
 8000ce0:	0004      	movs	r4, r0
 8000ce2:	f040 8104 	bne.w	8000eee <cmox_ECC_EDW_DecPoint_ed448+0x24c>
 8000ce6:	69a8      	ldr	r0, [r5, #24]
 8000ce8:	6801      	ldr	r1, [r0, #0]
 8000cea:	680a      	ldr	r2, [r1, #0]
 8000cec:	69e8      	ldr	r0, [r5, #28]
 8000cee:	6812      	ldr	r2, [r2, #0]
 8000cf0:	a903      	add	r1, sp, #12
 8000cf2:	f003 fa6b 	bl	80041cc <cmox_bn_alloc>
 8000cf6:	0004      	movs	r4, r0
 8000cf8:	f040 80f5 	bne.w	8000ee6 <cmox_ECC_EDW_DecPoint_ed448+0x244>
 8000cfc:	69a8      	ldr	r0, [r5, #24]
 8000cfe:	6801      	ldr	r1, [r0, #0]
 8000d00:	680a      	ldr	r2, [r1, #0]
 8000d02:	69e8      	ldr	r0, [r5, #28]
 8000d04:	6812      	ldr	r2, [r2, #0]
 8000d06:	a904      	add	r1, sp, #16
 8000d08:	f003 fa60 	bl	80041cc <cmox_bn_alloc>
 8000d0c:	0004      	movs	r4, r0
 8000d0e:	f040 80e6 	bne.w	8000ede <cmox_ECC_EDW_DecPoint_ed448+0x23c>
 8000d12:	687a      	ldr	r2, [r7, #4]
 8000d14:	f1a9 0101 	sub.w	r1, r9, #1
 8000d18:	4640      	mov	r0, r8
 8000d1a:	f003 fbfc 	bl	8004516 <cmox_bn_fromU8LE>
 8000d1e:	69a8      	ldr	r0, [r5, #24]
 8000d20:	6801      	ldr	r1, [r0, #0]
 8000d22:	6878      	ldr	r0, [r7, #4]
 8000d24:	6809      	ldr	r1, [r1, #0]
 8000d26:	f003 fad4 	bl	80042d2 <cmox_bn_cmp>
 8000d2a:	2800      	cmp	r0, #0
 8000d2c:	f140 80bf 	bpl.w	8000eae <cmox_ECC_EDW_DecPoint_ed448+0x20c>
 8000d30:	9803      	ldr	r0, [sp, #12]
 8000d32:	2100      	movs	r1, #0
 8000d34:	f003 fa81 	bl	800423a <cmox_bn_init>
 8000d38:	9a03      	ldr	r2, [sp, #12]
 8000d3a:	6879      	ldr	r1, [r7, #4]
 8000d3c:	2001      	movs	r0, #1
 8000d3e:	f003 fa8b 	bl	8004258 <cmox_bn_cCopy>
 8000d42:	6a2a      	ldr	r2, [r5, #32]
 8000d44:	9803      	ldr	r0, [sp, #12]
 8000d46:	4629      	mov	r1, r5
 8000d48:	f001 fdd9 	bl	80028fe <cmox_ModularBN_Enter>
 8000d4c:	6a2b      	ldr	r3, [r5, #32]
 8000d4e:	9904      	ldr	r1, [sp, #16]
 8000d50:	9803      	ldr	r0, [sp, #12]
 8000d52:	462a      	mov	r2, r5
 8000d54:	f001 fe20 	bl	8002998 <cmox_ModularBN_Sqr>
 8000d58:	69a8      	ldr	r0, [r5, #24]
 8000d5a:	6801      	ldr	r1, [r0, #0]
 8000d5c:	68c0      	ldr	r0, [r0, #12]
 8000d5e:	680a      	ldr	r2, [r1, #0]
 8000d60:	6812      	ldr	r2, [r2, #0]
 8000d62:	1d01      	adds	r1, r0, #4
 8000d64:	6838      	ldr	r0, [r7, #0]
 8000d66:	f003 fa47 	bl	80041f8 <cmox_bn_import>
 8000d6a:	69a8      	ldr	r0, [r5, #24]
 8000d6c:	6801      	ldr	r1, [r0, #0]
 8000d6e:	680a      	ldr	r2, [r1, #0]
 8000d70:	9b06      	ldr	r3, [sp, #24]
 8000d72:	6839      	ldr	r1, [r7, #0]
 8000d74:	9804      	ldr	r0, [sp, #16]
 8000d76:	f001 fbf8 	bl	800256a <cmox_ModSubBN>
 8000d7a:	6a28      	ldr	r0, [r5, #32]
 8000d7c:	9a05      	ldr	r2, [sp, #20]
 8000d7e:	9000      	str	r0, [sp, #0]
 8000d80:	462b      	mov	r3, r5
 8000d82:	69a8      	ldr	r0, [r5, #24]
 8000d84:	6801      	ldr	r1, [r0, #0]
 8000d86:	9804      	ldr	r0, [sp, #16]
 8000d88:	6949      	ldr	r1, [r1, #20]
 8000d8a:	f001 fde2 	bl	8002952 <cmox_ModularBN_Mul>
 8000d8e:	69a8      	ldr	r0, [r5, #24]
 8000d90:	6801      	ldr	r1, [r0, #0]
 8000d92:	680a      	ldr	r2, [r1, #0]
 8000d94:	9b05      	ldr	r3, [sp, #20]
 8000d96:	6839      	ldr	r1, [r7, #0]
 8000d98:	4618      	mov	r0, r3
 8000d9a:	f001 fbe6 	bl	800256a <cmox_ModSubBN>
 8000d9e:	6a2b      	ldr	r3, [r5, #32]
 8000da0:	9903      	ldr	r1, [sp, #12]
 8000da2:	9806      	ldr	r0, [sp, #24]
 8000da4:	462a      	mov	r2, r5
 8000da6:	f001 fdf7 	bl	8002998 <cmox_ModularBN_Sqr>
 8000daa:	9903      	ldr	r1, [sp, #12]
 8000dac:	6a2b      	ldr	r3, [r5, #32]
 8000dae:	462a      	mov	r2, r5
 8000db0:	4608      	mov	r0, r1
 8000db2:	f001 fdf1 	bl	8002998 <cmox_ModularBN_Sqr>
 8000db6:	6a28      	ldr	r0, [r5, #32]
 8000db8:	9a03      	ldr	r2, [sp, #12]
 8000dba:	9906      	ldr	r1, [sp, #24]
 8000dbc:	9000      	str	r0, [sp, #0]
 8000dbe:	462b      	mov	r3, r5
 8000dc0:	4610      	mov	r0, r2
 8000dc2:	f001 fdc6 	bl	8002952 <cmox_ModularBN_Mul>
 8000dc6:	6a2b      	ldr	r3, [r5, #32]
 8000dc8:	9904      	ldr	r1, [sp, #16]
 8000dca:	9805      	ldr	r0, [sp, #20]
 8000dcc:	462a      	mov	r2, r5
 8000dce:	f001 fde3 	bl	8002998 <cmox_ModularBN_Sqr>
 8000dd2:	6a28      	ldr	r0, [r5, #32]
 8000dd4:	9a04      	ldr	r2, [sp, #16]
 8000dd6:	9000      	str	r0, [sp, #0]
 8000dd8:	462b      	mov	r3, r5
 8000dda:	9805      	ldr	r0, [sp, #20]
 8000ddc:	4611      	mov	r1, r2
 8000dde:	f001 fdb8 	bl	8002952 <cmox_ModularBN_Mul>
 8000de2:	6a28      	ldr	r0, [r5, #32]
 8000de4:	9a03      	ldr	r2, [sp, #12]
 8000de6:	9904      	ldr	r1, [sp, #16]
 8000de8:	9000      	str	r0, [sp, #0]
 8000dea:	462b      	mov	r3, r5
 8000dec:	4610      	mov	r0, r2
 8000dee:	f001 fdb0 	bl	8002952 <cmox_ModularBN_Mul>
 8000df2:	69a8      	ldr	r0, [r5, #24]
 8000df4:	6803      	ldr	r3, [r0, #0]
 8000df6:	9a04      	ldr	r2, [sp, #16]
 8000df8:	6818      	ldr	r0, [r3, #0]
 8000dfa:	f06f 0102 	mvn.w	r1, #2
 8000dfe:	f001 fc67 	bl	80026d0 <cmox_AddBN_Int>
 8000e02:	9a04      	ldr	r2, [sp, #16]
 8000e04:	2102      	movs	r1, #2
 8000e06:	4610      	mov	r0, r2
 8000e08:	f001 faf3 	bl	80023f2 <cmox_RightShiftBN>
 8000e0c:	69a8      	ldr	r0, [r5, #24]
 8000e0e:	69c4      	ldr	r4, [r0, #28]
 8000e10:	6a28      	ldr	r0, [r5, #32]
 8000e12:	9002      	str	r0, [sp, #8]
 8000e14:	69e9      	ldr	r1, [r5, #28]
 8000e16:	9803      	ldr	r0, [sp, #12]
 8000e18:	9101      	str	r1, [sp, #4]
 8000e1a:	683a      	ldr	r2, [r7, #0]
 8000e1c:	9904      	ldr	r1, [sp, #16]
 8000e1e:	9200      	str	r2, [sp, #0]
 8000e20:	462a      	mov	r2, r5
 8000e22:	6863      	ldr	r3, [r4, #4]
 8000e24:	6824      	ldr	r4, [r4, #0]
 8000e26:	47a0      	blx	r4
 8000e28:	0004      	movs	r4, r0
 8000e2a:	d154      	bne.n	8000ed6 <cmox_ECC_EDW_DecPoint_ed448+0x234>
 8000e2c:	6a28      	ldr	r0, [r5, #32]
 8000e2e:	9a03      	ldr	r2, [sp, #12]
 8000e30:	9905      	ldr	r1, [sp, #20]
 8000e32:	9000      	str	r0, [sp, #0]
 8000e34:	462b      	mov	r3, r5
 8000e36:	9806      	ldr	r0, [sp, #24]
 8000e38:	f001 fd8b 	bl	8002952 <cmox_ModularBN_Mul>
 8000e3c:	6a2b      	ldr	r3, [r5, #32]
 8000e3e:	9904      	ldr	r1, [sp, #16]
 8000e40:	9806      	ldr	r0, [sp, #24]
 8000e42:	462a      	mov	r2, r5
 8000e44:	f001 fda8 	bl	8002998 <cmox_ModularBN_Sqr>
 8000e48:	6a28      	ldr	r0, [r5, #32]
 8000e4a:	9a03      	ldr	r2, [sp, #12]
 8000e4c:	9904      	ldr	r1, [sp, #16]
 8000e4e:	9000      	str	r0, [sp, #0]
 8000e50:	462b      	mov	r3, r5
 8000e52:	4610      	mov	r0, r2
 8000e54:	f001 fd7d 	bl	8002952 <cmox_ModularBN_Mul>
 8000e58:	6838      	ldr	r0, [r7, #0]
 8000e5a:	6a29      	ldr	r1, [r5, #32]
 8000e5c:	9100      	str	r1, [sp, #0]
 8000e5e:	462b      	mov	r3, r5
 8000e60:	9903      	ldr	r1, [sp, #12]
 8000e62:	4602      	mov	r2, r0
 8000e64:	f001 fd75 	bl	8002952 <cmox_ModularBN_Mul>
 8000e68:	6a2b      	ldr	r3, [r5, #32]
 8000e6a:	9903      	ldr	r1, [sp, #12]
 8000e6c:	6838      	ldr	r0, [r7, #0]
 8000e6e:	462a      	mov	r2, r5
 8000e70:	f001 fd92 	bl	8002998 <cmox_ModularBN_Sqr>
 8000e74:	6a28      	ldr	r0, [r5, #32]
 8000e76:	9a03      	ldr	r2, [sp, #12]
 8000e78:	9000      	str	r0, [sp, #0]
 8000e7a:	462b      	mov	r3, r5
 8000e7c:	9805      	ldr	r0, [sp, #20]
 8000e7e:	4611      	mov	r1, r2
 8000e80:	f001 fd67 	bl	8002952 <cmox_ModularBN_Mul>
 8000e84:	9906      	ldr	r1, [sp, #24]
 8000e86:	9803      	ldr	r0, [sp, #12]
 8000e88:	f003 fa23 	bl	80042d2 <cmox_bn_cmp>
 8000e8c:	b978      	cbnz	r0, 8000eae <cmox_ECC_EDW_DecPoint_ed448+0x20c>
 8000e8e:	6a2b      	ldr	r3, [r5, #32]
 8000e90:	69ea      	ldr	r2, [r5, #28]
 8000e92:	6838      	ldr	r0, [r7, #0]
 8000e94:	4629      	mov	r1, r5
 8000e96:	f001 fd3a 	bl	800290e <cmox_ModularBN_Exit>
 8000e9a:	0004      	movs	r4, r0
 8000e9c:	d11b      	bne.n	8000ed6 <cmox_ECC_EDW_DecPoint_ed448+0x234>
 8000e9e:	2e01      	cmp	r6, #1
 8000ea0:	d107      	bne.n	8000eb2 <cmox_ECC_EDW_DecPoint_ed448+0x210>
 8000ea2:	6838      	ldr	r0, [r7, #0]
 8000ea4:	2100      	movs	r1, #0
 8000ea6:	f003 fa55 	bl	8004354 <cmox_bn_cmpUint>
 8000eaa:	2801      	cmp	r0, #1
 8000eac:	d101      	bne.n	8000eb2 <cmox_ECC_EDW_DecPoint_ed448+0x210>
 8000eae:	2404      	movs	r4, #4
 8000eb0:	e011      	b.n	8000ed6 <cmox_ECC_EDW_DecPoint_ed448+0x234>
 8000eb2:	69a8      	ldr	r0, [r5, #24]
 8000eb4:	6839      	ldr	r1, [r7, #0]
 8000eb6:	6802      	ldr	r2, [r0, #0]
 8000eb8:	7908      	ldrb	r0, [r1, #4]
 8000eba:	6812      	ldr	r2, [r2, #0]
 8000ebc:	f000 0001 	and.w	r0, r0, #1
 8000ec0:	4070      	eors	r0, r6
 8000ec2:	f001 fcd5 	bl	8002870 <cmox_FieldBN_CondNegate>
 8000ec6:	68b8      	ldr	r0, [r7, #8]
 8000ec8:	2101      	movs	r1, #1
 8000eca:	f003 f9b6 	bl	800423a <cmox_bn_init>
 8000ece:	6938      	ldr	r0, [r7, #16]
 8000ed0:	f040 0002 	orr.w	r0, r0, #2
 8000ed4:	6138      	str	r0, [r7, #16]
 8000ed6:	a904      	add	r1, sp, #16
 8000ed8:	69e8      	ldr	r0, [r5, #28]
 8000eda:	f003 f982 	bl	80041e2 <cmox_bn_free>
 8000ede:	69e8      	ldr	r0, [r5, #28]
 8000ee0:	a903      	add	r1, sp, #12
 8000ee2:	f003 f97e 	bl	80041e2 <cmox_bn_free>
 8000ee6:	69e8      	ldr	r0, [r5, #28]
 8000ee8:	a906      	add	r1, sp, #24
 8000eea:	f003 f97a 	bl	80041e2 <cmox_bn_free>
 8000eee:	69e8      	ldr	r0, [r5, #28]
 8000ef0:	a905      	add	r1, sp, #20
 8000ef2:	f003 f976 	bl	80041e2 <cmox_bn_free>
 8000ef6:	4620      	mov	r0, r4
 8000ef8:	b007      	add	sp, #28
 8000efa:	e8bd 83f0 	ldmia.w	sp!, {r4, r5, r6, r7, r8, r9, pc}

08000efe <cmox_ECC_MONTY_Clamping>:
 8000efe:	b570      	push	{r4, r5, r6, lr}
 8000f00:	4606      	mov	r6, r0
 8000f02:	460c      	mov	r4, r1
 8000f04:	69b0      	ldr	r0, [r6, #24]
 8000f06:	6801      	ldr	r1, [r0, #0]
 8000f08:	6808      	ldr	r0, [r1, #0]
 8000f0a:	4615      	mov	r5, r2
 8000f0c:	6802      	ldr	r2, [r0, #0]
 8000f0e:	f850 0022 	ldr.w	r0, [r0, r2, lsl #2]
 8000f12:	f001 fd8e 	bl	8002a32 <cmox_mathUtils_bitLength>
 8000f16:	69b1      	ldr	r1, [r6, #24]
 8000f18:	680b      	ldr	r3, [r1, #0]
 8000f1a:	699e      	ldr	r6, [r3, #24]
 8000f1c:	6862      	ldr	r2, [r4, #4]
 8000f1e:	1e76      	subs	r6, r6, #1
 8000f20:	f04f 31ff 	mov.w	r1, #4294967295
 8000f24:	404e      	eors	r6, r1
 8000f26:	4032      	ands	r2, r6
 8000f28:	6062      	str	r2, [r4, #4]
 8000f2a:	2601      	movs	r6, #1
 8000f2c:	f1c0 0220 	rsb	r2, r0, #32
 8000f30:	40d1      	lsrs	r1, r2
 8000f32:	6822      	ldr	r2, [r4, #0]
 8000f34:	f854 3022 	ldr.w	r3, [r4, r2, lsl #2]
 8000f38:	400b      	ands	r3, r1
 8000f3a:	f844 3022 	str.w	r3, [r4, r2, lsl #2]
 8000f3e:	1e40      	subs	r0, r0, #1
 8000f40:	6822      	ldr	r2, [r4, #0]
 8000f42:	f854 3022 	ldr.w	r3, [r4, r2, lsl #2]
 8000f46:	4086      	lsls	r6, r0
 8000f48:	4333      	orrs	r3, r6
 8000f4a:	f844 3022 	str.w	r3, [r4, r2, lsl #2]
 8000f4e:	6828      	ldr	r0, [r5, #0]
 8000f50:	6802      	ldr	r2, [r0, #0]
 8000f52:	f850 3022 	ldr.w	r3, [r0, r2, lsl #2]
 8000f56:	4019      	ands	r1, r3
 8000f58:	f840 1022 	str.w	r1, [r0, r2, lsl #2]
 8000f5c:	bd70      	pop	{r4, r5, r6, pc}

08000f5e <cmox_ECC_SW_AddPoints_JacoAff>:
 8000f5e:	e92d 4ff4 	stmdb	sp!, {r2, r4, r5, r6, r7, r8, r9, sl, fp, lr}
 8000f62:	4605      	mov	r5, r0
 8000f64:	461f      	mov	r7, r3
 8000f66:	460e      	mov	r6, r1
 8000f68:	b084      	sub	sp, #16
 8000f6a:	6968      	ldr	r0, [r5, #20]
 8000f6c:	f8d0 8000 	ldr.w	r8, [r0]
 8000f70:	f8d0 9004 	ldr.w	r9, [r0, #4]
 8000f74:	f8d0 a008 	ldr.w	sl, [r0, #8]
 8000f78:	68c0      	ldr	r0, [r0, #12]
 8000f7a:	9c0e      	ldr	r4, [sp, #56]	@ 0x38
 8000f7c:	9001      	str	r0, [sp, #4]
 8000f7e:	f8d7 b000 	ldr.w	fp, [r7]
 8000f82:	6879      	ldr	r1, [r7, #4]
 8000f84:	9103      	str	r1, [sp, #12]
 8000f86:	462a      	mov	r2, r5
 8000f88:	68b8      	ldr	r0, [r7, #8]
 8000f8a:	9002      	str	r0, [sp, #8]
 8000f8c:	4641      	mov	r1, r8
 8000f8e:	6a2b      	ldr	r3, [r5, #32]
 8000f90:	68b0      	ldr	r0, [r6, #8]
 8000f92:	f001 fd01 	bl	8002998 <cmox_ModularBN_Sqr>
 8000f96:	6a28      	ldr	r0, [r5, #32]
 8000f98:	9000      	str	r0, [sp, #0]
 8000f9a:	462b      	mov	r3, r5
 8000f9c:	68b0      	ldr	r0, [r6, #8]
 8000f9e:	464a      	mov	r2, r9
 8000fa0:	4641      	mov	r1, r8
 8000fa2:	f001 fcd6 	bl	8002952 <cmox_ModularBN_Mul>
 8000fa6:	6a28      	ldr	r0, [r5, #32]
 8000fa8:	9904      	ldr	r1, [sp, #16]
 8000faa:	9000      	str	r0, [sp, #0]
 8000fac:	462b      	mov	r3, r5
 8000fae:	6809      	ldr	r1, [r1, #0]
 8000fb0:	4642      	mov	r2, r8
 8000fb2:	4640      	mov	r0, r8
 8000fb4:	f001 fccd 	bl	8002952 <cmox_ModularBN_Mul>
 8000fb8:	6a28      	ldr	r0, [r5, #32]
 8000fba:	9904      	ldr	r1, [sp, #16]
 8000fbc:	9000      	str	r0, [sp, #0]
 8000fbe:	462b      	mov	r3, r5
 8000fc0:	6849      	ldr	r1, [r1, #4]
 8000fc2:	464a      	mov	r2, r9
 8000fc4:	4648      	mov	r0, r9
 8000fc6:	f001 fcc4 	bl	8002952 <cmox_ModularBN_Mul>
 8000fca:	69a8      	ldr	r0, [r5, #24]
 8000fcc:	6801      	ldr	r1, [r0, #0]
 8000fce:	680a      	ldr	r2, [r1, #0]
 8000fd0:	6831      	ldr	r1, [r6, #0]
 8000fd2:	4643      	mov	r3, r8
 8000fd4:	4640      	mov	r0, r8
 8000fd6:	f001 fac8 	bl	800256a <cmox_ModSubBN>
 8000fda:	69a8      	ldr	r0, [r5, #24]
 8000fdc:	6801      	ldr	r1, [r0, #0]
 8000fde:	680a      	ldr	r2, [r1, #0]
 8000fe0:	6871      	ldr	r1, [r6, #4]
 8000fe2:	464b      	mov	r3, r9
 8000fe4:	4648      	mov	r0, r9
 8000fe6:	f001 fac0 	bl	800256a <cmox_ModSubBN>
 8000fea:	b1ec      	cbz	r4, 8001028 <cmox_ECC_SW_AddPoints_JacoAff+0xca>
 8000fec:	2100      	movs	r1, #0
 8000fee:	4640      	mov	r0, r8
 8000ff0:	f003 f9b0 	bl	8004354 <cmox_bn_cmpUint>
 8000ff4:	6020      	str	r0, [r4, #0]
 8000ff6:	4649      	mov	r1, r9
 8000ff8:	683a      	ldr	r2, [r7, #0]
 8000ffa:	f003 f965 	bl	80042c8 <cmox_bn_mux>
 8000ffe:	4683      	mov	fp, r0
 8001000:	687a      	ldr	r2, [r7, #4]
 8001002:	6820      	ldr	r0, [r4, #0]
 8001004:	4649      	mov	r1, r9
 8001006:	f003 f95f 	bl	80042c8 <cmox_bn_mux>
 800100a:	9003      	str	r0, [sp, #12]
 800100c:	4649      	mov	r1, r9
 800100e:	68ba      	ldr	r2, [r7, #8]
 8001010:	6820      	ldr	r0, [r4, #0]
 8001012:	f003 f959 	bl	80042c8 <cmox_bn_mux>
 8001016:	9002      	str	r0, [sp, #8]
 8001018:	2100      	movs	r1, #0
 800101a:	4648      	mov	r0, r9
 800101c:	f003 f99a 	bl	8004354 <cmox_bn_cmpUint>
 8001020:	6821      	ldr	r1, [r4, #0]
 8001022:	ea41 0140 	orr.w	r1, r1, r0, lsl #1
 8001026:	6021      	str	r1, [r4, #0]
 8001028:	462b      	mov	r3, r5
 800102a:	6a28      	ldr	r0, [r5, #32]
 800102c:	9a02      	ldr	r2, [sp, #8]
 800102e:	9000      	str	r0, [sp, #0]
 8001030:	4641      	mov	r1, r8
 8001032:	68b0      	ldr	r0, [r6, #8]
 8001034:	f001 fc8d 	bl	8002952 <cmox_ModularBN_Mul>
 8001038:	6a2b      	ldr	r3, [r5, #32]
 800103a:	462a      	mov	r2, r5
 800103c:	4651      	mov	r1, sl
 800103e:	4640      	mov	r0, r8
 8001040:	f001 fcaa 	bl	8002998 <cmox_ModularBN_Sqr>
 8001044:	6a28      	ldr	r0, [r5, #32]
 8001046:	9a01      	ldr	r2, [sp, #4]
 8001048:	9000      	str	r0, [sp, #0]
 800104a:	462b      	mov	r3, r5
 800104c:	4651      	mov	r1, sl
 800104e:	4640      	mov	r0, r8
 8001050:	f001 fc7f 	bl	8002952 <cmox_ModularBN_Mul>
 8001054:	6a28      	ldr	r0, [r5, #32]
 8001056:	9000      	str	r0, [sp, #0]
 8001058:	462b      	mov	r3, r5
 800105a:	6830      	ldr	r0, [r6, #0]
 800105c:	4652      	mov	r2, sl
 800105e:	4651      	mov	r1, sl
 8001060:	f001 fc77 	bl	8002952 <cmox_ModularBN_Mul>
 8001064:	69a8      	ldr	r0, [r5, #24]
 8001066:	6801      	ldr	r1, [r0, #0]
 8001068:	680a      	ldr	r2, [r1, #0]
 800106a:	4643      	mov	r3, r8
 800106c:	4651      	mov	r1, sl
 800106e:	4650      	mov	r0, sl
 8001070:	f001 f9ea 	bl	8002448 <cmox_ModAddBN>
 8001074:	6a2b      	ldr	r3, [r5, #32]
 8001076:	462a      	mov	r2, r5
 8001078:	4659      	mov	r1, fp
 800107a:	4648      	mov	r0, r9
 800107c:	f001 fc8c 	bl	8002998 <cmox_ModularBN_Sqr>
 8001080:	69a8      	ldr	r0, [r5, #24]
 8001082:	6801      	ldr	r1, [r0, #0]
 8001084:	680a      	ldr	r2, [r1, #0]
 8001086:	465b      	mov	r3, fp
 8001088:	4641      	mov	r1, r8
 800108a:	4658      	mov	r0, fp
 800108c:	f001 fa6d 	bl	800256a <cmox_ModSubBN>
 8001090:	69a8      	ldr	r0, [r5, #24]
 8001092:	6801      	ldr	r1, [r0, #0]
 8001094:	680a      	ldr	r2, [r1, #0]
 8001096:	9901      	ldr	r1, [sp, #4]
 8001098:	465b      	mov	r3, fp
 800109a:	4658      	mov	r0, fp
 800109c:	f001 fa65 	bl	800256a <cmox_ModSubBN>
 80010a0:	69a8      	ldr	r0, [r5, #24]
 80010a2:	6801      	ldr	r1, [r0, #0]
 80010a4:	680a      	ldr	r2, [r1, #0]
 80010a6:	4653      	mov	r3, sl
 80010a8:	4659      	mov	r1, fp
 80010aa:	4650      	mov	r0, sl
 80010ac:	f001 fa5d 	bl	800256a <cmox_ModSubBN>
 80010b0:	6a28      	ldr	r0, [r5, #32]
 80010b2:	9000      	str	r0, [sp, #0]
 80010b4:	462b      	mov	r3, r5
 80010b6:	4652      	mov	r2, sl
 80010b8:	4651      	mov	r1, sl
 80010ba:	4648      	mov	r0, r9
 80010bc:	f001 fc49 	bl	8002952 <cmox_ModularBN_Mul>
 80010c0:	6a28      	ldr	r0, [r5, #32]
 80010c2:	9a01      	ldr	r2, [sp, #4]
 80010c4:	9000      	str	r0, [sp, #0]
 80010c6:	462b      	mov	r3, r5
 80010c8:	6871      	ldr	r1, [r6, #4]
 80010ca:	4610      	mov	r0, r2
 80010cc:	f001 fc41 	bl	8002952 <cmox_ModularBN_Mul>
 80010d0:	69a8      	ldr	r0, [r5, #24]
 80010d2:	6801      	ldr	r1, [r0, #0]
 80010d4:	680a      	ldr	r2, [r1, #0]
 80010d6:	9b03      	ldr	r3, [sp, #12]
 80010d8:	9901      	ldr	r1, [sp, #4]
 80010da:	4650      	mov	r0, sl
 80010dc:	b005      	add	sp, #20
 80010de:	e8bd 4ff0 	ldmia.w	sp!, {r4, r5, r6, r7, r8, r9, sl, fp, lr}
 80010e2:	f001 ba42 	b.w	800256a <cmox_ModSubBN>

080010e6 <cmox_ECC_SW_AddPoints_Jacobian>:
 80010e6:	e92d 4ff8 	stmdb	sp!, {r3, r4, r5, r6, r7, r8, r9, sl, fp, lr}
 80010ea:	4604      	mov	r4, r0
 80010ec:	461e      	mov	r6, r3
 80010ee:	6960      	ldr	r0, [r4, #20]
 80010f0:	f8d0 a004 	ldr.w	sl, [r0, #4]
 80010f4:	f8d0 8008 	ldr.w	r8, [r0, #8]
 80010f8:	f8d0 b00c 	ldr.w	fp, [r0, #12]
 80010fc:	f8d0 9000 	ldr.w	r9, [r0]
 8001100:	6a23      	ldr	r3, [r4, #32]
 8001102:	460d      	mov	r5, r1
 8001104:	4617      	mov	r7, r2
 8001106:	68a8      	ldr	r0, [r5, #8]
 8001108:	4622      	mov	r2, r4
 800110a:	4649      	mov	r1, r9
 800110c:	f001 fc44 	bl	8002998 <cmox_ModularBN_Sqr>
 8001110:	6a20      	ldr	r0, [r4, #32]
 8001112:	9000      	str	r0, [sp, #0]
 8001114:	4623      	mov	r3, r4
 8001116:	6838      	ldr	r0, [r7, #0]
 8001118:	4652      	mov	r2, sl
 800111a:	4649      	mov	r1, r9
 800111c:	f001 fc19 	bl	8002952 <cmox_ModularBN_Mul>
 8001120:	6a20      	ldr	r0, [r4, #32]
 8001122:	9000      	str	r0, [sp, #0]
 8001124:	4623      	mov	r3, r4
 8001126:	68a8      	ldr	r0, [r5, #8]
 8001128:	464a      	mov	r2, r9
 800112a:	4649      	mov	r1, r9
 800112c:	f001 fc11 	bl	8002952 <cmox_ModularBN_Mul>
 8001130:	6a20      	ldr	r0, [r4, #32]
 8001132:	9000      	str	r0, [sp, #0]
 8001134:	4623      	mov	r3, r4
 8001136:	6878      	ldr	r0, [r7, #4]
 8001138:	464a      	mov	r2, r9
 800113a:	4649      	mov	r1, r9
 800113c:	f001 fc09 	bl	8002952 <cmox_ModularBN_Mul>
 8001140:	6a23      	ldr	r3, [r4, #32]
 8001142:	68b8      	ldr	r0, [r7, #8]
 8001144:	4622      	mov	r2, r4
 8001146:	4641      	mov	r1, r8
 8001148:	f001 fc26 	bl	8002998 <cmox_ModularBN_Sqr>
 800114c:	6a20      	ldr	r0, [r4, #32]
 800114e:	9000      	str	r0, [sp, #0]
 8001150:	4623      	mov	r3, r4
 8001152:	6828      	ldr	r0, [r5, #0]
 8001154:	465a      	mov	r2, fp
 8001156:	4641      	mov	r1, r8
 8001158:	f001 fbfb 	bl	8002952 <cmox_ModularBN_Mul>
 800115c:	6a20      	ldr	r0, [r4, #32]
 800115e:	9000      	str	r0, [sp, #0]
 8001160:	4623      	mov	r3, r4
 8001162:	68b8      	ldr	r0, [r7, #8]
 8001164:	4642      	mov	r2, r8
 8001166:	4641      	mov	r1, r8
 8001168:	f001 fbf3 	bl	8002952 <cmox_ModularBN_Mul>
 800116c:	6a20      	ldr	r0, [r4, #32]
 800116e:	9000      	str	r0, [sp, #0]
 8001170:	4623      	mov	r3, r4
 8001172:	6868      	ldr	r0, [r5, #4]
 8001174:	4642      	mov	r2, r8
 8001176:	4641      	mov	r1, r8
 8001178:	f001 fbeb 	bl	8002952 <cmox_ModularBN_Mul>
 800117c:	69a0      	ldr	r0, [r4, #24]
 800117e:	6801      	ldr	r1, [r0, #0]
 8001180:	680a      	ldr	r2, [r1, #0]
 8001182:	4653      	mov	r3, sl
 8001184:	4659      	mov	r1, fp
 8001186:	4650      	mov	r0, sl
 8001188:	f001 f9ef 	bl	800256a <cmox_ModSubBN>
 800118c:	69a0      	ldr	r0, [r4, #24]
 800118e:	6801      	ldr	r1, [r0, #0]
 8001190:	680a      	ldr	r2, [r1, #0]
 8001192:	464b      	mov	r3, r9
 8001194:	4641      	mov	r1, r8
 8001196:	4648      	mov	r0, r9
 8001198:	f001 f9e7 	bl	800256a <cmox_ModSubBN>
 800119c:	6a20      	ldr	r0, [r4, #32]
 800119e:	9000      	str	r0, [sp, #0]
 80011a0:	4623      	mov	r3, r4
 80011a2:	6832      	ldr	r2, [r6, #0]
 80011a4:	68b8      	ldr	r0, [r7, #8]
 80011a6:	4651      	mov	r1, sl
 80011a8:	f001 fbd3 	bl	8002952 <cmox_ModularBN_Mul>
 80011ac:	6a20      	ldr	r0, [r4, #32]
 80011ae:	9000      	str	r0, [sp, #0]
 80011b0:	68b2      	ldr	r2, [r6, #8]
 80011b2:	6831      	ldr	r1, [r6, #0]
 80011b4:	68a8      	ldr	r0, [r5, #8]
 80011b6:	4623      	mov	r3, r4
 80011b8:	f001 fbcb 	bl	8002952 <cmox_ModularBN_Mul>
 80011bc:	6a23      	ldr	r3, [r4, #32]
 80011be:	6831      	ldr	r1, [r6, #0]
 80011c0:	4622      	mov	r2, r4
 80011c2:	4650      	mov	r0, sl
 80011c4:	f001 fbe8 	bl	8002998 <cmox_ModularBN_Sqr>
 80011c8:	6a20      	ldr	r0, [r4, #32]
 80011ca:	9000      	str	r0, [sp, #0]
 80011cc:	6872      	ldr	r2, [r6, #4]
 80011ce:	6831      	ldr	r1, [r6, #0]
 80011d0:	4623      	mov	r3, r4
 80011d2:	4650      	mov	r0, sl
 80011d4:	f001 fbbd 	bl	8002952 <cmox_ModularBN_Mul>
 80011d8:	6a20      	ldr	r0, [r4, #32]
 80011da:	9000      	str	r0, [sp, #0]
 80011dc:	4623      	mov	r3, r4
 80011de:	6831      	ldr	r1, [r6, #0]
 80011e0:	4652      	mov	r2, sl
 80011e2:	4658      	mov	r0, fp
 80011e4:	f001 fbb5 	bl	8002952 <cmox_ModularBN_Mul>
 80011e8:	6a23      	ldr	r3, [r4, #32]
 80011ea:	6831      	ldr	r1, [r6, #0]
 80011ec:	4622      	mov	r2, r4
 80011ee:	4648      	mov	r0, r9
 80011f0:	f001 fbd2 	bl	8002998 <cmox_ModularBN_Sqr>
 80011f4:	69a1      	ldr	r1, [r4, #24]
 80011f6:	680a      	ldr	r2, [r1, #0]
 80011f8:	6830      	ldr	r0, [r6, #0]
 80011fa:	6812      	ldr	r2, [r2, #0]
 80011fc:	6871      	ldr	r1, [r6, #4]
 80011fe:	4603      	mov	r3, r0
 8001200:	f001 f9b3 	bl	800256a <cmox_ModSubBN>
 8001204:	6871      	ldr	r1, [r6, #4]
 8001206:	6a20      	ldr	r0, [r4, #32]
 8001208:	9000      	str	r0, [sp, #0]
 800120a:	4623      	mov	r3, r4
 800120c:	460a      	mov	r2, r1
 800120e:	4640      	mov	r0, r8
 8001210:	f001 fb9f 	bl	8002952 <cmox_ModularBN_Mul>
 8001214:	69a0      	ldr	r0, [r4, #24]
 8001216:	6801      	ldr	r1, [r0, #0]
 8001218:	6809      	ldr	r1, [r1, #0]
 800121a:	4642      	mov	r2, r8
 800121c:	4650      	mov	r0, sl
 800121e:	f001 fac8 	bl	80027b2 <cmox_FieldBN_Mul2>
 8001222:	69a1      	ldr	r1, [r4, #24]
 8001224:	680a      	ldr	r2, [r1, #0]
 8001226:	6830      	ldr	r0, [r6, #0]
 8001228:	6812      	ldr	r2, [r2, #0]
 800122a:	4603      	mov	r3, r0
 800122c:	4641      	mov	r1, r8
 800122e:	f001 f99c 	bl	800256a <cmox_ModSubBN>
 8001232:	69a0      	ldr	r0, [r4, #24]
 8001234:	6801      	ldr	r1, [r0, #0]
 8001236:	680a      	ldr	r2, [r1, #0]
 8001238:	6831      	ldr	r1, [r6, #0]
 800123a:	4653      	mov	r3, sl
 800123c:	4650      	mov	r0, sl
 800123e:	f001 f994 	bl	800256a <cmox_ModSubBN>
 8001242:	6a20      	ldr	r0, [r4, #32]
 8001244:	9000      	str	r0, [sp, #0]
 8001246:	4623      	mov	r3, r4
 8001248:	464a      	mov	r2, r9
 800124a:	4651      	mov	r1, sl
 800124c:	4648      	mov	r0, r9
 800124e:	f001 fb80 	bl	8002952 <cmox_ModularBN_Mul>
 8001252:	69a0      	ldr	r0, [r4, #24]
 8001254:	6802      	ldr	r2, [r0, #0]
 8001256:	6812      	ldr	r2, [r2, #0]
 8001258:	6871      	ldr	r1, [r6, #4]
 800125a:	4648      	mov	r0, r9
 800125c:	b001      	add	sp, #4
 800125e:	e8bd 4ff0 	ldmia.w	sp!, {r4, r5, r6, r7, r8, r9, sl, fp, lr}
 8001262:	460b      	mov	r3, r1
 8001264:	f001 b981 	b.w	800256a <cmox_ModSubBN>

08001268 <cmox_ECC_SW_DblPoint_Jac_a3>:
 8001268:	e92d 4ffe 	stmdb	sp!, {r1, r2, r3, r4, r5, r6, r7, r8, r9, sl, fp, lr}
 800126c:	4604      	mov	r4, r0
 800126e:	460d      	mov	r5, r1
 8001270:	6960      	ldr	r0, [r4, #20]
 8001272:	6807      	ldr	r7, [r0, #0]
 8001274:	f8d0 9004 	ldr.w	r9, [r0, #4]
 8001278:	6881      	ldr	r1, [r0, #8]
 800127a:	9101      	str	r1, [sp, #4]
 800127c:	4616      	mov	r6, r2
 800127e:	f8d0 a00c 	ldr.w	sl, [r0, #12]
 8001282:	6831      	ldr	r1, [r6, #0]
 8001284:	4698      	mov	r8, r3
 8001286:	463a      	mov	r2, r7
 8001288:	4640      	mov	r0, r8
 800128a:	f003 f81d 	bl	80042c8 <cmox_bn_mux>
 800128e:	4683      	mov	fp, r0
 8001290:	6871      	ldr	r1, [r6, #4]
 8001292:	463a      	mov	r2, r7
 8001294:	4640      	mov	r0, r8
 8001296:	f003 f817 	bl	80042c8 <cmox_bn_mux>
 800129a:	9002      	str	r0, [sp, #8]
 800129c:	463a      	mov	r2, r7
 800129e:	68b1      	ldr	r1, [r6, #8]
 80012a0:	4640      	mov	r0, r8
 80012a2:	f003 f811 	bl	80042c8 <cmox_bn_mux>
 80012a6:	4606      	mov	r6, r0
 80012a8:	6a23      	ldr	r3, [r4, #32]
 80012aa:	68a8      	ldr	r0, [r5, #8]
 80012ac:	4622      	mov	r2, r4
 80012ae:	4639      	mov	r1, r7
 80012b0:	f001 fb72 	bl	8002998 <cmox_ModularBN_Sqr>
 80012b4:	69a0      	ldr	r0, [r4, #24]
 80012b6:	6801      	ldr	r1, [r0, #0]
 80012b8:	680a      	ldr	r2, [r1, #0]
 80012ba:	6828      	ldr	r0, [r5, #0]
 80012bc:	464b      	mov	r3, r9
 80012be:	4639      	mov	r1, r7
 80012c0:	f001 f8c2 	bl	8002448 <cmox_ModAddBN>
 80012c4:	69a0      	ldr	r0, [r4, #24]
 80012c6:	6801      	ldr	r1, [r0, #0]
 80012c8:	680a      	ldr	r2, [r1, #0]
 80012ca:	6828      	ldr	r0, [r5, #0]
 80012cc:	463b      	mov	r3, r7
 80012ce:	4639      	mov	r1, r7
 80012d0:	f001 f94b 	bl	800256a <cmox_ModSubBN>
 80012d4:	6a20      	ldr	r0, [r4, #32]
 80012d6:	9000      	str	r0, [sp, #0]
 80012d8:	4623      	mov	r3, r4
 80012da:	463a      	mov	r2, r7
 80012dc:	4649      	mov	r1, r9
 80012de:	4638      	mov	r0, r7
 80012e0:	f001 fb37 	bl	8002952 <cmox_ModularBN_Mul>
 80012e4:	69a0      	ldr	r0, [r4, #24]
 80012e6:	6801      	ldr	r1, [r0, #0]
 80012e8:	6809      	ldr	r1, [r1, #0]
 80012ea:	464a      	mov	r2, r9
 80012ec:	4638      	mov	r0, r7
 80012ee:	f001 fa0e 	bl	800270e <cmox_FieldBN_Div2>
 80012f2:	69a0      	ldr	r0, [r4, #24]
 80012f4:	6801      	ldr	r1, [r0, #0]
 80012f6:	680a      	ldr	r2, [r1, #0]
 80012f8:	463b      	mov	r3, r7
 80012fa:	4649      	mov	r1, r9
 80012fc:	4638      	mov	r0, r7
 80012fe:	f001 f8a3 	bl	8002448 <cmox_ModAddBN>
 8001302:	6a23      	ldr	r3, [r4, #32]
 8001304:	6868      	ldr	r0, [r5, #4]
 8001306:	4622      	mov	r2, r4
 8001308:	4649      	mov	r1, r9
 800130a:	f001 fb45 	bl	8002998 <cmox_ModularBN_Sqr>
 800130e:	6a20      	ldr	r0, [r4, #32]
 8001310:	9a01      	ldr	r2, [sp, #4]
 8001312:	9000      	str	r0, [sp, #0]
 8001314:	4623      	mov	r3, r4
 8001316:	6828      	ldr	r0, [r5, #0]
 8001318:	4649      	mov	r1, r9
 800131a:	f001 fb1a 	bl	8002952 <cmox_ModularBN_Mul>
 800131e:	6a23      	ldr	r3, [r4, #32]
 8001320:	4622      	mov	r2, r4
 8001322:	4651      	mov	r1, sl
 8001324:	4638      	mov	r0, r7
 8001326:	f001 fb37 	bl	8002998 <cmox_ModularBN_Sqr>
 800132a:	69a0      	ldr	r0, [r4, #24]
 800132c:	6801      	ldr	r1, [r0, #0]
 800132e:	680a      	ldr	r2, [r1, #0]
 8001330:	9901      	ldr	r1, [sp, #4]
 8001332:	4653      	mov	r3, sl
 8001334:	4650      	mov	r0, sl
 8001336:	f001 f918 	bl	800256a <cmox_ModSubBN>
 800133a:	69a0      	ldr	r0, [r4, #24]
 800133c:	6801      	ldr	r1, [r0, #0]
 800133e:	680a      	ldr	r2, [r1, #0]
 8001340:	9901      	ldr	r1, [sp, #4]
 8001342:	465b      	mov	r3, fp
 8001344:	4650      	mov	r0, sl
 8001346:	f001 f910 	bl	800256a <cmox_ModSubBN>
 800134a:	6a20      	ldr	r0, [r4, #32]
 800134c:	9000      	str	r0, [sp, #0]
 800134e:	4623      	mov	r3, r4
 8001350:	68a9      	ldr	r1, [r5, #8]
 8001352:	6868      	ldr	r0, [r5, #4]
 8001354:	4632      	mov	r2, r6
 8001356:	f001 fafc 	bl	8002952 <cmox_ModularBN_Mul>
 800135a:	6a23      	ldr	r3, [r4, #32]
 800135c:	4622      	mov	r2, r4
 800135e:	4649      	mov	r1, r9
 8001360:	4648      	mov	r0, r9
 8001362:	f001 fb19 	bl	8002998 <cmox_ModularBN_Sqr>
 8001366:	69a0      	ldr	r0, [r4, #24]
 8001368:	6801      	ldr	r1, [r0, #0]
 800136a:	680a      	ldr	r2, [r1, #0]
 800136c:	9801      	ldr	r0, [sp, #4]
 800136e:	4653      	mov	r3, sl
 8001370:	4659      	mov	r1, fp
 8001372:	f001 f8fa 	bl	800256a <cmox_ModSubBN>
 8001376:	6a20      	ldr	r0, [r4, #32]
 8001378:	9000      	str	r0, [sp, #0]
 800137a:	4623      	mov	r3, r4
 800137c:	463a      	mov	r2, r7
 800137e:	4651      	mov	r1, sl
 8001380:	4638      	mov	r0, r7
 8001382:	f001 fae6 	bl	8002952 <cmox_ModularBN_Mul>
 8001386:	69a0      	ldr	r0, [r4, #24]
 8001388:	6801      	ldr	r1, [r0, #0]
 800138a:	9b02      	ldr	r3, [sp, #8]
 800138c:	680a      	ldr	r2, [r1, #0]
 800138e:	4649      	mov	r1, r9
 8001390:	4638      	mov	r0, r7
 8001392:	b003      	add	sp, #12
 8001394:	e8bd 4ff0 	ldmia.w	sp!, {r4, r5, r6, r7, r8, r9, sl, fp, lr}
 8001398:	f001 b8e7 	b.w	800256a <cmox_ModSubBN>

0800139c <cmox_ECC_SW_DblPoint_Jacobian>:
 800139c:	e92d 4ffe 	stmdb	sp!, {r1, r2, r3, r4, r5, r6, r7, r8, r9, sl, fp, lr}
 80013a0:	4604      	mov	r4, r0
 80013a2:	460d      	mov	r5, r1
 80013a4:	6960      	ldr	r0, [r4, #20]
 80013a6:	6807      	ldr	r7, [r0, #0]
 80013a8:	f8d0 8004 	ldr.w	r8, [r0, #4]
 80013ac:	f8d0 9008 	ldr.w	r9, [r0, #8]
 80013b0:	68c0      	ldr	r0, [r0, #12]
 80013b2:	9001      	str	r0, [sp, #4]
 80013b4:	4616      	mov	r6, r2
 80013b6:	9802      	ldr	r0, [sp, #8]
 80013b8:	6831      	ldr	r1, [r6, #0]
 80013ba:	463a      	mov	r2, r7
 80013bc:	f002 ff84 	bl	80042c8 <cmox_bn_mux>
 80013c0:	4682      	mov	sl, r0
 80013c2:	6871      	ldr	r1, [r6, #4]
 80013c4:	9802      	ldr	r0, [sp, #8]
 80013c6:	463a      	mov	r2, r7
 80013c8:	f002 ff7e 	bl	80042c8 <cmox_bn_mux>
 80013cc:	4683      	mov	fp, r0
 80013ce:	68b1      	ldr	r1, [r6, #8]
 80013d0:	9802      	ldr	r0, [sp, #8]
 80013d2:	463a      	mov	r2, r7
 80013d4:	f002 ff78 	bl	80042c8 <cmox_bn_mux>
 80013d8:	4606      	mov	r6, r0
 80013da:	69a0      	ldr	r0, [r4, #24]
 80013dc:	6801      	ldr	r1, [r0, #0]
 80013de:	680a      	ldr	r2, [r1, #0]
 80013e0:	68a9      	ldr	r1, [r5, #8]
 80013e2:	6868      	ldr	r0, [r5, #4]
 80013e4:	463b      	mov	r3, r7
 80013e6:	f001 f82f 	bl	8002448 <cmox_ModAddBN>
 80013ea:	6a23      	ldr	r3, [r4, #32]
 80013ec:	6828      	ldr	r0, [r5, #0]
 80013ee:	4622      	mov	r2, r4
 80013f0:	4641      	mov	r1, r8
 80013f2:	f001 fad1 	bl	8002998 <cmox_ModularBN_Sqr>
 80013f6:	6a23      	ldr	r3, [r4, #32]
 80013f8:	6868      	ldr	r0, [r5, #4]
 80013fa:	4622      	mov	r2, r4
 80013fc:	4649      	mov	r1, r9
 80013fe:	f001 facb 	bl	8002998 <cmox_ModularBN_Sqr>
 8001402:	69a0      	ldr	r0, [r4, #24]
 8001404:	6801      	ldr	r1, [r0, #0]
 8001406:	680a      	ldr	r2, [r1, #0]
 8001408:	6828      	ldr	r0, [r5, #0]
 800140a:	4653      	mov	r3, sl
 800140c:	4649      	mov	r1, r9
 800140e:	f001 f81b 	bl	8002448 <cmox_ModAddBN>
 8001412:	6a23      	ldr	r3, [r4, #32]
 8001414:	9901      	ldr	r1, [sp, #4]
 8001416:	68a8      	ldr	r0, [r5, #8]
 8001418:	4622      	mov	r2, r4
 800141a:	f001 fabd 	bl	8002998 <cmox_ModularBN_Sqr>
 800141e:	6a23      	ldr	r3, [r4, #32]
 8001420:	4622      	mov	r2, r4
 8001422:	4651      	mov	r1, sl
 8001424:	4650      	mov	r0, sl
 8001426:	f001 fab7 	bl	8002998 <cmox_ModularBN_Sqr>
 800142a:	69a0      	ldr	r0, [r4, #24]
 800142c:	6801      	ldr	r1, [r0, #0]
 800142e:	680a      	ldr	r2, [r1, #0]
 8001430:	4653      	mov	r3, sl
 8001432:	4641      	mov	r1, r8
 8001434:	4650      	mov	r0, sl
 8001436:	f001 f898 	bl	800256a <cmox_ModSubBN>
 800143a:	69a0      	ldr	r0, [r4, #24]
 800143c:	6801      	ldr	r1, [r0, #0]
 800143e:	6809      	ldr	r1, [r1, #0]
 8001440:	465a      	mov	r2, fp
 8001442:	4640      	mov	r0, r8
 8001444:	f001 f9b5 	bl	80027b2 <cmox_FieldBN_Mul2>
 8001448:	69a0      	ldr	r0, [r4, #24]
 800144a:	6801      	ldr	r1, [r0, #0]
 800144c:	680a      	ldr	r2, [r1, #0]
 800144e:	4643      	mov	r3, r8
 8001450:	4659      	mov	r1, fp
 8001452:	4640      	mov	r0, r8
 8001454:	f000 fff8 	bl	8002448 <cmox_ModAddBN>
 8001458:	6a23      	ldr	r3, [r4, #32]
 800145a:	4622      	mov	r2, r4
 800145c:	4659      	mov	r1, fp
 800145e:	4648      	mov	r0, r9
 8001460:	f001 fa9a 	bl	8002998 <cmox_ModularBN_Sqr>
 8001464:	6a23      	ldr	r3, [r4, #32]
 8001466:	4622      	mov	r2, r4
 8001468:	4639      	mov	r1, r7
 800146a:	4638      	mov	r0, r7
 800146c:	f001 fa94 	bl	8002998 <cmox_ModularBN_Sqr>
 8001470:	69a0      	ldr	r0, [r4, #24]
 8001472:	6801      	ldr	r1, [r0, #0]
 8001474:	680a      	ldr	r2, [r1, #0]
 8001476:	463b      	mov	r3, r7
 8001478:	4649      	mov	r1, r9
 800147a:	4638      	mov	r0, r7
 800147c:	f001 f875 	bl	800256a <cmox_ModSubBN>
 8001480:	69a0      	ldr	r0, [r4, #24]
 8001482:	6801      	ldr	r1, [r0, #0]
 8001484:	680a      	ldr	r2, [r1, #0]
 8001486:	9901      	ldr	r1, [sp, #4]
 8001488:	4633      	mov	r3, r6
 800148a:	4638      	mov	r0, r7
 800148c:	f001 f86d 	bl	800256a <cmox_ModSubBN>
 8001490:	9901      	ldr	r1, [sp, #4]
 8001492:	6a23      	ldr	r3, [r4, #32]
 8001494:	4622      	mov	r2, r4
 8001496:	4608      	mov	r0, r1
 8001498:	f001 fa7e 	bl	8002998 <cmox_ModularBN_Sqr>
 800149c:	6a20      	ldr	r0, [r4, #32]
 800149e:	9a01      	ldr	r2, [sp, #4]
 80014a0:	9000      	str	r0, [sp, #0]
 80014a2:	4623      	mov	r3, r4
 80014a4:	69a0      	ldr	r0, [r4, #24]
 80014a6:	6805      	ldr	r5, [r0, #0]
 80014a8:	6928      	ldr	r0, [r5, #16]
 80014aa:	4611      	mov	r1, r2
 80014ac:	f001 fa51 	bl	8002952 <cmox_ModularBN_Mul>
 80014b0:	69a0      	ldr	r0, [r4, #24]
 80014b2:	6801      	ldr	r1, [r0, #0]
 80014b4:	680a      	ldr	r2, [r1, #0]
 80014b6:	9901      	ldr	r1, [sp, #4]
 80014b8:	463b      	mov	r3, r7
 80014ba:	4640      	mov	r0, r8
 80014bc:	f000 ffc4 	bl	8002448 <cmox_ModAddBN>
 80014c0:	69a0      	ldr	r0, [r4, #24]
 80014c2:	6801      	ldr	r1, [r0, #0]
 80014c4:	680a      	ldr	r2, [r1, #0]
 80014c6:	4643      	mov	r3, r8
 80014c8:	4659      	mov	r1, fp
 80014ca:	4650      	mov	r0, sl
 80014cc:	f001 f84d 	bl	800256a <cmox_ModSubBN>
 80014d0:	69a0      	ldr	r0, [r4, #24]
 80014d2:	6801      	ldr	r1, [r0, #0]
 80014d4:	6809      	ldr	r1, [r1, #0]
 80014d6:	4642      	mov	r2, r8
 80014d8:	4640      	mov	r0, r8
 80014da:	f001 f96a 	bl	80027b2 <cmox_FieldBN_Mul2>
 80014de:	6a23      	ldr	r3, [r4, #32]
 80014e0:	4622      	mov	r2, r4
 80014e2:	4649      	mov	r1, r9
 80014e4:	4638      	mov	r0, r7
 80014e6:	f001 fa57 	bl	8002998 <cmox_ModularBN_Sqr>
 80014ea:	69a0      	ldr	r0, [r4, #24]
 80014ec:	6801      	ldr	r1, [r0, #0]
 80014ee:	9a01      	ldr	r2, [sp, #4]
 80014f0:	6809      	ldr	r1, [r1, #0]
 80014f2:	4640      	mov	r0, r8
 80014f4:	f001 f95d 	bl	80027b2 <cmox_FieldBN_Mul2>
 80014f8:	69a0      	ldr	r0, [r4, #24]
 80014fa:	6801      	ldr	r1, [r0, #0]
 80014fc:	680a      	ldr	r2, [r1, #0]
 80014fe:	9901      	ldr	r1, [sp, #4]
 8001500:	4653      	mov	r3, sl
 8001502:	4648      	mov	r0, r9
 8001504:	f001 f831 	bl	800256a <cmox_ModSubBN>
 8001508:	69a0      	ldr	r0, [r4, #24]
 800150a:	6801      	ldr	r1, [r0, #0]
 800150c:	680a      	ldr	r2, [r1, #0]
 800150e:	4643      	mov	r3, r8
 8001510:	4651      	mov	r1, sl
 8001512:	4640      	mov	r0, r8
 8001514:	f001 f829 	bl	800256a <cmox_ModSubBN>
 8001518:	69a0      	ldr	r0, [r4, #24]
 800151a:	6801      	ldr	r1, [r0, #0]
 800151c:	6809      	ldr	r1, [r1, #0]
 800151e:	464a      	mov	r2, r9
 8001520:	4658      	mov	r0, fp
 8001522:	f001 f946 	bl	80027b2 <cmox_FieldBN_Mul2>
 8001526:	69a0      	ldr	r0, [r4, #24]
 8001528:	6801      	ldr	r1, [r0, #0]
 800152a:	6809      	ldr	r1, [r1, #0]
 800152c:	464a      	mov	r2, r9
 800152e:	4648      	mov	r0, r9
 8001530:	f001 f93f 	bl	80027b2 <cmox_FieldBN_Mul2>
 8001534:	69a0      	ldr	r0, [r4, #24]
 8001536:	6801      	ldr	r1, [r0, #0]
 8001538:	6809      	ldr	r1, [r1, #0]
 800153a:	464a      	mov	r2, r9
 800153c:	4648      	mov	r0, r9
 800153e:	f001 f938 	bl	80027b2 <cmox_FieldBN_Mul2>
 8001542:	6a20      	ldr	r0, [r4, #32]
 8001544:	9000      	str	r0, [sp, #0]
 8001546:	4623      	mov	r3, r4
 8001548:	463a      	mov	r2, r7
 800154a:	4641      	mov	r1, r8
 800154c:	4638      	mov	r0, r7
 800154e:	f001 fa00 	bl	8002952 <cmox_ModularBN_Mul>
 8001552:	69a0      	ldr	r0, [r4, #24]
 8001554:	6801      	ldr	r1, [r0, #0]
 8001556:	680a      	ldr	r2, [r1, #0]
 8001558:	465b      	mov	r3, fp
 800155a:	4649      	mov	r1, r9
 800155c:	4638      	mov	r0, r7
 800155e:	b003      	add	sp, #12
 8001560:	e8bd 4ff0 	ldmia.w	sp!, {r4, r5, r6, r7, r8, r9, sl, fp, lr}
 8001564:	f001 b801 	b.w	800256a <cmox_ModSubBN>

08001568 <cmox_ECC_EDW_AddPoints_ProjAff>:
 8001568:	e92d 47fc 	stmdb	sp!, {r2, r3, r4, r5, r6, r7, r8, r9, sl, lr}
 800156c:	4604      	mov	r4, r0
 800156e:	6965      	ldr	r5, [r4, #20]
 8001570:	980a      	ldr	r0, [sp, #40]	@ 0x28
 8001572:	f8d5 8000 	ldr.w	r8, [r5]
 8001576:	f8d5 9004 	ldr.w	r9, [r5, #4]
 800157a:	f8d5 a008 	ldr.w	sl, [r5, #8]
 800157e:	b108      	cbz	r0, 8001584 <cmox_ECC_EDW_AddPoints_ProjAff+0x1c>
 8001580:	2500      	movs	r5, #0
 8001582:	6005      	str	r5, [r0, #0]
 8001584:	4616      	mov	r6, r2
 8001586:	6a22      	ldr	r2, [r4, #32]
 8001588:	9200      	str	r2, [sp, #0]
 800158a:	460f      	mov	r7, r1
 800158c:	461d      	mov	r5, r3
 800158e:	6831      	ldr	r1, [r6, #0]
 8001590:	6838      	ldr	r0, [r7, #0]
 8001592:	4623      	mov	r3, r4
 8001594:	4642      	mov	r2, r8
 8001596:	f001 f9dc 	bl	8002952 <cmox_ModularBN_Mul>
 800159a:	69a0      	ldr	r0, [r4, #24]
 800159c:	6801      	ldr	r1, [r0, #0]
 800159e:	680a      	ldr	r2, [r1, #0]
 80015a0:	6879      	ldr	r1, [r7, #4]
 80015a2:	6838      	ldr	r0, [r7, #0]
 80015a4:	464b      	mov	r3, r9
 80015a6:	f000 ff4f 	bl	8002448 <cmox_ModAddBN>
 80015aa:	69a0      	ldr	r0, [r4, #24]
 80015ac:	6801      	ldr	r1, [r0, #0]
 80015ae:	680a      	ldr	r2, [r1, #0]
 80015b0:	682b      	ldr	r3, [r5, #0]
 80015b2:	6871      	ldr	r1, [r6, #4]
 80015b4:	6830      	ldr	r0, [r6, #0]
 80015b6:	f000 ff47 	bl	8002448 <cmox_ModAddBN>
 80015ba:	6a20      	ldr	r0, [r4, #32]
 80015bc:	9000      	str	r0, [sp, #0]
 80015be:	686a      	ldr	r2, [r5, #4]
 80015c0:	6871      	ldr	r1, [r6, #4]
 80015c2:	6878      	ldr	r0, [r7, #4]
 80015c4:	4623      	mov	r3, r4
 80015c6:	f001 f9c4 	bl	8002952 <cmox_ModularBN_Mul>
 80015ca:	6a20      	ldr	r0, [r4, #32]
 80015cc:	9000      	str	r0, [sp, #0]
 80015ce:	4623      	mov	r3, r4
 80015d0:	6869      	ldr	r1, [r5, #4]
 80015d2:	4652      	mov	r2, sl
 80015d4:	4640      	mov	r0, r8
 80015d6:	f001 f9bc 	bl	8002952 <cmox_ModularBN_Mul>
 80015da:	6a20      	ldr	r0, [r4, #32]
 80015dc:	9000      	str	r0, [sp, #0]
 80015de:	4623      	mov	r3, r4
 80015e0:	69a0      	ldr	r0, [r4, #24]
 80015e2:	6806      	ldr	r6, [r0, #0]
 80015e4:	6970      	ldr	r0, [r6, #20]
 80015e6:	4652      	mov	r2, sl
 80015e8:	4651      	mov	r1, sl
 80015ea:	f001 f9b2 	bl	8002952 <cmox_ModularBN_Mul>
 80015ee:	6a20      	ldr	r0, [r4, #32]
 80015f0:	9000      	str	r0, [sp, #0]
 80015f2:	4623      	mov	r3, r4
 80015f4:	6829      	ldr	r1, [r5, #0]
 80015f6:	464a      	mov	r2, r9
 80015f8:	4648      	mov	r0, r9
 80015fa:	f001 f9aa 	bl	8002952 <cmox_ModularBN_Mul>
 80015fe:	69a0      	ldr	r0, [r4, #24]
 8001600:	6801      	ldr	r1, [r0, #0]
 8001602:	680a      	ldr	r2, [r1, #0]
 8001604:	464b      	mov	r3, r9
 8001606:	4641      	mov	r1, r8
 8001608:	4648      	mov	r0, r9
 800160a:	f000 ffae 	bl	800256a <cmox_ModSubBN>
 800160e:	69a0      	ldr	r0, [r4, #24]
 8001610:	6801      	ldr	r1, [r0, #0]
 8001612:	680a      	ldr	r2, [r1, #0]
 8001614:	6869      	ldr	r1, [r5, #4]
 8001616:	464b      	mov	r3, r9
 8001618:	4648      	mov	r0, r9
 800161a:	f000 ffa6 	bl	800256a <cmox_ModSubBN>
 800161e:	6a20      	ldr	r0, [r4, #32]
 8001620:	9000      	str	r0, [sp, #0]
 8001622:	4623      	mov	r3, r4
 8001624:	69a0      	ldr	r0, [r4, #24]
 8001626:	6806      	ldr	r6, [r0, #0]
 8001628:	6930      	ldr	r0, [r6, #16]
 800162a:	4642      	mov	r2, r8
 800162c:	4641      	mov	r1, r8
 800162e:	f001 f990 	bl	8002952 <cmox_ModularBN_Mul>
 8001632:	69a1      	ldr	r1, [r4, #24]
 8001634:	680a      	ldr	r2, [r1, #0]
 8001636:	6868      	ldr	r0, [r5, #4]
 8001638:	6812      	ldr	r2, [r2, #0]
 800163a:	4603      	mov	r3, r0
 800163c:	4641      	mov	r1, r8
 800163e:	f000 ff94 	bl	800256a <cmox_ModSubBN>
 8001642:	6a23      	ldr	r3, [r4, #32]
 8001644:	6829      	ldr	r1, [r5, #0]
 8001646:	68b8      	ldr	r0, [r7, #8]
 8001648:	4622      	mov	r2, r4
 800164a:	f001 f9a5 	bl	8002998 <cmox_ModularBN_Sqr>
 800164e:	69a0      	ldr	r0, [r4, #24]
 8001650:	6801      	ldr	r1, [r0, #0]
 8001652:	680a      	ldr	r2, [r1, #0]
 8001654:	6828      	ldr	r0, [r5, #0]
 8001656:	4643      	mov	r3, r8
 8001658:	4651      	mov	r1, sl
 800165a:	f000 ff86 	bl	800256a <cmox_ModSubBN>
 800165e:	69a0      	ldr	r0, [r4, #24]
 8001660:	6801      	ldr	r1, [r0, #0]
 8001662:	680a      	ldr	r2, [r1, #0]
 8001664:	6828      	ldr	r0, [r5, #0]
 8001666:	4653      	mov	r3, sl
 8001668:	4651      	mov	r1, sl
 800166a:	f000 feed 	bl	8002448 <cmox_ModAddBN>
 800166e:	6a20      	ldr	r0, [r4, #32]
 8001670:	9000      	str	r0, [sp, #0]
 8001672:	4623      	mov	r3, r4
 8001674:	464a      	mov	r2, r9
 8001676:	4649      	mov	r1, r9
 8001678:	4640      	mov	r0, r8
 800167a:	f001 f96a 	bl	8002952 <cmox_ModularBN_Mul>
 800167e:	6a20      	ldr	r0, [r4, #32]
 8001680:	9000      	str	r0, [sp, #0]
 8001682:	4623      	mov	r3, r4
 8001684:	682a      	ldr	r2, [r5, #0]
 8001686:	68b8      	ldr	r0, [r7, #8]
 8001688:	4649      	mov	r1, r9
 800168a:	f001 f962 	bl	8002952 <cmox_ModularBN_Mul>
 800168e:	6a20      	ldr	r0, [r4, #32]
 8001690:	9000      	str	r0, [sp, #0]
 8001692:	4623      	mov	r3, r4
 8001694:	6869      	ldr	r1, [r5, #4]
 8001696:	464a      	mov	r2, r9
 8001698:	4650      	mov	r0, sl
 800169a:	f001 f95a 	bl	8002952 <cmox_ModularBN_Mul>
 800169e:	6a20      	ldr	r0, [r4, #32]
 80016a0:	9000      	str	r0, [sp, #0]
 80016a2:	4623      	mov	r3, r4
 80016a4:	686a      	ldr	r2, [r5, #4]
 80016a6:	68b8      	ldr	r0, [r7, #8]
 80016a8:	4649      	mov	r1, r9
 80016aa:	f001 f952 	bl	8002952 <cmox_ModularBN_Mul>
 80016ae:	6a20      	ldr	r0, [r4, #32]
 80016b0:	9000      	str	r0, [sp, #0]
 80016b2:	4623      	mov	r3, r4
 80016b4:	68aa      	ldr	r2, [r5, #8]
 80016b6:	4651      	mov	r1, sl
 80016b8:	4640      	mov	r0, r8
 80016ba:	f001 f94a 	bl	8002952 <cmox_ModularBN_Mul>
 80016be:	e8bd 87f3 	ldmia.w	sp!, {r0, r1, r4, r5, r6, r7, r8, r9, sl, pc}

080016c2 <cmox_ECC_EDW_AddPoints_Proj>:
 80016c2:	e92d 47fc 	stmdb	sp!, {r2, r3, r4, r5, r6, r7, r8, r9, sl, lr}
 80016c6:	4604      	mov	r4, r0
 80016c8:	460d      	mov	r5, r1
 80016ca:	6960      	ldr	r0, [r4, #20]
 80016cc:	f8d0 a000 	ldr.w	sl, [r0]
 80016d0:	f8d0 8004 	ldr.w	r8, [r0, #4]
 80016d4:	f8d0 9008 	ldr.w	r9, [r0, #8]
 80016d8:	6a20      	ldr	r0, [r4, #32]
 80016da:	9000      	str	r0, [sp, #0]
 80016dc:	4617      	mov	r7, r2
 80016de:	461e      	mov	r6, r3
 80016e0:	68b9      	ldr	r1, [r7, #8]
 80016e2:	68a8      	ldr	r0, [r5, #8]
 80016e4:	4623      	mov	r3, r4
 80016e6:	4652      	mov	r2, sl
 80016e8:	f001 f933 	bl	8002952 <cmox_ModularBN_Mul>
 80016ec:	6a20      	ldr	r0, [r4, #32]
 80016ee:	9000      	str	r0, [sp, #0]
 80016f0:	68b2      	ldr	r2, [r6, #8]
 80016f2:	6839      	ldr	r1, [r7, #0]
 80016f4:	6828      	ldr	r0, [r5, #0]
 80016f6:	4623      	mov	r3, r4
 80016f8:	f001 f92b 	bl	8002952 <cmox_ModularBN_Mul>
 80016fc:	69a0      	ldr	r0, [r4, #24]
 80016fe:	6801      	ldr	r1, [r0, #0]
 8001700:	680a      	ldr	r2, [r1, #0]
 8001702:	6869      	ldr	r1, [r5, #4]
 8001704:	6828      	ldr	r0, [r5, #0]
 8001706:	4643      	mov	r3, r8
 8001708:	f000 fe9e 	bl	8002448 <cmox_ModAddBN>
 800170c:	69a0      	ldr	r0, [r4, #24]
 800170e:	6801      	ldr	r1, [r0, #0]
 8001710:	680a      	ldr	r2, [r1, #0]
 8001712:	6833      	ldr	r3, [r6, #0]
 8001714:	6879      	ldr	r1, [r7, #4]
 8001716:	6838      	ldr	r0, [r7, #0]
 8001718:	f000 fe96 	bl	8002448 <cmox_ModAddBN>
 800171c:	6a20      	ldr	r0, [r4, #32]
 800171e:	9000      	str	r0, [sp, #0]
 8001720:	6872      	ldr	r2, [r6, #4]
 8001722:	6879      	ldr	r1, [r7, #4]
 8001724:	6868      	ldr	r0, [r5, #4]
 8001726:	4623      	mov	r3, r4
 8001728:	f001 f913 	bl	8002952 <cmox_ModularBN_Mul>
 800172c:	6a20      	ldr	r0, [r4, #32]
 800172e:	9000      	str	r0, [sp, #0]
 8001730:	4623      	mov	r3, r4
 8001732:	6871      	ldr	r1, [r6, #4]
 8001734:	68b0      	ldr	r0, [r6, #8]
 8001736:	464a      	mov	r2, r9
 8001738:	f001 f90b 	bl	8002952 <cmox_ModularBN_Mul>
 800173c:	6a20      	ldr	r0, [r4, #32]
 800173e:	9000      	str	r0, [sp, #0]
 8001740:	4623      	mov	r3, r4
 8001742:	69a0      	ldr	r0, [r4, #24]
 8001744:	6805      	ldr	r5, [r0, #0]
 8001746:	6968      	ldr	r0, [r5, #20]
 8001748:	464a      	mov	r2, r9
 800174a:	4649      	mov	r1, r9
 800174c:	f001 f901 	bl	8002952 <cmox_ModularBN_Mul>
 8001750:	6a20      	ldr	r0, [r4, #32]
 8001752:	9000      	str	r0, [sp, #0]
 8001754:	4623      	mov	r3, r4
 8001756:	6831      	ldr	r1, [r6, #0]
 8001758:	4642      	mov	r2, r8
 800175a:	4640      	mov	r0, r8
 800175c:	f001 f8f9 	bl	8002952 <cmox_ModularBN_Mul>
 8001760:	69a0      	ldr	r0, [r4, #24]
 8001762:	6801      	ldr	r1, [r0, #0]
 8001764:	680a      	ldr	r2, [r1, #0]
 8001766:	68b1      	ldr	r1, [r6, #8]
 8001768:	4643      	mov	r3, r8
 800176a:	4640      	mov	r0, r8
 800176c:	f000 fefd 	bl	800256a <cmox_ModSubBN>
 8001770:	69a0      	ldr	r0, [r4, #24]
 8001772:	6801      	ldr	r1, [r0, #0]
 8001774:	680a      	ldr	r2, [r1, #0]
 8001776:	6871      	ldr	r1, [r6, #4]
 8001778:	4643      	mov	r3, r8
 800177a:	4640      	mov	r0, r8
 800177c:	f000 fef5 	bl	800256a <cmox_ModSubBN>
 8001780:	68b1      	ldr	r1, [r6, #8]
 8001782:	6a20      	ldr	r0, [r4, #32]
 8001784:	9000      	str	r0, [sp, #0]
 8001786:	4623      	mov	r3, r4
 8001788:	69a0      	ldr	r0, [r4, #24]
 800178a:	6805      	ldr	r5, [r0, #0]
 800178c:	6928      	ldr	r0, [r5, #16]
 800178e:	460a      	mov	r2, r1
 8001790:	f001 f8df 	bl	8002952 <cmox_ModularBN_Mul>
 8001794:	69a1      	ldr	r1, [r4, #24]
 8001796:	680a      	ldr	r2, [r1, #0]
 8001798:	6870      	ldr	r0, [r6, #4]
 800179a:	6812      	ldr	r2, [r2, #0]
 800179c:	68b1      	ldr	r1, [r6, #8]
 800179e:	4603      	mov	r3, r0
 80017a0:	f000 fee3 	bl	800256a <cmox_ModSubBN>
 80017a4:	6a23      	ldr	r3, [r4, #32]
 80017a6:	6831      	ldr	r1, [r6, #0]
 80017a8:	4622      	mov	r2, r4
 80017aa:	4650      	mov	r0, sl
 80017ac:	f001 f8f4 	bl	8002998 <cmox_ModularBN_Sqr>
 80017b0:	69a0      	ldr	r0, [r4, #24]
 80017b2:	6801      	ldr	r1, [r0, #0]
 80017b4:	680a      	ldr	r2, [r1, #0]
 80017b6:	68b3      	ldr	r3, [r6, #8]
 80017b8:	6830      	ldr	r0, [r6, #0]
 80017ba:	4649      	mov	r1, r9
 80017bc:	f000 fed5 	bl	800256a <cmox_ModSubBN>
 80017c0:	69a0      	ldr	r0, [r4, #24]
 80017c2:	6801      	ldr	r1, [r0, #0]
 80017c4:	680a      	ldr	r2, [r1, #0]
 80017c6:	6830      	ldr	r0, [r6, #0]
 80017c8:	464b      	mov	r3, r9
 80017ca:	4649      	mov	r1, r9
 80017cc:	f000 fe3c 	bl	8002448 <cmox_ModAddBN>
 80017d0:	6a20      	ldr	r0, [r4, #32]
 80017d2:	9000      	str	r0, [sp, #0]
 80017d4:	4623      	mov	r3, r4
 80017d6:	68b0      	ldr	r0, [r6, #8]
 80017d8:	4642      	mov	r2, r8
 80017da:	4641      	mov	r1, r8
 80017dc:	f001 f8b9 	bl	8002952 <cmox_ModularBN_Mul>
 80017e0:	6a20      	ldr	r0, [r4, #32]
 80017e2:	9000      	str	r0, [sp, #0]
 80017e4:	4623      	mov	r3, r4
 80017e6:	6832      	ldr	r2, [r6, #0]
 80017e8:	4641      	mov	r1, r8
 80017ea:	4650      	mov	r0, sl
 80017ec:	f001 f8b1 	bl	8002952 <cmox_ModularBN_Mul>
 80017f0:	6a20      	ldr	r0, [r4, #32]
 80017f2:	9000      	str	r0, [sp, #0]
 80017f4:	4623      	mov	r3, r4
 80017f6:	6871      	ldr	r1, [r6, #4]
 80017f8:	4642      	mov	r2, r8
 80017fa:	4648      	mov	r0, r9
 80017fc:	f001 f8a9 	bl	8002952 <cmox_ModularBN_Mul>
 8001800:	6a20      	ldr	r0, [r4, #32]
 8001802:	9000      	str	r0, [sp, #0]
 8001804:	4623      	mov	r3, r4
 8001806:	6872      	ldr	r2, [r6, #4]
 8001808:	4641      	mov	r1, r8
 800180a:	4650      	mov	r0, sl
 800180c:	f001 f8a1 	bl	8002952 <cmox_ModularBN_Mul>
 8001810:	68b0      	ldr	r0, [r6, #8]
 8001812:	6a21      	ldr	r1, [r4, #32]
 8001814:	9100      	str	r1, [sp, #0]
 8001816:	4623      	mov	r3, r4
 8001818:	4602      	mov	r2, r0
 800181a:	4649      	mov	r1, r9
 800181c:	f001 f899 	bl	8002952 <cmox_ModularBN_Mul>
 8001820:	e8bd 87f3 	ldmia.w	sp!, {r0, r1, r4, r5, r6, r7, r8, r9, sl, pc}

08001824 <cmox_ECC_EDW_DblPoint_Proj>:
 8001824:	e92d 4ff8 	stmdb	sp!, {r3, r4, r5, r6, r7, r8, r9, sl, fp, lr}
 8001828:	4604      	mov	r4, r0
 800182a:	460d      	mov	r5, r1
 800182c:	6960      	ldr	r0, [r4, #20]
 800182e:	6806      	ldr	r6, [r0, #0]
 8001830:	f8d0 a004 	ldr.w	sl, [r0, #4]
 8001834:	4617      	mov	r7, r2
 8001836:	469b      	mov	fp, r3
 8001838:	6839      	ldr	r1, [r7, #0]
 800183a:	4632      	mov	r2, r6
 800183c:	4658      	mov	r0, fp
 800183e:	f002 fd43 	bl	80042c8 <cmox_bn_mux>
 8001842:	4680      	mov	r8, r0
 8001844:	6879      	ldr	r1, [r7, #4]
 8001846:	4632      	mov	r2, r6
 8001848:	4658      	mov	r0, fp
 800184a:	f002 fd3d 	bl	80042c8 <cmox_bn_mux>
 800184e:	4681      	mov	r9, r0
 8001850:	68b9      	ldr	r1, [r7, #8]
 8001852:	4632      	mov	r2, r6
 8001854:	4658      	mov	r0, fp
 8001856:	f002 fd37 	bl	80042c8 <cmox_bn_mux>
 800185a:	4607      	mov	r7, r0
 800185c:	69a0      	ldr	r0, [r4, #24]
 800185e:	6801      	ldr	r1, [r0, #0]
 8001860:	680a      	ldr	r2, [r1, #0]
 8001862:	6869      	ldr	r1, [r5, #4]
 8001864:	6828      	ldr	r0, [r5, #0]
 8001866:	4633      	mov	r3, r6
 8001868:	f000 fdee 	bl	8002448 <cmox_ModAddBN>
 800186c:	6a23      	ldr	r3, [r4, #32]
 800186e:	6828      	ldr	r0, [r5, #0]
 8001870:	4622      	mov	r2, r4
 8001872:	4651      	mov	r1, sl
 8001874:	f001 f890 	bl	8002998 <cmox_ModularBN_Sqr>
 8001878:	6a20      	ldr	r0, [r4, #32]
 800187a:	9000      	str	r0, [sp, #0]
 800187c:	4623      	mov	r3, r4
 800187e:	69a0      	ldr	r0, [r4, #24]
 8001880:	f8d0 e000 	ldr.w	lr, [r0]
 8001884:	f8de 0010 	ldr.w	r0, [lr, #16]
 8001888:	4642      	mov	r2, r8
 800188a:	4651      	mov	r1, sl
 800188c:	f001 f861 	bl	8002952 <cmox_ModularBN_Mul>
 8001890:	6a23      	ldr	r3, [r4, #32]
 8001892:	4622      	mov	r2, r4
 8001894:	4631      	mov	r1, r6
 8001896:	4630      	mov	r0, r6
 8001898:	f001 f87e 	bl	8002998 <cmox_ModularBN_Sqr>
 800189c:	69a0      	ldr	r0, [r4, #24]
 800189e:	6801      	ldr	r1, [r0, #0]
 80018a0:	680a      	ldr	r2, [r1, #0]
 80018a2:	4633      	mov	r3, r6
 80018a4:	4651      	mov	r1, sl
 80018a6:	4630      	mov	r0, r6
 80018a8:	f000 fe5f 	bl	800256a <cmox_ModSubBN>
 80018ac:	6a23      	ldr	r3, [r4, #32]
 80018ae:	6868      	ldr	r0, [r5, #4]
 80018b0:	4622      	mov	r2, r4
 80018b2:	4649      	mov	r1, r9
 80018b4:	f001 f870 	bl	8002998 <cmox_ModularBN_Sqr>
 80018b8:	69a0      	ldr	r0, [r4, #24]
 80018ba:	6801      	ldr	r1, [r0, #0]
 80018bc:	680a      	ldr	r2, [r1, #0]
 80018be:	4653      	mov	r3, sl
 80018c0:	4649      	mov	r1, r9
 80018c2:	4640      	mov	r0, r8
 80018c4:	f000 fdc0 	bl	8002448 <cmox_ModAddBN>
 80018c8:	69a0      	ldr	r0, [r4, #24]
 80018ca:	6801      	ldr	r1, [r0, #0]
 80018cc:	680a      	ldr	r2, [r1, #0]
 80018ce:	4643      	mov	r3, r8
 80018d0:	4649      	mov	r1, r9
 80018d2:	4640      	mov	r0, r8
 80018d4:	f000 fe49 	bl	800256a <cmox_ModSubBN>
 80018d8:	69a0      	ldr	r0, [r4, #24]
 80018da:	6801      	ldr	r1, [r0, #0]
 80018dc:	680a      	ldr	r2, [r1, #0]
 80018de:	4633      	mov	r3, r6
 80018e0:	4649      	mov	r1, r9
 80018e2:	4630      	mov	r0, r6
 80018e4:	f000 fe41 	bl	800256a <cmox_ModSubBN>
 80018e8:	6a23      	ldr	r3, [r4, #32]
 80018ea:	68a8      	ldr	r0, [r5, #8]
 80018ec:	4622      	mov	r2, r4
 80018ee:	4639      	mov	r1, r7
 80018f0:	f001 f852 	bl	8002998 <cmox_ModularBN_Sqr>
 80018f4:	69a0      	ldr	r0, [r4, #24]
 80018f6:	6801      	ldr	r1, [r0, #0]
 80018f8:	6809      	ldr	r1, [r1, #0]
 80018fa:	463a      	mov	r2, r7
 80018fc:	4638      	mov	r0, r7
 80018fe:	f000 ff58 	bl	80027b2 <cmox_FieldBN_Mul2>
 8001902:	6a20      	ldr	r0, [r4, #32]
 8001904:	9000      	str	r0, [sp, #0]
 8001906:	4623      	mov	r3, r4
 8001908:	464a      	mov	r2, r9
 800190a:	4641      	mov	r1, r8
 800190c:	4650      	mov	r0, sl
 800190e:	f001 f820 	bl	8002952 <cmox_ModularBN_Mul>
 8001912:	69a0      	ldr	r0, [r4, #24]
 8001914:	6801      	ldr	r1, [r0, #0]
 8001916:	680a      	ldr	r2, [r1, #0]
 8001918:	463b      	mov	r3, r7
 800191a:	4639      	mov	r1, r7
 800191c:	4650      	mov	r0, sl
 800191e:	f000 fe24 	bl	800256a <cmox_ModSubBN>
 8001922:	6a20      	ldr	r0, [r4, #32]
 8001924:	9000      	str	r0, [sp, #0]
 8001926:	4623      	mov	r3, r4
 8001928:	4642      	mov	r2, r8
 800192a:	4639      	mov	r1, r7
 800192c:	4630      	mov	r0, r6
 800192e:	f001 f810 	bl	8002952 <cmox_ModularBN_Mul>
 8001932:	6a20      	ldr	r0, [r4, #32]
 8001934:	9000      	str	r0, [sp, #0]
 8001936:	4623      	mov	r3, r4
 8001938:	463a      	mov	r2, r7
 800193a:	4639      	mov	r1, r7
 800193c:	4650      	mov	r0, sl
 800193e:	f001 f808 	bl	8002952 <cmox_ModularBN_Mul>
 8001942:	e8bd 8ff1 	ldmia.w	sp!, {r0, r4, r5, r6, r7, r8, r9, sl, fp, pc}

08001946 <cmox_ECC_EDW_AddPnts_ExtAff_a_1>:
 8001946:	e92d 43f8 	stmdb	sp!, {r3, r4, r5, r6, r7, r8, r9, lr}
 800194a:	460d      	mov	r5, r1
 800194c:	4604      	mov	r4, r0
 800194e:	6961      	ldr	r1, [r4, #20]
 8001950:	9808      	ldr	r0, [sp, #32]
 8001952:	f8d1 8000 	ldr.w	r8, [r1]
 8001956:	f8d1 9004 	ldr.w	r9, [r1, #4]
 800195a:	4617      	mov	r7, r2
 800195c:	461e      	mov	r6, r3
 800195e:	b108      	cbz	r0, 8001964 <cmox_ECC_EDW_AddPnts_ExtAff_a_1+0x1e>
 8001960:	2100      	movs	r1, #0
 8001962:	6001      	str	r1, [r0, #0]
 8001964:	4643      	mov	r3, r8
 8001966:	69a0      	ldr	r0, [r4, #24]
 8001968:	6800      	ldr	r0, [r0, #0]
 800196a:	6802      	ldr	r2, [r0, #0]
 800196c:	6829      	ldr	r1, [r5, #0]
 800196e:	6868      	ldr	r0, [r5, #4]
 8001970:	f000 fdfb 	bl	800256a <cmox_ModSubBN>
 8001974:	69a0      	ldr	r0, [r4, #24]
 8001976:	6801      	ldr	r1, [r0, #0]
 8001978:	680a      	ldr	r2, [r1, #0]
 800197a:	6839      	ldr	r1, [r7, #0]
 800197c:	6878      	ldr	r0, [r7, #4]
 800197e:	464b      	mov	r3, r9
 8001980:	f000 fd62 	bl	8002448 <cmox_ModAddBN>
 8001984:	6a20      	ldr	r0, [r4, #32]
 8001986:	9000      	str	r0, [sp, #0]
 8001988:	4623      	mov	r3, r4
 800198a:	4642      	mov	r2, r8
 800198c:	4649      	mov	r1, r9
 800198e:	4640      	mov	r0, r8
 8001990:	f000 ffdf 	bl	8002952 <cmox_ModularBN_Mul>
 8001994:	69a0      	ldr	r0, [r4, #24]
 8001996:	6801      	ldr	r1, [r0, #0]
 8001998:	680a      	ldr	r2, [r1, #0]
 800199a:	6829      	ldr	r1, [r5, #0]
 800199c:	6868      	ldr	r0, [r5, #4]
 800199e:	464b      	mov	r3, r9
 80019a0:	f000 fd52 	bl	8002448 <cmox_ModAddBN>
 80019a4:	69a0      	ldr	r0, [r4, #24]
 80019a6:	6801      	ldr	r1, [r0, #0]
 80019a8:	680a      	ldr	r2, [r1, #0]
 80019aa:	6833      	ldr	r3, [r6, #0]
 80019ac:	6839      	ldr	r1, [r7, #0]
 80019ae:	6878      	ldr	r0, [r7, #4]
 80019b0:	f000 fddb 	bl	800256a <cmox_ModSubBN>
 80019b4:	6a20      	ldr	r0, [r4, #32]
 80019b6:	9000      	str	r0, [sp, #0]
 80019b8:	4623      	mov	r3, r4
 80019ba:	6831      	ldr	r1, [r6, #0]
 80019bc:	464a      	mov	r2, r9
 80019be:	4648      	mov	r0, r9
 80019c0:	f000 ffc7 	bl	8002952 <cmox_ModularBN_Mul>
 80019c4:	69a0      	ldr	r0, [r4, #24]
 80019c6:	6801      	ldr	r1, [r0, #0]
 80019c8:	680a      	ldr	r2, [r1, #0]
 80019ca:	6833      	ldr	r3, [r6, #0]
 80019cc:	4641      	mov	r1, r8
 80019ce:	4648      	mov	r0, r9
 80019d0:	f000 fdcb 	bl	800256a <cmox_ModSubBN>
 80019d4:	69a0      	ldr	r0, [r4, #24]
 80019d6:	6801      	ldr	r1, [r0, #0]
 80019d8:	680a      	ldr	r2, [r1, #0]
 80019da:	464b      	mov	r3, r9
 80019dc:	4641      	mov	r1, r8
 80019de:	4648      	mov	r0, r9
 80019e0:	f000 fd32 	bl	8002448 <cmox_ModAddBN>
 80019e4:	69a0      	ldr	r0, [r4, #24]
 80019e6:	6801      	ldr	r1, [r0, #0]
 80019e8:	6872      	ldr	r2, [r6, #4]
 80019ea:	6809      	ldr	r1, [r1, #0]
 80019ec:	68f8      	ldr	r0, [r7, #12]
 80019ee:	f000 fee0 	bl	80027b2 <cmox_FieldBN_Mul2>
 80019f2:	6871      	ldr	r1, [r6, #4]
 80019f4:	6a20      	ldr	r0, [r4, #32]
 80019f6:	9000      	str	r0, [sp, #0]
 80019f8:	4623      	mov	r3, r4
 80019fa:	68a8      	ldr	r0, [r5, #8]
 80019fc:	460a      	mov	r2, r1
 80019fe:	f000 ffa8 	bl	8002952 <cmox_ModularBN_Mul>
 8001a02:	69a0      	ldr	r0, [r4, #24]
 8001a04:	6801      	ldr	r1, [r0, #0]
 8001a06:	68f2      	ldr	r2, [r6, #12]
 8001a08:	6809      	ldr	r1, [r1, #0]
 8001a0a:	68e8      	ldr	r0, [r5, #12]
 8001a0c:	f000 fed1 	bl	80027b2 <cmox_FieldBN_Mul2>
 8001a10:	69a0      	ldr	r0, [r4, #24]
 8001a12:	6801      	ldr	r1, [r0, #0]
 8001a14:	680a      	ldr	r2, [r1, #0]
 8001a16:	6871      	ldr	r1, [r6, #4]
 8001a18:	68f0      	ldr	r0, [r6, #12]
 8001a1a:	4643      	mov	r3, r8
 8001a1c:	f000 fd14 	bl	8002448 <cmox_ModAddBN>
 8001a20:	69a1      	ldr	r1, [r4, #24]
 8001a22:	680a      	ldr	r2, [r1, #0]
 8001a24:	68f0      	ldr	r0, [r6, #12]
 8001a26:	6812      	ldr	r2, [r2, #0]
 8001a28:	6871      	ldr	r1, [r6, #4]
 8001a2a:	4603      	mov	r3, r0
 8001a2c:	f000 fd9d 	bl	800256a <cmox_ModSubBN>
 8001a30:	6a20      	ldr	r0, [r4, #32]
 8001a32:	9000      	str	r0, [sp, #0]
 8001a34:	4623      	mov	r3, r4
 8001a36:	68b2      	ldr	r2, [r6, #8]
 8001a38:	6830      	ldr	r0, [r6, #0]
 8001a3a:	4649      	mov	r1, r9
 8001a3c:	f000 ff89 	bl	8002952 <cmox_ModularBN_Mul>
 8001a40:	6831      	ldr	r1, [r6, #0]
 8001a42:	6a20      	ldr	r0, [r4, #32]
 8001a44:	9000      	str	r0, [sp, #0]
 8001a46:	4623      	mov	r3, r4
 8001a48:	460a      	mov	r2, r1
 8001a4a:	4640      	mov	r0, r8
 8001a4c:	f000 ff81 	bl	8002952 <cmox_ModularBN_Mul>
 8001a50:	6a20      	ldr	r0, [r4, #32]
 8001a52:	9000      	str	r0, [sp, #0]
 8001a54:	6872      	ldr	r2, [r6, #4]
 8001a56:	68f1      	ldr	r1, [r6, #12]
 8001a58:	4623      	mov	r3, r4
 8001a5a:	4648      	mov	r0, r9
 8001a5c:	f000 ff79 	bl	8002952 <cmox_ModularBN_Mul>
 8001a60:	68f1      	ldr	r1, [r6, #12]
 8001a62:	6a20      	ldr	r0, [r4, #32]
 8001a64:	9000      	str	r0, [sp, #0]
 8001a66:	4623      	mov	r3, r4
 8001a68:	460a      	mov	r2, r1
 8001a6a:	4640      	mov	r0, r8
 8001a6c:	f000 ff71 	bl	8002952 <cmox_ModularBN_Mul>
 8001a70:	e8bd 83f1 	ldmia.w	sp!, {r0, r4, r5, r6, r7, r8, r9, pc}

08001a74 <cmox_ECC_EDW_AddPoints_Ext_a_1>:
 8001a74:	e92d 43f8 	stmdb	sp!, {r3, r4, r5, r6, r7, r8, r9, lr}
 8001a78:	4604      	mov	r4, r0
 8001a7a:	4617      	mov	r7, r2
 8001a7c:	6960      	ldr	r0, [r4, #20]
 8001a7e:	f8d0 9004 	ldr.w	r9, [r0, #4]
 8001a82:	f8d0 8000 	ldr.w	r8, [r0]
 8001a86:	69a0      	ldr	r0, [r4, #24]
 8001a88:	6800      	ldr	r0, [r0, #0]
 8001a8a:	6802      	ldr	r2, [r0, #0]
 8001a8c:	460d      	mov	r5, r1
 8001a8e:	461e      	mov	r6, r3
 8001a90:	6829      	ldr	r1, [r5, #0]
 8001a92:	6868      	ldr	r0, [r5, #4]
 8001a94:	4643      	mov	r3, r8
 8001a96:	f000 fd68 	bl	800256a <cmox_ModSubBN>
 8001a9a:	69a0      	ldr	r0, [r4, #24]
 8001a9c:	6801      	ldr	r1, [r0, #0]
 8001a9e:	680a      	ldr	r2, [r1, #0]
 8001aa0:	6839      	ldr	r1, [r7, #0]
 8001aa2:	6878      	ldr	r0, [r7, #4]
 8001aa4:	464b      	mov	r3, r9
 8001aa6:	f000 fccf 	bl	8002448 <cmox_ModAddBN>
 8001aaa:	6a20      	ldr	r0, [r4, #32]
 8001aac:	9000      	str	r0, [sp, #0]
 8001aae:	4623      	mov	r3, r4
 8001ab0:	4642      	mov	r2, r8
 8001ab2:	4649      	mov	r1, r9
 8001ab4:	4640      	mov	r0, r8
 8001ab6:	f000 ff4c 	bl	8002952 <cmox_ModularBN_Mul>
 8001aba:	69a0      	ldr	r0, [r4, #24]
 8001abc:	6801      	ldr	r1, [r0, #0]
 8001abe:	680a      	ldr	r2, [r1, #0]
 8001ac0:	6829      	ldr	r1, [r5, #0]
 8001ac2:	6868      	ldr	r0, [r5, #4]
 8001ac4:	464b      	mov	r3, r9
 8001ac6:	f000 fcbf 	bl	8002448 <cmox_ModAddBN>
 8001aca:	69a0      	ldr	r0, [r4, #24]
 8001acc:	6801      	ldr	r1, [r0, #0]
 8001ace:	680a      	ldr	r2, [r1, #0]
 8001ad0:	6833      	ldr	r3, [r6, #0]
 8001ad2:	6839      	ldr	r1, [r7, #0]
 8001ad4:	6878      	ldr	r0, [r7, #4]
 8001ad6:	f000 fd48 	bl	800256a <cmox_ModSubBN>
 8001ada:	6a20      	ldr	r0, [r4, #32]
 8001adc:	9000      	str	r0, [sp, #0]
 8001ade:	4623      	mov	r3, r4
 8001ae0:	6831      	ldr	r1, [r6, #0]
 8001ae2:	464a      	mov	r2, r9
 8001ae4:	4648      	mov	r0, r9
 8001ae6:	f000 ff34 	bl	8002952 <cmox_ModularBN_Mul>
 8001aea:	69a0      	ldr	r0, [r4, #24]
 8001aec:	6801      	ldr	r1, [r0, #0]
 8001aee:	680a      	ldr	r2, [r1, #0]
 8001af0:	6833      	ldr	r3, [r6, #0]
 8001af2:	4641      	mov	r1, r8
 8001af4:	4648      	mov	r0, r9
 8001af6:	f000 fd38 	bl	800256a <cmox_ModSubBN>
 8001afa:	69a0      	ldr	r0, [r4, #24]
 8001afc:	6801      	ldr	r1, [r0, #0]
 8001afe:	680a      	ldr	r2, [r1, #0]
 8001b00:	464b      	mov	r3, r9
 8001b02:	4641      	mov	r1, r8
 8001b04:	4648      	mov	r0, r9
 8001b06:	f000 fc9f 	bl	8002448 <cmox_ModAddBN>
 8001b0a:	69a0      	ldr	r0, [r4, #24]
 8001b0c:	6801      	ldr	r1, [r0, #0]
 8001b0e:	6872      	ldr	r2, [r6, #4]
 8001b10:	6809      	ldr	r1, [r1, #0]
 8001b12:	68f8      	ldr	r0, [r7, #12]
 8001b14:	f000 fe4d 	bl	80027b2 <cmox_FieldBN_Mul2>
 8001b18:	6871      	ldr	r1, [r6, #4]
 8001b1a:	6a20      	ldr	r0, [r4, #32]
 8001b1c:	9000      	str	r0, [sp, #0]
 8001b1e:	4623      	mov	r3, r4
 8001b20:	68a8      	ldr	r0, [r5, #8]
 8001b22:	460a      	mov	r2, r1
 8001b24:	f000 ff15 	bl	8002952 <cmox_ModularBN_Mul>
 8001b28:	69a0      	ldr	r0, [r4, #24]
 8001b2a:	6801      	ldr	r1, [r0, #0]
 8001b2c:	68b2      	ldr	r2, [r6, #8]
 8001b2e:	6809      	ldr	r1, [r1, #0]
 8001b30:	68b8      	ldr	r0, [r7, #8]
 8001b32:	f000 fe3e 	bl	80027b2 <cmox_FieldBN_Mul2>
 8001b36:	6a20      	ldr	r0, [r4, #32]
 8001b38:	9000      	str	r0, [sp, #0]
 8001b3a:	68f2      	ldr	r2, [r6, #12]
 8001b3c:	68b1      	ldr	r1, [r6, #8]
 8001b3e:	68e8      	ldr	r0, [r5, #12]
 8001b40:	4623      	mov	r3, r4
 8001b42:	f000 ff06 	bl	8002952 <cmox_ModularBN_Mul>
 8001b46:	69a0      	ldr	r0, [r4, #24]
 8001b48:	6801      	ldr	r1, [r0, #0]
 8001b4a:	680a      	ldr	r2, [r1, #0]
 8001b4c:	6871      	ldr	r1, [r6, #4]
 8001b4e:	68f0      	ldr	r0, [r6, #12]
 8001b50:	4643      	mov	r3, r8
 8001b52:	f000 fc79 	bl	8002448 <cmox_ModAddBN>
 8001b56:	69a1      	ldr	r1, [r4, #24]
 8001b58:	680a      	ldr	r2, [r1, #0]
 8001b5a:	68f0      	ldr	r0, [r6, #12]
 8001b5c:	6812      	ldr	r2, [r2, #0]
 8001b5e:	6871      	ldr	r1, [r6, #4]
 8001b60:	4603      	mov	r3, r0
 8001b62:	f000 fd02 	bl	800256a <cmox_ModSubBN>
 8001b66:	6a20      	ldr	r0, [r4, #32]
 8001b68:	9000      	str	r0, [sp, #0]
 8001b6a:	4623      	mov	r3, r4
 8001b6c:	68b2      	ldr	r2, [r6, #8]
 8001b6e:	6830      	ldr	r0, [r6, #0]
 8001b70:	4649      	mov	r1, r9
 8001b72:	f000 feee 	bl	8002952 <cmox_ModularBN_Mul>
 8001b76:	6831      	ldr	r1, [r6, #0]
 8001b78:	6a20      	ldr	r0, [r4, #32]
 8001b7a:	9000      	str	r0, [sp, #0]
 8001b7c:	4623      	mov	r3, r4
 8001b7e:	460a      	mov	r2, r1
 8001b80:	4640      	mov	r0, r8
 8001b82:	f000 fee6 	bl	8002952 <cmox_ModularBN_Mul>
 8001b86:	6a20      	ldr	r0, [r4, #32]
 8001b88:	9000      	str	r0, [sp, #0]
 8001b8a:	6872      	ldr	r2, [r6, #4]
 8001b8c:	68f1      	ldr	r1, [r6, #12]
 8001b8e:	4623      	mov	r3, r4
 8001b90:	4648      	mov	r0, r9
 8001b92:	f000 fede 	bl	8002952 <cmox_ModularBN_Mul>
 8001b96:	68f1      	ldr	r1, [r6, #12]
 8001b98:	6a20      	ldr	r0, [r4, #32]
 8001b9a:	9000      	str	r0, [sp, #0]
 8001b9c:	4623      	mov	r3, r4
 8001b9e:	460a      	mov	r2, r1
 8001ba0:	4640      	mov	r0, r8
 8001ba2:	f000 fed6 	bl	8002952 <cmox_ModularBN_Mul>
 8001ba6:	e8bd 83f1 	ldmia.w	sp!, {r0, r4, r5, r6, r7, r8, r9, pc}

08001baa <cmox_ECC_EDW_DblPoint_Ext_a_1>:
 8001baa:	e92d 4ffe 	stmdb	sp!, {r1, r2, r3, r4, r5, r6, r7, r8, r9, sl, fp, lr}
 8001bae:	4604      	mov	r4, r0
 8001bb0:	4698      	mov	r8, r3
 8001bb2:	6960      	ldr	r0, [r4, #20]
 8001bb4:	6807      	ldr	r7, [r0, #0]
 8001bb6:	6843      	ldr	r3, [r0, #4]
 8001bb8:	9301      	str	r3, [sp, #4]
 8001bba:	460d      	mov	r5, r1
 8001bbc:	4616      	mov	r6, r2
 8001bbe:	463a      	mov	r2, r7
 8001bc0:	6831      	ldr	r1, [r6, #0]
 8001bc2:	4640      	mov	r0, r8
 8001bc4:	f002 fb80 	bl	80042c8 <cmox_bn_mux>
 8001bc8:	4681      	mov	r9, r0
 8001bca:	6871      	ldr	r1, [r6, #4]
 8001bcc:	463a      	mov	r2, r7
 8001bce:	4640      	mov	r0, r8
 8001bd0:	f002 fb7a 	bl	80042c8 <cmox_bn_mux>
 8001bd4:	4682      	mov	sl, r0
 8001bd6:	68b1      	ldr	r1, [r6, #8]
 8001bd8:	463a      	mov	r2, r7
 8001bda:	4640      	mov	r0, r8
 8001bdc:	f002 fb74 	bl	80042c8 <cmox_bn_mux>
 8001be0:	4683      	mov	fp, r0
 8001be2:	68f1      	ldr	r1, [r6, #12]
 8001be4:	463a      	mov	r2, r7
 8001be6:	4640      	mov	r0, r8
 8001be8:	f002 fb6e 	bl	80042c8 <cmox_bn_mux>
 8001bec:	4606      	mov	r6, r0
 8001bee:	6a23      	ldr	r3, [r4, #32]
 8001bf0:	6828      	ldr	r0, [r5, #0]
 8001bf2:	4622      	mov	r2, r4
 8001bf4:	4639      	mov	r1, r7
 8001bf6:	f000 fecf 	bl	8002998 <cmox_ModularBN_Sqr>
 8001bfa:	6a23      	ldr	r3, [r4, #32]
 8001bfc:	6868      	ldr	r0, [r5, #4]
 8001bfe:	4622      	mov	r2, r4
 8001c00:	4631      	mov	r1, r6
 8001c02:	f000 fec9 	bl	8002998 <cmox_ModularBN_Sqr>
 8001c06:	6a23      	ldr	r3, [r4, #32]
 8001c08:	68a8      	ldr	r0, [r5, #8]
 8001c0a:	4622      	mov	r2, r4
 8001c0c:	4659      	mov	r1, fp
 8001c0e:	f000 fec3 	bl	8002998 <cmox_ModularBN_Sqr>
 8001c12:	69a0      	ldr	r0, [r4, #24]
 8001c14:	6801      	ldr	r1, [r0, #0]
 8001c16:	6809      	ldr	r1, [r1, #0]
 8001c18:	465a      	mov	r2, fp
 8001c1a:	4658      	mov	r0, fp
 8001c1c:	f000 fdc9 	bl	80027b2 <cmox_FieldBN_Mul2>
 8001c20:	69a0      	ldr	r0, [r4, #24]
 8001c22:	6801      	ldr	r1, [r0, #0]
 8001c24:	680a      	ldr	r2, [r1, #0]
 8001c26:	6869      	ldr	r1, [r5, #4]
 8001c28:	6828      	ldr	r0, [r5, #0]
 8001c2a:	464b      	mov	r3, r9
 8001c2c:	f000 fc0c 	bl	8002448 <cmox_ModAddBN>
 8001c30:	6a23      	ldr	r3, [r4, #32]
 8001c32:	4622      	mov	r2, r4
 8001c34:	4649      	mov	r1, r9
 8001c36:	4648      	mov	r0, r9
 8001c38:	f000 feae 	bl	8002998 <cmox_ModularBN_Sqr>
 8001c3c:	69a0      	ldr	r0, [r4, #24]
 8001c3e:	6801      	ldr	r1, [r0, #0]
 8001c40:	680a      	ldr	r2, [r1, #0]
 8001c42:	464b      	mov	r3, r9
 8001c44:	4639      	mov	r1, r7
 8001c46:	4648      	mov	r0, r9
 8001c48:	f000 fc8f 	bl	800256a <cmox_ModSubBN>
 8001c4c:	69a0      	ldr	r0, [r4, #24]
 8001c4e:	6803      	ldr	r3, [r0, #0]
 8001c50:	6818      	ldr	r0, [r3, #0]
 8001c52:	4652      	mov	r2, sl
 8001c54:	4639      	mov	r1, r7
 8001c56:	f000 fd07 	bl	8002668 <cmox_SubBN>
 8001c5a:	69a0      	ldr	r0, [r4, #24]
 8001c5c:	6801      	ldr	r1, [r0, #0]
 8001c5e:	680a      	ldr	r2, [r1, #0]
 8001c60:	463b      	mov	r3, r7
 8001c62:	4631      	mov	r1, r6
 8001c64:	4648      	mov	r0, r9
 8001c66:	f000 fc80 	bl	800256a <cmox_ModSubBN>
 8001c6a:	69a0      	ldr	r0, [r4, #24]
 8001c6c:	6801      	ldr	r1, [r0, #0]
 8001c6e:	680a      	ldr	r2, [r1, #0]
 8001c70:	9b01      	ldr	r3, [sp, #4]
 8001c72:	4631      	mov	r1, r6
 8001c74:	4650      	mov	r0, sl
 8001c76:	f000 fbe7 	bl	8002448 <cmox_ModAddBN>
 8001c7a:	69a0      	ldr	r0, [r4, #24]
 8001c7c:	6801      	ldr	r1, [r0, #0]
 8001c7e:	680a      	ldr	r2, [r1, #0]
 8001c80:	4633      	mov	r3, r6
 8001c82:	4631      	mov	r1, r6
 8001c84:	4650      	mov	r0, sl
 8001c86:	f000 fc70 	bl	800256a <cmox_ModSubBN>
 8001c8a:	69a0      	ldr	r0, [r4, #24]
 8001c8c:	6801      	ldr	r1, [r0, #0]
 8001c8e:	680a      	ldr	r2, [r1, #0]
 8001c90:	9801      	ldr	r0, [sp, #4]
 8001c92:	4653      	mov	r3, sl
 8001c94:	4659      	mov	r1, fp
 8001c96:	f000 fc68 	bl	800256a <cmox_ModSubBN>
 8001c9a:	6a20      	ldr	r0, [r4, #32]
 8001c9c:	9901      	ldr	r1, [sp, #4]
 8001c9e:	9000      	str	r0, [sp, #0]
 8001ca0:	4623      	mov	r3, r4
 8001ca2:	465a      	mov	r2, fp
 8001ca4:	4650      	mov	r0, sl
 8001ca6:	f000 fe54 	bl	8002952 <cmox_ModularBN_Mul>
 8001caa:	6a20      	ldr	r0, [r4, #32]
 8001cac:	9000      	str	r0, [sp, #0]
 8001cae:	4623      	mov	r3, r4
 8001cb0:	464a      	mov	r2, r9
 8001cb2:	4651      	mov	r1, sl
 8001cb4:	4638      	mov	r0, r7
 8001cb6:	f000 fe4c 	bl	8002952 <cmox_ModularBN_Mul>
 8001cba:	6a20      	ldr	r0, [r4, #32]
 8001cbc:	9000      	str	r0, [sp, #0]
 8001cbe:	4623      	mov	r3, r4
 8001cc0:	9801      	ldr	r0, [sp, #4]
 8001cc2:	4652      	mov	r2, sl
 8001cc4:	4631      	mov	r1, r6
 8001cc6:	f000 fe44 	bl	8002952 <cmox_ModularBN_Mul>
 8001cca:	6a20      	ldr	r0, [r4, #32]
 8001ccc:	9000      	str	r0, [sp, #0]
 8001cce:	4623      	mov	r3, r4
 8001cd0:	4632      	mov	r2, r6
 8001cd2:	4631      	mov	r1, r6
 8001cd4:	4638      	mov	r0, r7
 8001cd6:	f000 fe3c 	bl	8002952 <cmox_ModularBN_Mul>
 8001cda:	e8bd 8ff7 	ldmia.w	sp!, {r0, r1, r2, r4, r5, r6, r7, r8, r9, sl, fp, pc}

08001cde <cmox_ECC_MONTY_Ladder_XzAff>:
 8001cde:	e92d 43f8 	stmdb	sp!, {r3, r4, r5, r6, r7, r8, r9, lr}
 8001ce2:	4604      	mov	r4, r0
 8001ce4:	4616      	mov	r6, r2
 8001ce6:	6960      	ldr	r0, [r4, #20]
 8001ce8:	f8d0 9004 	ldr.w	r9, [r0, #4]
 8001cec:	f8d0 8000 	ldr.w	r8, [r0]
 8001cf0:	69a0      	ldr	r0, [r4, #24]
 8001cf2:	6800      	ldr	r0, [r0, #0]
 8001cf4:	6802      	ldr	r2, [r0, #0]
 8001cf6:	460d      	mov	r5, r1
 8001cf8:	461f      	mov	r7, r3
 8001cfa:	68b9      	ldr	r1, [r7, #8]
 8001cfc:	6838      	ldr	r0, [r7, #0]
 8001cfe:	4643      	mov	r3, r8
 8001d00:	f000 fba2 	bl	8002448 <cmox_ModAddBN>
 8001d04:	69a0      	ldr	r0, [r4, #24]
 8001d06:	6801      	ldr	r1, [r0, #0]
 8001d08:	680a      	ldr	r2, [r1, #0]
 8001d0a:	68b9      	ldr	r1, [r7, #8]
 8001d0c:	6838      	ldr	r0, [r7, #0]
 8001d0e:	464b      	mov	r3, r9
 8001d10:	f000 fc2b 	bl	800256a <cmox_ModSubBN>
 8001d14:	69a0      	ldr	r0, [r4, #24]
 8001d16:	6801      	ldr	r1, [r0, #0]
 8001d18:	680a      	ldr	r2, [r1, #0]
 8001d1a:	683b      	ldr	r3, [r7, #0]
 8001d1c:	68b1      	ldr	r1, [r6, #8]
 8001d1e:	6830      	ldr	r0, [r6, #0]
 8001d20:	f000 fb92 	bl	8002448 <cmox_ModAddBN>
 8001d24:	69a0      	ldr	r0, [r4, #24]
 8001d26:	6801      	ldr	r1, [r0, #0]
 8001d28:	680a      	ldr	r2, [r1, #0]
 8001d2a:	68bb      	ldr	r3, [r7, #8]
 8001d2c:	68b1      	ldr	r1, [r6, #8]
 8001d2e:	6830      	ldr	r0, [r6, #0]
 8001d30:	f000 fc1b 	bl	800256a <cmox_ModSubBN>
 8001d34:	68b8      	ldr	r0, [r7, #8]
 8001d36:	6a21      	ldr	r1, [r4, #32]
 8001d38:	9100      	str	r1, [sp, #0]
 8001d3a:	4623      	mov	r3, r4
 8001d3c:	4602      	mov	r2, r0
 8001d3e:	4641      	mov	r1, r8
 8001d40:	f000 fe07 	bl	8002952 <cmox_ModularBN_Mul>
 8001d44:	6a23      	ldr	r3, [r4, #32]
 8001d46:	4622      	mov	r2, r4
 8001d48:	4641      	mov	r1, r8
 8001d4a:	4640      	mov	r0, r8
 8001d4c:	f000 fe24 	bl	8002998 <cmox_ModularBN_Sqr>
 8001d50:	6838      	ldr	r0, [r7, #0]
 8001d52:	6a21      	ldr	r1, [r4, #32]
 8001d54:	9100      	str	r1, [sp, #0]
 8001d56:	4623      	mov	r3, r4
 8001d58:	4602      	mov	r2, r0
 8001d5a:	4649      	mov	r1, r9
 8001d5c:	f000 fdf9 	bl	8002952 <cmox_ModularBN_Mul>
 8001d60:	6a23      	ldr	r3, [r4, #32]
 8001d62:	4622      	mov	r2, r4
 8001d64:	4649      	mov	r1, r9
 8001d66:	4648      	mov	r0, r9
 8001d68:	f000 fe16 	bl	8002998 <cmox_ModularBN_Sqr>
 8001d6c:	69a0      	ldr	r0, [r4, #24]
 8001d6e:	6801      	ldr	r1, [r0, #0]
 8001d70:	680a      	ldr	r2, [r1, #0]
 8001d72:	6833      	ldr	r3, [r6, #0]
 8001d74:	6839      	ldr	r1, [r7, #0]
 8001d76:	68b8      	ldr	r0, [r7, #8]
 8001d78:	f000 fb66 	bl	8002448 <cmox_ModAddBN>
 8001d7c:	69a1      	ldr	r1, [r4, #24]
 8001d7e:	680a      	ldr	r2, [r1, #0]
 8001d80:	68b8      	ldr	r0, [r7, #8]
 8001d82:	6812      	ldr	r2, [r2, #0]
 8001d84:	6839      	ldr	r1, [r7, #0]
 8001d86:	4603      	mov	r3, r0
 8001d88:	f000 fbef 	bl	800256a <cmox_ModSubBN>
 8001d8c:	6830      	ldr	r0, [r6, #0]
 8001d8e:	6a23      	ldr	r3, [r4, #32]
 8001d90:	4622      	mov	r2, r4
 8001d92:	4601      	mov	r1, r0
 8001d94:	f000 fe00 	bl	8002998 <cmox_ModularBN_Sqr>
 8001d98:	68b8      	ldr	r0, [r7, #8]
 8001d9a:	6a23      	ldr	r3, [r4, #32]
 8001d9c:	4622      	mov	r2, r4
 8001d9e:	4601      	mov	r1, r0
 8001da0:	f000 fdfa 	bl	8002998 <cmox_ModularBN_Sqr>
 8001da4:	6a20      	ldr	r0, [r4, #32]
 8001da6:	9000      	str	r0, [sp, #0]
 8001da8:	68b2      	ldr	r2, [r6, #8]
 8001daa:	68b9      	ldr	r1, [r7, #8]
 8001dac:	6828      	ldr	r0, [r5, #0]
 8001dae:	4623      	mov	r3, r4
 8001db0:	f000 fdcf 	bl	8002952 <cmox_ModularBN_Mul>
 8001db4:	6a20      	ldr	r0, [r4, #32]
 8001db6:	9000      	str	r0, [sp, #0]
 8001db8:	4623      	mov	r3, r4
 8001dba:	683a      	ldr	r2, [r7, #0]
 8001dbc:	4649      	mov	r1, r9
 8001dbe:	4640      	mov	r0, r8
 8001dc0:	f000 fdc7 	bl	8002952 <cmox_ModularBN_Mul>
 8001dc4:	69a0      	ldr	r0, [r4, #24]
 8001dc6:	6801      	ldr	r1, [r0, #0]
 8001dc8:	680a      	ldr	r2, [r1, #0]
 8001dca:	464b      	mov	r3, r9
 8001dcc:	4649      	mov	r1, r9
 8001dce:	4640      	mov	r0, r8
 8001dd0:	f000 fbcb 	bl	800256a <cmox_ModSubBN>
 8001dd4:	6a20      	ldr	r0, [r4, #32]
 8001dd6:	9000      	str	r0, [sp, #0]
 8001dd8:	4623      	mov	r3, r4
 8001dda:	69a0      	ldr	r0, [r4, #24]
 8001ddc:	6801      	ldr	r1, [r0, #0]
 8001dde:	68ba      	ldr	r2, [r7, #8]
 8001de0:	6909      	ldr	r1, [r1, #16]
 8001de2:	4648      	mov	r0, r9
 8001de4:	f000 fdb5 	bl	8002952 <cmox_ModularBN_Mul>
 8001de8:	69a0      	ldr	r0, [r4, #24]
 8001dea:	6801      	ldr	r1, [r0, #0]
 8001dec:	680a      	ldr	r2, [r1, #0]
 8001dee:	68b9      	ldr	r1, [r7, #8]
 8001df0:	4643      	mov	r3, r8
 8001df2:	4640      	mov	r0, r8
 8001df4:	f000 fb28 	bl	8002448 <cmox_ModAddBN>
 8001df8:	6a20      	ldr	r0, [r4, #32]
 8001dfa:	9000      	str	r0, [sp, #0]
 8001dfc:	4623      	mov	r3, r4
 8001dfe:	68ba      	ldr	r2, [r7, #8]
 8001e00:	4649      	mov	r1, r9
 8001e02:	4640      	mov	r0, r8
 8001e04:	f000 fda5 	bl	8002952 <cmox_ModularBN_Mul>
 8001e08:	e8bd 83f1 	ldmia.w	sp!, {r0, r4, r5, r6, r7, r8, r9, pc}

08001e0c <cmox_ECC_CompleteMADD>:
 8001e0c:	b5fe      	push	{r1, r2, r3, r4, r5, r6, r7, lr}
 8001e0e:	4606      	mov	r6, r0
 8001e10:	460c      	mov	r4, r1
 8001e12:	2000      	movs	r0, #0
 8001e14:	4617      	mov	r7, r2
 8001e16:	9001      	str	r0, [sp, #4]
 8001e18:	461d      	mov	r5, r3
 8001e1a:	6922      	ldr	r2, [r4, #16]
 8001e1c:	612a      	str	r2, [r5, #16]
 8001e1e:	2100      	movs	r1, #0
 8001e20:	7c20      	ldrb	r0, [r4, #16]
 8001e22:	f000 0001 	and.w	r0, r0, #1
 8001e26:	f000 fdf8 	bl	8002a1a <cmox_mathUtils_neq>
 8001e2a:	2801      	cmp	r0, #1
 8001e2c:	d107      	bne.n	8001e3e <cmox_ECC_CompleteMADD+0x32>
 8001e2e:	7c38      	ldrb	r0, [r7, #16]
 8001e30:	2100      	movs	r1, #0
 8001e32:	f000 0001 	and.w	r0, r0, #1
 8001e36:	f000 fdf0 	bl	8002a1a <cmox_mathUtils_neq>
 8001e3a:	2801      	cmp	r0, #1
 8001e3c:	d036      	beq.n	8001eac <cmox_ECC_CompleteMADD+0xa0>
 8001e3e:	7c20      	ldrb	r0, [r4, #16]
 8001e40:	2100      	movs	r1, #0
 8001e42:	f000 0001 	and.w	r0, r0, #1
 8001e46:	f000 fde8 	bl	8002a1a <cmox_mathUtils_neq>
 8001e4a:	2801      	cmp	r0, #1
 8001e4c:	d102      	bne.n	8001e54 <cmox_ECC_CompleteMADD+0x48>
 8001e4e:	462a      	mov	r2, r5
 8001e50:	4639      	mov	r1, r7
 8001e52:	e009      	b.n	8001e68 <cmox_ECC_CompleteMADD+0x5c>
 8001e54:	7c38      	ldrb	r0, [r7, #16]
 8001e56:	2100      	movs	r1, #0
 8001e58:	f000 0001 	and.w	r0, r0, #1
 8001e5c:	f000 fddd 	bl	8002a1a <cmox_mathUtils_neq>
 8001e60:	2801      	cmp	r0, #1
 8001e62:	d104      	bne.n	8001e6e <cmox_ECC_CompleteMADD+0x62>
 8001e64:	462a      	mov	r2, r5
 8001e66:	4621      	mov	r1, r4
 8001e68:	f7fe faac 	bl	80003c4 <cmox_ECC_CondCopyPoint>
 8001e6c:	bdf7      	pop	{r0, r1, r2, r4, r5, r6, r7, pc}
 8001e6e:	463a      	mov	r2, r7
 8001e70:	a801      	add	r0, sp, #4
 8001e72:	9000      	str	r0, [sp, #0]
 8001e74:	462b      	mov	r3, r5
 8001e76:	69b7      	ldr	r7, [r6, #24]
 8001e78:	f8d7 c004 	ldr.w	ip, [r7, #4]
 8001e7c:	f8dc 7004 	ldr.w	r7, [ip, #4]
 8001e80:	4621      	mov	r1, r4
 8001e82:	4630      	mov	r0, r6
 8001e84:	47b8      	blx	r7
 8001e86:	9801      	ldr	r0, [sp, #4]
 8001e88:	07c1      	lsls	r1, r0, #31
 8001e8a:	d513      	bpl.n	8001eb4 <cmox_ECC_CompleteMADD+0xa8>
 8001e8c:	f3c0 0040 	ubfx	r0, r0, #1, #1
 8001e90:	b160      	cbz	r0, 8001eac <cmox_ECC_CompleteMADD+0xa0>
 8001e92:	4630      	mov	r0, r6
 8001e94:	69b6      	ldr	r6, [r6, #24]
 8001e96:	6877      	ldr	r7, [r6, #4]
 8001e98:	f8d7 c000 	ldr.w	ip, [r7]
 8001e9c:	2301      	movs	r3, #1
 8001e9e:	462a      	mov	r2, r5
 8001ea0:	4621      	mov	r1, r4
 8001ea2:	47e0      	blx	ip
 8001ea4:	6920      	ldr	r0, [r4, #16]
 8001ea6:	0840      	lsrs	r0, r0, #1
 8001ea8:	0040      	lsls	r0, r0, #1
 8001eaa:	e002      	b.n	8001eb2 <cmox_ECC_CompleteMADD+0xa6>
 8001eac:	6928      	ldr	r0, [r5, #16]
 8001eae:	f040 0001 	orr.w	r0, r0, #1
 8001eb2:	6128      	str	r0, [r5, #16]
 8001eb4:	bdf7      	pop	{r0, r1, r2, r4, r5, r6, r7, pc}

08001eb6 <cmox_ECC_CompleteADD>:
 8001eb6:	b5f8      	push	{r3, r4, r5, r6, r7, lr}
 8001eb8:	460f      	mov	r7, r1
 8001eba:	4606      	mov	r6, r0
 8001ebc:	461d      	mov	r5, r3
 8001ebe:	6938      	ldr	r0, [r7, #16]
 8001ec0:	6128      	str	r0, [r5, #16]
 8001ec2:	4614      	mov	r4, r2
 8001ec4:	7c38      	ldrb	r0, [r7, #16]
 8001ec6:	2100      	movs	r1, #0
 8001ec8:	f000 0001 	and.w	r0, r0, #1
 8001ecc:	f000 fda5 	bl	8002a1a <cmox_mathUtils_neq>
 8001ed0:	2801      	cmp	r0, #1
 8001ed2:	d107      	bne.n	8001ee4 <cmox_ECC_CompleteADD+0x2e>
 8001ed4:	7c20      	ldrb	r0, [r4, #16]
 8001ed6:	2100      	movs	r1, #0
 8001ed8:	f000 0001 	and.w	r0, r0, #1
 8001edc:	f000 fd9d 	bl	8002a1a <cmox_mathUtils_neq>
 8001ee0:	2801      	cmp	r0, #1
 8001ee2:	d03b      	beq.n	8001f5c <cmox_ECC_CompleteADD+0xa6>
 8001ee4:	7c38      	ldrb	r0, [r7, #16]
 8001ee6:	2100      	movs	r1, #0
 8001ee8:	f000 0001 	and.w	r0, r0, #1
 8001eec:	f000 fd95 	bl	8002a1a <cmox_mathUtils_neq>
 8001ef0:	2801      	cmp	r0, #1
 8001ef2:	d102      	bne.n	8001efa <cmox_ECC_CompleteADD+0x44>
 8001ef4:	462a      	mov	r2, r5
 8001ef6:	4621      	mov	r1, r4
 8001ef8:	e009      	b.n	8001f0e <cmox_ECC_CompleteADD+0x58>
 8001efa:	7c20      	ldrb	r0, [r4, #16]
 8001efc:	2100      	movs	r1, #0
 8001efe:	f000 0001 	and.w	r0, r0, #1
 8001f02:	f000 fd8a 	bl	8002a1a <cmox_mathUtils_neq>
 8001f06:	2801      	cmp	r0, #1
 8001f08:	d105      	bne.n	8001f16 <cmox_ECC_CompleteADD+0x60>
 8001f0a:	462a      	mov	r2, r5
 8001f0c:	4639      	mov	r1, r7
 8001f0e:	e8bd 40f8 	ldmia.w	sp!, {r3, r4, r5, r6, r7, lr}
 8001f12:	f7fe ba57 	b.w	80003c4 <cmox_ECC_CondCopyPoint>
 8001f16:	4639      	mov	r1, r7
 8001f18:	69b7      	ldr	r7, [r6, #24]
 8001f1a:	f8d7 c004 	ldr.w	ip, [r7, #4]
 8001f1e:	f8dc 7008 	ldr.w	r7, [ip, #8]
 8001f22:	462b      	mov	r3, r5
 8001f24:	4622      	mov	r2, r4
 8001f26:	4630      	mov	r0, r6
 8001f28:	47b8      	blx	r7
 8001f2a:	68a8      	ldr	r0, [r5, #8]
 8001f2c:	2100      	movs	r1, #0
 8001f2e:	f002 fa11 	bl	8004354 <cmox_bn_cmpUint>
 8001f32:	2801      	cmp	r0, #1
 8001f34:	d116      	bne.n	8001f64 <cmox_ECC_CompleteADD+0xae>
 8001f36:	6828      	ldr	r0, [r5, #0]
 8001f38:	2100      	movs	r1, #0
 8001f3a:	f002 fa0b 	bl	8004354 <cmox_bn_cmpUint>
 8001f3e:	2801      	cmp	r0, #1
 8001f40:	d10c      	bne.n	8001f5c <cmox_ECC_CompleteADD+0xa6>
 8001f42:	4630      	mov	r0, r6
 8001f44:	69b6      	ldr	r6, [r6, #24]
 8001f46:	6877      	ldr	r7, [r6, #4]
 8001f48:	f8d7 c000 	ldr.w	ip, [r7]
 8001f4c:	2301      	movs	r3, #1
 8001f4e:	462a      	mov	r2, r5
 8001f50:	4621      	mov	r1, r4
 8001f52:	47e0      	blx	ip
 8001f54:	6920      	ldr	r0, [r4, #16]
 8001f56:	0840      	lsrs	r0, r0, #1
 8001f58:	0040      	lsls	r0, r0, #1
 8001f5a:	e002      	b.n	8001f62 <cmox_ECC_CompleteADD+0xac>
 8001f5c:	6928      	ldr	r0, [r5, #16]
 8001f5e:	f040 0001 	orr.w	r0, r0, #1
 8001f62:	6128      	str	r0, [r5, #16]
 8001f64:	bdf1      	pop	{r0, r4, r5, r6, r7, pc}

08001f66 <cmox_ECC_CompleteDBL>:
 8001f66:	b5f8      	push	{r3, r4, r5, r6, r7, lr}
 8001f68:	460e      	mov	r6, r1
 8001f6a:	4605      	mov	r5, r0
 8001f6c:	4614      	mov	r4, r2
 8001f6e:	6930      	ldr	r0, [r6, #16]
 8001f70:	6120      	str	r0, [r4, #16]
 8001f72:	2100      	movs	r1, #0
 8001f74:	7c30      	ldrb	r0, [r6, #16]
 8001f76:	f000 0001 	and.w	r0, r0, #1
 8001f7a:	f000 fd4e 	bl	8002a1a <cmox_mathUtils_neq>
 8001f7e:	2801      	cmp	r0, #1
 8001f80:	d103      	bne.n	8001f8a <cmox_ECC_CompleteDBL+0x24>
 8001f82:	6920      	ldr	r0, [r4, #16]
 8001f84:	f040 0001 	orr.w	r0, r0, #1
 8001f88:	e00a      	b.n	8001fa0 <cmox_ECC_CompleteDBL+0x3a>
 8001f8a:	4628      	mov	r0, r5
 8001f8c:	69ad      	ldr	r5, [r5, #24]
 8001f8e:	4631      	mov	r1, r6
 8001f90:	686e      	ldr	r6, [r5, #4]
 8001f92:	6837      	ldr	r7, [r6, #0]
 8001f94:	2301      	movs	r3, #1
 8001f96:	4622      	mov	r2, r4
 8001f98:	47b8      	blx	r7
 8001f9a:	6920      	ldr	r0, [r4, #16]
 8001f9c:	0840      	lsrs	r0, r0, #1
 8001f9e:	0040      	lsls	r0, r0, #1
 8001fa0:	6120      	str	r0, [r4, #16]
 8001fa2:	bdf1      	pop	{r0, r4, r5, r6, r7, pc}
 8001fa4:	0101b004 	.word	0x0101b004
 8001fa8:	45011700 	.word	0x45011700

08001fac <cmox_ecdsa_verify>:
 8001fac:	e92d 4ff8 	stmdb	sp!, {r3, r4, r5, r6, r7, r8, r9, sl, fp, lr}
 8001fb0:	b092      	sub	sp, #72	@ 0x48
 8001fb2:	2400      	movs	r4, #0
 8001fb4:	460d      	mov	r5, r1
 8001fb6:	9405      	str	r4, [sp, #20]
 8001fb8:	9404      	str	r4, [sp, #16]
 8001fba:	9408      	str	r4, [sp, #32]
 8001fbc:	9407      	str	r4, [sp, #28]
 8001fbe:	9406      	str	r4, [sp, #24]
 8001fc0:	b3a5      	cbz	r5, 800202c <cmox_ecdsa_verify+0x80>
 8001fc2:	0016      	movs	r6, r2
 8001fc4:	bf1f      	itttt	ne
 8001fc6:	9f1c      	ldrne	r7, [sp, #112]	@ 0x70
 8001fc8:	2f00      	cmpne	r7, #0
 8001fca:	f8dd 8078 	ldrne.w	r8, [sp, #120]	@ 0x78
 8001fce:	f1b8 0f00 	cmpne.w	r8, #0
 8001fd2:	d02b      	beq.n	800202c <cmox_ecdsa_verify+0x80>
 8001fd4:	0004      	movs	r4, r0
 8001fd6:	d029      	beq.n	800202c <cmox_ecdsa_verify+0x80>
 8001fd8:	6960      	ldr	r0, [r4, #20]
 8001fda:	49a4      	ldr	r1, [pc, #656]	@ (800226c <cmox_ecdsa_verify+0x2c0>)
 8001fdc:	4288      	cmp	r0, r1
 8001fde:	d125      	bne.n	800202c <cmox_ecdsa_verify+0x80>
 8001fe0:	6920      	ldr	r0, [r4, #16]
 8001fe2:	69c1      	ldr	r1, [r0, #28]
 8001fe4:	6a68      	ldr	r0, [r5, #36]	@ 0x24
 8001fe6:	4201      	tst	r1, r0
 8001fe8:	bf08      	it	eq
 8001fea:	4ea1      	ldreq	r6, [pc, #644]	@ (8002270 <cmox_ecdsa_verify+0x2c4>)
 8001fec:	d01f      	beq.n	800202e <cmox_ecdsa_verify+0x82>
 8001fee:	f895 0028 	ldrb.w	r0, [r5, #40]	@ 0x28
 8001ff2:	07c1      	lsls	r1, r0, #31
 8001ff4:	bf58      	it	pl
 8001ff6:	4e9f      	ldrpl	r6, [pc, #636]	@ (8002274 <cmox_ecdsa_verify+0x2c8>)
 8001ff8:	d57a      	bpl.n	80020f0 <cmox_ecdsa_verify+0x144>
 8001ffa:	9300      	str	r3, [sp, #0]
 8001ffc:	6829      	ldr	r1, [r5, #0]
 8001ffe:	6888      	ldr	r0, [r1, #8]
 8002000:	f002 f9be 	bl	8004380 <cmox_bn_countBits>
 8002004:	4681      	mov	r9, r0
 8002006:	f109 0007 	add.w	r0, r9, #7
 800200a:	ea4f 0ad0 	mov.w	sl, r0, lsr #3
 800200e:	6828      	ldr	r0, [r5, #0]
 8002010:	6800      	ldr	r0, [r0, #0]
 8002012:	f002 f9b5 	bl	8004380 <cmox_bn_countBits>
 8002016:	1dc0      	adds	r0, r0, #7
 8002018:	ea4f 0bd0 	mov.w	fp, r0, lsr #3
 800201c:	9800      	ldr	r0, [sp, #0]
 800201e:	ebb0 0f4b 	cmp.w	r0, fp, lsl #1
 8002022:	bf04      	itt	eq
 8002024:	981f      	ldreq	r0, [sp, #124]	@ 0x7c
 8002026:	ebb0 0f4a 	cmpeq.w	r0, sl, lsl #1
 800202a:	d001      	beq.n	8002030 <cmox_ecdsa_verify+0x84>
 800202c:	4e92      	ldr	r6, [pc, #584]	@ (8002278 <cmox_ecdsa_verify+0x2cc>)
 800202e:	e05f      	b.n	80020f0 <cmox_ecdsa_verify+0x144>
 8002030:	6923      	ldr	r3, [r4, #16]
 8002032:	4622      	mov	r2, r4
 8002034:	4629      	mov	r1, r5
 8002036:	a809      	add	r0, sp, #36	@ 0x24
 8002038:	f7fe f916 	bl	8000268 <cmox_ECC_InitCurve>
 800203c:	980f      	ldr	r0, [sp, #60]	@ 0x3c
 800203e:	4d8f      	ldr	r5, [pc, #572]	@ (800227c <cmox_ecdsa_verify+0x2d0>)
 8002040:	6801      	ldr	r1, [r0, #0]
 8002042:	688a      	ldr	r2, [r1, #8]
 8002044:	6812      	ldr	r2, [r2, #0]
 8002046:	a905      	add	r1, sp, #20
 8002048:	4620      	mov	r0, r4
 800204a:	f002 f8bf 	bl	80041cc <cmox_bn_alloc>
 800204e:	b108      	cbz	r0, 8002054 <cmox_ecdsa_verify+0xa8>
 8002050:	462e      	mov	r6, r5
 8002052:	e04d      	b.n	80020f0 <cmox_ecdsa_verify+0x144>
 8002054:	980f      	ldr	r0, [sp, #60]	@ 0x3c
 8002056:	6801      	ldr	r1, [r0, #0]
 8002058:	688a      	ldr	r2, [r1, #8]
 800205a:	6812      	ldr	r2, [r2, #0]
 800205c:	a904      	add	r1, sp, #16
 800205e:	4620      	mov	r0, r4
 8002060:	f002 f8b4 	bl	80041cc <cmox_bn_alloc>
 8002064:	b108      	cbz	r0, 800206a <cmox_ecdsa_verify+0xbe>
 8002066:	462e      	mov	r6, r5
 8002068:	e03e      	b.n	80020e8 <cmox_ecdsa_verify+0x13c>
 800206a:	980f      	ldr	r0, [sp, #60]	@ 0x3c
 800206c:	6801      	ldr	r1, [r0, #0]
 800206e:	688a      	ldr	r2, [r1, #8]
 8002070:	6812      	ldr	r2, [r2, #0]
 8002072:	a908      	add	r1, sp, #32
 8002074:	4620      	mov	r0, r4
 8002076:	f002 f8a9 	bl	80041cc <cmox_bn_alloc>
 800207a:	2800      	cmp	r0, #0
 800207c:	f040 8088 	bne.w	8002190 <cmox_ecdsa_verify+0x1e4>
 8002080:	9a05      	ldr	r2, [sp, #20]
 8002082:	4651      	mov	r1, sl
 8002084:	eb08 000a 	add.w	r0, r8, sl
 8002088:	f002 fa02 	bl	8004490 <cmox_bn_fromU8BE>
 800208c:	9805      	ldr	r0, [sp, #20]
 800208e:	2100      	movs	r1, #0
 8002090:	f002 f960 	bl	8004354 <cmox_bn_cmpUint>
 8002094:	2801      	cmp	r0, #1
 8002096:	d007      	beq.n	80020a8 <cmox_ecdsa_verify+0xfc>
 8002098:	980f      	ldr	r0, [sp, #60]	@ 0x3c
 800209a:	6801      	ldr	r1, [r0, #0]
 800209c:	9805      	ldr	r0, [sp, #20]
 800209e:	6889      	ldr	r1, [r1, #8]
 80020a0:	f002 f917 	bl	80042d2 <cmox_bn_cmp>
 80020a4:	2800      	cmp	r0, #0
 80020a6:	d401      	bmi.n	80020ac <cmox_ecdsa_verify+0x100>
 80020a8:	4e75      	ldr	r6, [pc, #468]	@ (8002280 <cmox_ecdsa_verify+0x2d4>)
 80020aa:	e015      	b.n	80020d8 <cmox_ecdsa_verify+0x12c>
 80020ac:	a809      	add	r0, sp, #36	@ 0x24
 80020ae:	f7fe f8f1 	bl	8000294 <cmox_ECC_InitCurveModDomainN>
 80020b2:	b108      	cbz	r0, 80020b8 <cmox_ecdsa_verify+0x10c>
 80020b4:	462e      	mov	r6, r5
 80020b6:	e00f      	b.n	80020d8 <cmox_ecdsa_verify+0x12c>
 80020b8:	9a11      	ldr	r2, [sp, #68]	@ 0x44
 80020ba:	9805      	ldr	r0, [sp, #20]
 80020bc:	a909      	add	r1, sp, #36	@ 0x24
 80020be:	f000 fc1e 	bl	80028fe <cmox_ModularBN_Enter>
 80020c2:	9b04      	ldr	r3, [sp, #16]
 80020c4:	9a08      	ldr	r2, [sp, #32]
 80020c6:	9905      	ldr	r1, [sp, #20]
 80020c8:	a809      	add	r0, sp, #36	@ 0x24
 80020ca:	f7fe f89f 	bl	800020c <cmox_ECC_InvertModN>
 80020ce:	b198      	cbz	r0, 80020f8 <cmox_ecdsa_verify+0x14c>
 80020d0:	462e      	mov	r6, r5
 80020d2:	a809      	add	r0, sp, #36	@ 0x24
 80020d4:	f7fe f8e6 	bl	80002a4 <cmox_ECC_DeInitCurveModDomain>
 80020d8:	a908      	add	r1, sp, #32
 80020da:	4620      	mov	r0, r4
 80020dc:	f002 f881 	bl	80041e2 <cmox_bn_free>
 80020e0:	a904      	add	r1, sp, #16
 80020e2:	4620      	mov	r0, r4
 80020e4:	f002 f87d 	bl	80041e2 <cmox_bn_free>
 80020e8:	a905      	add	r1, sp, #20
 80020ea:	4620      	mov	r0, r4
 80020ec:	f002 f879 	bl	80041e2 <cmox_bn_free>
 80020f0:	4630      	mov	r0, r6
 80020f2:	b013      	add	sp, #76	@ 0x4c
 80020f4:	e8bd 8ff0 	ldmia.w	sp!, {r4, r5, r6, r7, r8, r9, sl, fp, pc}
 80020f8:	991d      	ldr	r1, [sp, #116]	@ 0x74
 80020fa:	9a04      	ldr	r2, [sp, #16]
 80020fc:	ebb9 0fc1 	cmp.w	r9, r1, lsl #3
 8002100:	d20b      	bcs.n	800211a <cmox_ecdsa_verify+0x16e>
 8002102:	4651      	mov	r1, sl
 8002104:	4638      	mov	r0, r7
 8002106:	f002 f9c3 	bl	8004490 <cmox_bn_fromU8BE>
 800210a:	9a04      	ldr	r2, [sp, #16]
 800210c:	ebc9 09ca 	rsb	r9, r9, sl, lsl #3
 8002110:	4649      	mov	r1, r9
 8002112:	4610      	mov	r0, r2
 8002114:	f000 f96d 	bl	80023f2 <cmox_RightShiftBN>
 8002118:	e002      	b.n	8002120 <cmox_ecdsa_verify+0x174>
 800211a:	4638      	mov	r0, r7
 800211c:	f002 f9b8 	bl	8004490 <cmox_bn_fromU8BE>
 8002120:	980f      	ldr	r0, [sp, #60]	@ 0x3c
 8002122:	6801      	ldr	r1, [r0, #0]
 8002124:	9b04      	ldr	r3, [sp, #16]
 8002126:	6889      	ldr	r1, [r1, #8]
 8002128:	460a      	mov	r2, r1
 800212a:	4618      	mov	r0, r3
 800212c:	f000 fa1d 	bl	800256a <cmox_ModSubBN>
 8002130:	9811      	ldr	r0, [sp, #68]	@ 0x44
 8002132:	9a04      	ldr	r2, [sp, #16]
 8002134:	9908      	ldr	r1, [sp, #32]
 8002136:	9000      	str	r0, [sp, #0]
 8002138:	ab09      	add	r3, sp, #36	@ 0x24
 800213a:	4610      	mov	r0, r2
 800213c:	f000 fc09 	bl	8002952 <cmox_ModularBN_Mul>
 8002140:	9a05      	ldr	r2, [sp, #20]
 8002142:	4651      	mov	r1, sl
 8002144:	4640      	mov	r0, r8
 8002146:	f002 f9a3 	bl	8004490 <cmox_bn_fromU8BE>
 800214a:	9805      	ldr	r0, [sp, #20]
 800214c:	2100      	movs	r1, #0
 800214e:	f002 f901 	bl	8004354 <cmox_bn_cmpUint>
 8002152:	2801      	cmp	r0, #1
 8002154:	d007      	beq.n	8002166 <cmox_ecdsa_verify+0x1ba>
 8002156:	980f      	ldr	r0, [sp, #60]	@ 0x3c
 8002158:	6801      	ldr	r1, [r0, #0]
 800215a:	9805      	ldr	r0, [sp, #20]
 800215c:	6889      	ldr	r1, [r1, #8]
 800215e:	f002 f8b8 	bl	80042d2 <cmox_bn_cmp>
 8002162:	2800      	cmp	r0, #0
 8002164:	d401      	bmi.n	800216a <cmox_ecdsa_verify+0x1be>
 8002166:	4e46      	ldr	r6, [pc, #280]	@ (8002280 <cmox_ecdsa_verify+0x2d4>)
 8002168:	e7b3      	b.n	80020d2 <cmox_ecdsa_verify+0x126>
 800216a:	9811      	ldr	r0, [sp, #68]	@ 0x44
 800216c:	9a05      	ldr	r2, [sp, #20]
 800216e:	9908      	ldr	r1, [sp, #32]
 8002170:	9000      	str	r0, [sp, #0]
 8002172:	ab09      	add	r3, sp, #36	@ 0x24
 8002174:	4610      	mov	r0, r2
 8002176:	f000 fbec 	bl	8002952 <cmox_ModularBN_Mul>
 800217a:	a809      	add	r0, sp, #36	@ 0x24
 800217c:	f7fe f892 	bl	80002a4 <cmox_ECC_DeInitCurveModDomain>
 8002180:	a908      	add	r1, sp, #32
 8002182:	4620      	mov	r0, r4
 8002184:	f002 f82d 	bl	80041e2 <cmox_bn_free>
 8002188:	a809      	add	r0, sp, #36	@ 0x24
 800218a:	f7fe f87b 	bl	8000284 <cmox_ECC_InitCurveModDomainP>
 800218e:	b108      	cbz	r0, 8002194 <cmox_ecdsa_verify+0x1e8>
 8002190:	462e      	mov	r6, r5
 8002192:	e7a5      	b.n	80020e0 <cmox_ecdsa_verify+0x134>
 8002194:	a907      	add	r1, sp, #28
 8002196:	a809      	add	r0, sp, #36	@ 0x24
 8002198:	f7fe f887 	bl	80002aa <cmox_ECC_AllocPoint>
 800219c:	b108      	cbz	r0, 80021a2 <cmox_ecdsa_verify+0x1f6>
 800219e:	462e      	mov	r6, r5
 80021a0:	e05f      	b.n	8002262 <cmox_ecdsa_verify+0x2b6>
 80021a2:	a906      	add	r1, sp, #24
 80021a4:	a809      	add	r0, sp, #36	@ 0x24
 80021a6:	f7fe f880 	bl	80002aa <cmox_ECC_AllocPoint>
 80021aa:	b108      	cbz	r0, 80021b0 <cmox_ecdsa_verify+0x204>
 80021ac:	462e      	mov	r6, r5
 80021ae:	e054      	b.n	800225a <cmox_ecdsa_verify+0x2ae>
 80021b0:	9806      	ldr	r0, [sp, #24]
 80021b2:	6802      	ldr	r2, [r0, #0]
 80021b4:	4659      	mov	r1, fp
 80021b6:	4630      	mov	r0, r6
 80021b8:	f002 f96a 	bl	8004490 <cmox_bn_fromU8BE>
 80021bc:	9806      	ldr	r0, [sp, #24]
 80021be:	6842      	ldr	r2, [r0, #4]
 80021c0:	4659      	mov	r1, fp
 80021c2:	eb06 000b 	add.w	r0, r6, fp
 80021c6:	f002 f963 	bl	8004490 <cmox_bn_fromU8BE>
 80021ca:	9806      	ldr	r0, [sp, #24]
 80021cc:	6880      	ldr	r0, [r0, #8]
 80021ce:	2101      	movs	r1, #1
 80021d0:	f002 f833 	bl	800423a <cmox_bn_init>
 80021d4:	9806      	ldr	r0, [sp, #24]
 80021d6:	6901      	ldr	r1, [r0, #16]
 80021d8:	f041 0102 	orr.w	r1, r1, #2
 80021dc:	6101      	str	r1, [r0, #16]
 80021de:	a809      	add	r0, sp, #36	@ 0x24
 80021e0:	9e0f      	ldr	r6, [sp, #60]	@ 0x3c
 80021e2:	9907      	ldr	r1, [sp, #28]
 80021e4:	9b04      	ldr	r3, [sp, #16]
 80021e6:	9a06      	ldr	r2, [sp, #24]
 80021e8:	9100      	str	r1, [sp, #0]
 80021ea:	6977      	ldr	r7, [r6, #20]
 80021ec:	9905      	ldr	r1, [sp, #20]
 80021ee:	f8d7 c000 	ldr.w	ip, [r7]
 80021f2:	47e0      	blx	ip
 80021f4:	b118      	cbz	r0, 80021fe <cmox_ecdsa_verify+0x252>
 80021f6:	2804      	cmp	r0, #4
 80021f8:	d110      	bne.n	800221c <cmox_ecdsa_verify+0x270>
 80021fa:	4e22      	ldr	r6, [pc, #136]	@ (8002284 <cmox_ecdsa_verify+0x2d8>)
 80021fc:	e029      	b.n	8002252 <cmox_ecdsa_verify+0x2a6>
 80021fe:	9807      	ldr	r0, [sp, #28]
 8002200:	4e21      	ldr	r6, [pc, #132]	@ (8002288 <cmox_ecdsa_verify+0x2dc>)
 8002202:	7c00      	ldrb	r0, [r0, #16]
 8002204:	2100      	movs	r1, #0
 8002206:	f000 0001 	and.w	r0, r0, #1
 800220a:	f000 fc06 	bl	8002a1a <cmox_mathUtils_neq>
 800220e:	2801      	cmp	r0, #1
 8002210:	d01f      	beq.n	8002252 <cmox_ecdsa_verify+0x2a6>
 8002212:	9907      	ldr	r1, [sp, #28]
 8002214:	a809      	add	r0, sp, #36	@ 0x24
 8002216:	f7fe fafb 	bl	8000810 <cmox_ECC_PointToAffine>
 800221a:	b108      	cbz	r0, 8002220 <cmox_ecdsa_verify+0x274>
 800221c:	462e      	mov	r6, r5
 800221e:	e018      	b.n	8002252 <cmox_ecdsa_verify+0x2a6>
 8002220:	980f      	ldr	r0, [sp, #60]	@ 0x3c
 8002222:	6801      	ldr	r1, [r0, #0]
 8002224:	9807      	ldr	r0, [sp, #28]
 8002226:	6889      	ldr	r1, [r1, #8]
 8002228:	9b04      	ldr	r3, [sp, #16]
 800222a:	6800      	ldr	r0, [r0, #0]
 800222c:	460a      	mov	r2, r1
 800222e:	f000 f99c 	bl	800256a <cmox_ModSubBN>
 8002232:	9820      	ldr	r0, [sp, #128]	@ 0x80
 8002234:	4a15      	ldr	r2, [pc, #84]	@ (800228c <cmox_ecdsa_verify+0x2e0>)
 8002236:	4916      	ldr	r1, [pc, #88]	@ (8002290 <cmox_ecdsa_verify+0x2e4>)
 8002238:	6813      	ldr	r3, [r2, #0]
 800223a:	9003      	str	r0, [sp, #12]
 800223c:	9300      	str	r3, [sp, #0]
 800223e:	9602      	str	r6, [sp, #8]
 8002240:	9101      	str	r1, [sp, #4]
 8002242:	4651      	mov	r1, sl
 8002244:	9804      	ldr	r0, [sp, #16]
 8002246:	6803      	ldr	r3, [r0, #0]
 8002248:	1d02      	adds	r2, r0, #4
 800224a:	4640      	mov	r0, r8
 800224c:	f001 ff46 	bl	80040dc <cmox_utils_robustCmp>
 8002250:	4606      	mov	r6, r0
 8002252:	a906      	add	r1, sp, #24
 8002254:	a809      	add	r0, sp, #36	@ 0x24
 8002256:	f7fe f884 	bl	8000362 <cmox_ECC_FreePoint>
 800225a:	a907      	add	r1, sp, #28
 800225c:	a809      	add	r0, sp, #36	@ 0x24
 800225e:	f7fe f880 	bl	8000362 <cmox_ECC_FreePoint>
 8002262:	a809      	add	r0, sp, #36	@ 0x24
 8002264:	f7fe f81e 	bl	80002a4 <cmox_ECC_DeInitCurveModDomain>
 8002268:	e73a      	b.n	80020e0 <cmox_ecdsa_verify+0x134>
 800226a:	bf00      	nop
 800226c:	5e1caffe 	.word	0x5e1caffe
 8002270:	0006000e 	.word	0x0006000e
 8002274:	0006000f 	.word	0x0006000f
 8002278:	00060003 	.word	0x00060003
 800227c:	0006000c 	.word	0x0006000c
 8002280:	00060009 	.word	0x00060009
 8002284:	00060008 	.word	0x00060008
 8002288:	00066e93 	.word	0x00066e93
 800228c:	08009610 	.word	0x08009610
 8002290:	0006c726 	.word	0x0006c726

08002294 <cmox_hash_compute>:
 8002294:	b538      	push	{r3, r4, r5, lr}
 8002296:	460c      	mov	r4, r1
 8002298:	4611      	mov	r1, r2
 800229a:	2800      	cmp	r0, #0
 800229c:	461a      	mov	r2, r3
 800229e:	bf1c      	itt	ne
 80022a0:	6805      	ldrne	r5, [r0, #0]
 80022a2:	2d00      	cmpne	r5, #0
 80022a4:	4b07      	ldr	r3, [pc, #28]	@ (80022c4 <cmox_hash_compute+0x30>)
 80022a6:	d00a      	beq.n	80022be <cmox_hash_compute+0x2a>
 80022a8:	b14a      	cbz	r2, 80022be <cmox_hash_compute+0x2a>
 80022aa:	b904      	cbnz	r4, 80022ae <cmox_hash_compute+0x1a>
 80022ac:	b939      	cbnz	r1, 80022be <cmox_hash_compute+0x2a>
 80022ae:	9804      	ldr	r0, [sp, #16]
 80022b0:	b128      	cbz	r0, 80022be <cmox_hash_compute+0x2a>
 80022b2:	9b05      	ldr	r3, [sp, #20]
 80022b4:	9300      	str	r3, [sp, #0]
 80022b6:	4603      	mov	r3, r0
 80022b8:	4620      	mov	r0, r4
 80022ba:	47a8      	blx	r5
 80022bc:	4603      	mov	r3, r0
 80022be:	4618      	mov	r0, r3
 80022c0:	bd32      	pop	{r1, r4, r5, pc}
 80022c2:	bf00      	nop
 80022c4:	00020003 	.word	0x00020003

080022c8 <cmox_hash_common_compute>:
 80022c8:	e92d 41f0 	stmdb	sp!, {r4, r5, r6, r7, r8, lr}
 80022cc:	4604      	mov	r4, r0
 80022ce:	460e      	mov	r6, r1
 80022d0:	6821      	ldr	r1, [r4, #0]
 80022d2:	4617      	mov	r7, r2
 80022d4:	684a      	ldr	r2, [r1, #4]
 80022d6:	461d      	mov	r5, r3
 80022d8:	4790      	blx	r2
 80022da:	4680      	mov	r8, r0
 80022dc:	f5b8 3f00 	cmp.w	r8, #131072	@ 0x20000
 80022e0:	d119      	bne.n	8002316 <cmox_hash_common_compute+0x4e>
 80022e2:	6822      	ldr	r2, [r4, #0]
 80022e4:	9906      	ldr	r1, [sp, #24]
 80022e6:	6893      	ldr	r3, [r2, #8]
 80022e8:	4620      	mov	r0, r4
 80022ea:	4798      	blx	r3
 80022ec:	4680      	mov	r8, r0
 80022ee:	f5b8 3f00 	cmp.w	r8, #131072	@ 0x20000
 80022f2:	d110      	bne.n	8002316 <cmox_hash_common_compute+0x4e>
 80022f4:	6823      	ldr	r3, [r4, #0]
 80022f6:	4631      	mov	r1, r6
 80022f8:	68de      	ldr	r6, [r3, #12]
 80022fa:	463a      	mov	r2, r7
 80022fc:	4620      	mov	r0, r4
 80022fe:	47b0      	blx	r6
 8002300:	4680      	mov	r8, r0
 8002302:	f5b8 3f00 	cmp.w	r8, #131072	@ 0x20000
 8002306:	d106      	bne.n	8002316 <cmox_hash_common_compute+0x4e>
 8002308:	6823      	ldr	r3, [r4, #0]
 800230a:	9a07      	ldr	r2, [sp, #28]
 800230c:	4629      	mov	r1, r5
 800230e:	691d      	ldr	r5, [r3, #16]
 8002310:	4620      	mov	r0, r4
 8002312:	47a8      	blx	r5
 8002314:	4680      	mov	r8, r0
 8002316:	6821      	ldr	r1, [r4, #0]
 8002318:	680a      	ldr	r2, [r1, #0]
 800231a:	4620      	mov	r0, r4
 800231c:	4790      	blx	r2
 800231e:	4640      	mov	r0, r8
 8002320:	e8bd 81f0 	ldmia.w	sp!, {r4, r5, r6, r7, r8, pc}

08002324 <cmox_initialize>:
 8002324:	b538      	push	{r3, r4, r5, lr}
 8002326:	2800      	cmp	r0, #0
 8002328:	bf1c      	itt	ne
 800232a:	6801      	ldrne	r1, [r0, #0]
 800232c:	2900      	cmpne	r1, #0
 800232e:	4a18      	ldr	r2, [pc, #96]	@ (8002390 <cmox_initialize+0x6c>)
 8002330:	d123      	bne.n	800237a <cmox_initialize+0x56>
 8002332:	4b18      	ldr	r3, [pc, #96]	@ (8002394 <cmox_initialize+0x70>)
 8002334:	681c      	ldr	r4, [r3, #0]
 8002336:	f64f 71f0 	movw	r1, #65520	@ 0xfff0
 800233a:	400c      	ands	r4, r1
 800233c:	f24c 2540 	movw	r5, #49728	@ 0xc240
 8002340:	42ac      	cmp	r4, r5
 8002342:	bf1f      	itttt	ne
 8002344:	681b      	ldrne	r3, [r3, #0]
 8002346:	4019      	andne	r1, r3
 8002348:	f24c 2470 	movwne	r4, #49776	@ 0xc270
 800234c:	42a1      	cmpne	r1, r4
 800234e:	d112      	bne.n	8002376 <cmox_initialize+0x52>
 8002350:	4d11      	ldr	r5, [pc, #68]	@ (8002398 <cmox_initialize+0x74>)
 8002352:	6829      	ldr	r1, [r5, #0]
 8002354:	b979      	cbnz	r1, 8002376 <cmox_initialize+0x52>
 8002356:	4911      	ldr	r1, [pc, #68]	@ (800239c <cmox_initialize+0x78>)
 8002358:	680b      	ldr	r3, [r1, #0]
 800235a:	f3c3 030b 	ubfx	r3, r3, #0, #12
 800235e:	f5b3 6f8a 	cmp.w	r3, #1104	@ 0x450
 8002362:	bf1f      	itttt	ne
 8002364:	6809      	ldrne	r1, [r1, #0]
 8002366:	f3c1 010b 	ubfxne	r1, r1, #0, #12
 800236a:	f240 4383 	movwne	r3, #1155	@ 0x483
 800236e:	4299      	cmpne	r1, r3
 8002370:	bf04      	itt	eq
 8002372:	2101      	moveq	r1, #1
 8002374:	7011      	strbeq	r1, [r2, #0]
 8002376:	b928      	cbnz	r0, 8002384 <cmox_initialize+0x60>
 8002378:	e005      	b.n	8002386 <cmox_initialize+0x62>
 800237a:	4b09      	ldr	r3, [pc, #36]	@ (80023a0 <cmox_initialize+0x7c>)
 800237c:	4299      	cmp	r1, r3
 800237e:	bf04      	itt	eq
 8002380:	2101      	moveq	r1, #1
 8002382:	7011      	strbeq	r1, [r2, #0]
 8002384:	6840      	ldr	r0, [r0, #4]
 8002386:	e8bd 4032 	ldmia.w	sp!, {r1, r4, r5, lr}
 800238a:	f002 bc89 	b.w	8004ca0 <cmox_ll_init>
 800238e:	bf00      	nop
 8002390:	200000bc 	.word	0x200000bc
 8002394:	e000ed00 	.word	0xe000ed00
 8002398:	e0042000 	.word	0xe0042000
 800239c:	5c001000 	.word	0x5c001000
 80023a0:	48370000 	.word	0x48370000

080023a4 <cmox_red_fake_copy_in_to_out>:
 80023a4:	b510      	push	{r4, lr}
 80023a6:	2200      	movs	r2, #0
 80023a8:	e004      	b.n	80023b4 <cmox_red_fake_copy_in_to_out+0x10>
 80023aa:	f850 4022 	ldr.w	r4, [r0, r2, lsl #2]
 80023ae:	f843 4022 	str.w	r4, [r3, r2, lsl #2]
 80023b2:	1c52      	adds	r2, r2, #1
 80023b4:	428a      	cmp	r2, r1
 80023b6:	d3f8      	bcc.n	80023aa <cmox_red_fake_copy_in_to_out+0x6>
 80023b8:	bd10      	pop	{r4, pc}

080023ba <basic_type_modinv>:
 80023ba:	b5f0      	push	{r4, r5, r6, r7, lr}
 80023bc:	4603      	mov	r3, r0
 80023be:	460e      	mov	r6, r1
 80023c0:	2701      	movs	r7, #1
 80023c2:	f04f 0c03 	mov.w	ip, #3
 80023c6:	2402      	movs	r4, #2
 80023c8:	221f      	movs	r2, #31
 80023ca:	2500      	movs	r5, #0
 80023cc:	fb07 f003 	mul.w	r0, r7, r3
 80023d0:	ea0c 0000 	and.w	r0, ip, r0
 80023d4:	2100      	movs	r1, #0
 80023d6:	1b00      	subs	r0, r0, r4
 80023d8:	41a9      	sbcs	r1, r5
 80023da:	ea24 0101 	bic.w	r1, r4, r1
 80023de:	19cf      	adds	r7, r1, r7
 80023e0:	0064      	lsls	r4, r4, #1
 80023e2:	ea4f 004c 	mov.w	r0, ip, lsl #1
 80023e6:	1e52      	subs	r2, r2, #1
 80023e8:	f080 0c01 	eor.w	ip, r0, #1
 80023ec:	d1ee      	bne.n	80023cc <basic_type_modinv+0x12>
 80023ee:	6037      	str	r7, [r6, #0]
 80023f0:	bdf0      	pop	{r4, r5, r6, r7, pc}

080023f2 <cmox_RightShiftBN>:
 80023f2:	b5f0      	push	{r4, r5, r6, r7, lr}
 80023f4:	2300      	movs	r3, #0
 80023f6:	2920      	cmp	r1, #32
 80023f8:	bf28      	it	cs
 80023fa:	2301      	movcs	r3, #1
 80023fc:	d222      	bcs.n	8002444 <cmox_RightShiftBN+0x52>
 80023fe:	6814      	ldr	r4, [r2, #0]
 8002400:	6805      	ldr	r5, [r0, #0]
 8002402:	42ac      	cmp	r4, r5
 8002404:	bf38      	it	cc
 8002406:	2303      	movcc	r3, #3
 8002408:	d31c      	bcc.n	8002444 <cmox_RightShiftBN+0x52>
 800240a:	2401      	movs	r4, #1
 800240c:	e00a      	b.n	8002424 <cmox_RightShiftBN+0x32>
 800240e:	eb00 0784 	add.w	r7, r0, r4, lsl #2
 8002412:	f1c1 0e20 	rsb	lr, r1, #32
 8002416:	687f      	ldr	r7, [r7, #4]
 8002418:	fa07 f70e 	lsl.w	r7, r7, lr
 800241c:	433e      	orrs	r6, r7
 800241e:	f842 6024 	str.w	r6, [r2, r4, lsl #2]
 8002422:	462c      	mov	r4, r5
 8002424:	f850 6024 	ldr.w	r6, [r0, r4, lsl #2]
 8002428:	6807      	ldr	r7, [r0, #0]
 800242a:	40ce      	lsrs	r6, r1
 800242c:	1c65      	adds	r5, r4, #1
 800242e:	42bc      	cmp	r4, r7
 8002430:	d3ed      	bcc.n	800240e <cmox_RightShiftBN+0x1c>
 8002432:	f842 6024 	str.w	r6, [r2, r4, lsl #2]
 8002436:	e002      	b.n	800243e <cmox_RightShiftBN+0x4c>
 8002438:	f842 3025 	str.w	r3, [r2, r5, lsl #2]
 800243c:	1c6d      	adds	r5, r5, #1
 800243e:	6810      	ldr	r0, [r2, #0]
 8002440:	42a8      	cmp	r0, r5
 8002442:	d2f9      	bcs.n	8002438 <cmox_RightShiftBN+0x46>
 8002444:	4618      	mov	r0, r3
 8002446:	bdf0      	pop	{r4, r5, r6, r7, pc}

08002448 <cmox_ModAddBN>:
 8002448:	e92d 4eff 	stmdb	sp!, {r0, r1, r2, r3, r4, r5, r6, r7, r9, sl, fp, lr}
 800244c:	4682      	mov	sl, r0
 800244e:	2000      	movs	r0, #0
 8002450:	e9cd 0002 	strd	r0, r0, [sp, #8]
 8002454:	4617      	mov	r7, r2
 8002456:	469c      	mov	ip, r3
 8002458:	460e      	mov	r6, r1
 800245a:	683a      	ldr	r2, [r7, #0]
 800245c:	f8dc 3000 	ldr.w	r3, [ip]
 8002460:	2100      	movs	r1, #0
 8002462:	4293      	cmp	r3, r2
 8002464:	bf21      	itttt	cs
 8002466:	f8da b000 	ldrcs.w	fp, [sl]
 800246a:	4593      	cmpcs	fp, r2
 800246c:	6835      	ldrcs	r5, [r6, #0]
 800246e:	4295      	cmpcs	r5, r2
 8002470:	d201      	bcs.n	8002476 <cmox_ModAddBN+0x2e>
 8002472:	2003      	movs	r0, #3
 8002474:	e076      	b.n	8002564 <cmox_ModAddBN+0x11c>
 8002476:	45ab      	cmp	fp, r5
 8002478:	d303      	bcc.n	8002482 <cmox_ModAddBN+0x3a>
 800247a:	f8cd a004 	str.w	sl, [sp, #4]
 800247e:	9500      	str	r5, [sp, #0]
 8002480:	e003      	b.n	800248a <cmox_ModAddBN+0x42>
 8002482:	f8cd b000 	str.w	fp, [sp]
 8002486:	9601      	str	r6, [sp, #4]
 8002488:	46ab      	mov	fp, r5
 800248a:	455b      	cmp	r3, fp
 800248c:	bf38      	it	cc
 800248e:	469b      	movcc	fp, r3
 8002490:	f04f 0e01 	mov.w	lr, #1
 8002494:	2500      	movs	r5, #0
 8002496:	e015      	b.n	80024c4 <cmox_ModAddBN+0x7c>
 8002498:	f85a 202e 	ldr.w	r2, [sl, lr, lsl #2]
 800249c:	f856 402e 	ldr.w	r4, [r6, lr, lsl #2]
 80024a0:	1880      	adds	r0, r0, r2
 80024a2:	eb41 0905 	adc.w	r9, r1, r5
 80024a6:	1902      	adds	r2, r0, r4
 80024a8:	eb49 0305 	adc.w	r3, r9, r5
 80024ac:	f857 002e 	ldr.w	r0, [r7, lr, lsl #2]
 80024b0:	2100      	movs	r1, #0
 80024b2:	1a10      	subs	r0, r2, r0
 80024b4:	f84c 002e 	str.w	r0, [ip, lr, lsl #2]
 80024b8:	eb63 0101 	sbc.w	r1, r3, r1
 80024bc:	4608      	mov	r0, r1
 80024be:	17c9      	asrs	r1, r1, #31
 80024c0:	f10e 0e01 	add.w	lr, lr, #1
 80024c4:	683a      	ldr	r2, [r7, #0]
 80024c6:	4572      	cmp	r2, lr
 80024c8:	d2e6      	bcs.n	8002498 <cmox_ModAddBN+0x50>
 80024ca:	9c00      	ldr	r4, [sp, #0]
 80024cc:	4574      	cmp	r4, lr
 80024ce:	d31c      	bcc.n	800250a <cmox_ModAddBN+0xc2>
 80024d0:	f85a 202e 	ldr.w	r2, [sl, lr, lsl #2]
 80024d4:	f856 402e 	ldr.w	r4, [r6, lr, lsl #2]
 80024d8:	2300      	movs	r3, #0
 80024da:	2500      	movs	r5, #0
 80024dc:	1914      	adds	r4, r2, r4
 80024de:	415d      	adcs	r5, r3
 80024e0:	1900      	adds	r0, r0, r4
 80024e2:	f84c 002e 	str.w	r0, [ip, lr, lsl #2]
 80024e6:	4169      	adcs	r1, r5
 80024e8:	4608      	mov	r0, r1
 80024ea:	17c9      	asrs	r1, r1, #31
 80024ec:	f10e 0e01 	add.w	lr, lr, #1
 80024f0:	e7eb      	b.n	80024ca <cmox_ModAddBN+0x82>
 80024f2:	9c01      	ldr	r4, [sp, #4]
 80024f4:	f854 202e 	ldr.w	r2, [r4, lr, lsl #2]
 80024f8:	2300      	movs	r3, #0
 80024fa:	1880      	adds	r0, r0, r2
 80024fc:	f84c 002e 	str.w	r0, [ip, lr, lsl #2]
 8002500:	4159      	adcs	r1, r3
 8002502:	4608      	mov	r0, r1
 8002504:	17c9      	asrs	r1, r1, #31
 8002506:	f10e 0e01 	add.w	lr, lr, #1
 800250a:	45f3      	cmp	fp, lr
 800250c:	d2f1      	bcs.n	80024f2 <cmox_ModAddBN+0xaa>
 800250e:	4686      	mov	lr, r0
 8002510:	e9dd 0102 	ldrd	r0, r1, [sp, #8]
 8002514:	4666      	mov	r6, ip
 8002516:	f04f 0c01 	mov.w	ip, #1
 800251a:	2500      	movs	r5, #0
 800251c:	e010      	b.n	8002540 <cmox_ModAddBN+0xf8>
 800251e:	f857 202c 	ldr.w	r2, [r7, ip, lsl #2]
 8002522:	f856 402c 	ldr.w	r4, [r6, ip, lsl #2]
 8002526:	ea02 020e 	and.w	r2, r2, lr
 800252a:	2300      	movs	r3, #0
 800252c:	18a2      	adds	r2, r4, r2
 800252e:	416b      	adcs	r3, r5
 8002530:	1880      	adds	r0, r0, r2
 8002532:	f846 002c 	str.w	r0, [r6, ip, lsl #2]
 8002536:	4159      	adcs	r1, r3
 8002538:	4608      	mov	r0, r1
 800253a:	2100      	movs	r1, #0
 800253c:	f10c 0c01 	add.w	ip, ip, #1
 8002540:	683a      	ldr	r2, [r7, #0]
 8002542:	4562      	cmp	r2, ip
 8002544:	d2eb      	bcs.n	800251e <cmox_ModAddBN+0xd6>
 8002546:	6834      	ldr	r4, [r6, #0]
 8002548:	4564      	cmp	r4, ip
 800254a:	d30a      	bcc.n	8002562 <cmox_ModAddBN+0x11a>
 800254c:	f856 202c 	ldr.w	r2, [r6, ip, lsl #2]
 8002550:	1880      	adds	r0, r0, r2
 8002552:	f846 002c 	str.w	r0, [r6, ip, lsl #2]
 8002556:	4169      	adcs	r1, r5
 8002558:	4608      	mov	r0, r1
 800255a:	2100      	movs	r1, #0
 800255c:	f10c 0c01 	add.w	ip, ip, #1
 8002560:	e7f1      	b.n	8002546 <cmox_ModAddBN+0xfe>
 8002562:	2000      	movs	r0, #0
 8002564:	b004      	add	sp, #16
 8002566:	e8bd 8ef0 	ldmia.w	sp!, {r4, r5, r6, r7, r9, sl, fp, pc}

0800256a <cmox_ModSubBN>:
 800256a:	e92d 4ff4 	stmdb	sp!, {r2, r4, r5, r6, r7, r8, r9, sl, fp, lr}
 800256e:	b084      	sub	sp, #16
 8002570:	468e      	mov	lr, r1
 8002572:	2100      	movs	r1, #0
 8002574:	e9cd 1102 	strd	r1, r1, [sp, #8]
 8002578:	9a04      	ldr	r2, [sp, #16]
 800257a:	681c      	ldr	r4, [r3, #0]
 800257c:	6815      	ldr	r5, [r2, #0]
 800257e:	4683      	mov	fp, r0
 8002580:	42ac      	cmp	r4, r5
 8002582:	bf38      	it	cc
 8002584:	2003      	movcc	r0, #3
 8002586:	d36c      	bcc.n	8002662 <cmox_ModSubBN+0xf8>
 8002588:	f8de 5000 	ldr.w	r5, [lr]
 800258c:	f8db 9000 	ldr.w	r9, [fp]
 8002590:	45a9      	cmp	r9, r5
 8002592:	d306      	bcc.n	80025a2 <cmox_ModSubBN+0x38>
 8002594:	f8cd 9000 	str.w	r9, [sp]
 8002598:	f8cd b004 	str.w	fp, [sp, #4]
 800259c:	46a9      	mov	r9, r5
 800259e:	468c      	mov	ip, r1
 80025a0:	e004      	b.n	80025ac <cmox_ModSubBN+0x42>
 80025a2:	f8cd e004 	str.w	lr, [sp, #4]
 80025a6:	9500      	str	r5, [sp, #0]
 80025a8:	f04f 3cff 	mov.w	ip, #4294967295
 80025ac:	9d00      	ldr	r5, [sp, #0]
 80025ae:	42ac      	cmp	r4, r5
 80025b0:	bf38      	it	cc
 80025b2:	9400      	strcc	r4, [sp, #0]
 80025b4:	4698      	mov	r8, r3
 80025b6:	f04f 0a01 	mov.w	sl, #1
 80025ba:	2200      	movs	r2, #0
 80025bc:	2300      	movs	r3, #0
 80025be:	2500      	movs	r5, #0
 80025c0:	e00f      	b.n	80025e2 <cmox_ModSubBN+0x78>
 80025c2:	f85b 002a 	ldr.w	r0, [fp, sl, lsl #2]
 80025c6:	f85e 402a 	ldr.w	r4, [lr, sl, lsl #2]
 80025ca:	1816      	adds	r6, r2, r0
 80025cc:	eb43 0701 	adc.w	r7, r3, r1
 80025d0:	1b32      	subs	r2, r6, r4
 80025d2:	f848 202a 	str.w	r2, [r8, sl, lsl #2]
 80025d6:	eb67 0305 	sbc.w	r3, r7, r5
 80025da:	461a      	mov	r2, r3
 80025dc:	17db      	asrs	r3, r3, #31
 80025de:	f10a 0a01 	add.w	sl, sl, #1
 80025e2:	45d1      	cmp	r9, sl
 80025e4:	d2ed      	bcs.n	80025c2 <cmox_ModSubBN+0x58>
 80025e6:	9800      	ldr	r0, [sp, #0]
 80025e8:	4550      	cmp	r0, sl
 80025ea:	d311      	bcc.n	8002610 <cmox_ModSubBN+0xa6>
 80025ec:	9e01      	ldr	r6, [sp, #4]
 80025ee:	f856 002a 	ldr.w	r0, [r6, sl, lsl #2]
 80025f2:	ea20 040c 	bic.w	r4, r0, ip
 80025f6:	1912      	adds	r2, r2, r4
 80025f8:	416b      	adcs	r3, r5
 80025fa:	ea00 000c 	and.w	r0, r0, ip
 80025fe:	1a12      	subs	r2, r2, r0
 8002600:	f848 202a 	str.w	r2, [r8, sl, lsl #2]
 8002604:	418b      	sbcs	r3, r1
 8002606:	461a      	mov	r2, r3
 8002608:	17db      	asrs	r3, r3, #31
 800260a:	f10a 0a01 	add.w	sl, sl, #1
 800260e:	e7ea      	b.n	80025e6 <cmox_ModSubBN+0x7c>
 8002610:	e9dd 0102 	ldrd	r0, r1, [sp, #8]
 8002614:	f8dd c010 	ldr.w	ip, [sp, #16]
 8002618:	4616      	mov	r6, r2
 800261a:	2701      	movs	r7, #1
 800261c:	e00e      	b.n	800263c <cmox_ModSubBN+0xd2>
 800261e:	f85c 2027 	ldr.w	r2, [ip, r7, lsl #2]
 8002622:	f858 4027 	ldr.w	r4, [r8, r7, lsl #2]
 8002626:	4032      	ands	r2, r6
 8002628:	2300      	movs	r3, #0
 800262a:	18a2      	adds	r2, r4, r2
 800262c:	416b      	adcs	r3, r5
 800262e:	1880      	adds	r0, r0, r2
 8002630:	f848 0027 	str.w	r0, [r8, r7, lsl #2]
 8002634:	4159      	adcs	r1, r3
 8002636:	4608      	mov	r0, r1
 8002638:	2100      	movs	r1, #0
 800263a:	1c7f      	adds	r7, r7, #1
 800263c:	f8dc 2000 	ldr.w	r2, [ip]
 8002640:	42ba      	cmp	r2, r7
 8002642:	d2ec      	bcs.n	800261e <cmox_ModSubBN+0xb4>
 8002644:	f8d8 4000 	ldr.w	r4, [r8]
 8002648:	42bc      	cmp	r4, r7
 800264a:	d309      	bcc.n	8002660 <cmox_ModSubBN+0xf6>
 800264c:	f858 2027 	ldr.w	r2, [r8, r7, lsl #2]
 8002650:	1880      	adds	r0, r0, r2
 8002652:	f848 0027 	str.w	r0, [r8, r7, lsl #2]
 8002656:	4169      	adcs	r1, r5
 8002658:	4608      	mov	r0, r1
 800265a:	2100      	movs	r1, #0
 800265c:	1c7f      	adds	r7, r7, #1
 800265e:	e7f1      	b.n	8002644 <cmox_ModSubBN+0xda>
 8002660:	2000      	movs	r0, #0
 8002662:	b005      	add	sp, #20
 8002664:	e8bd 8ff0 	ldmia.w	sp!, {r4, r5, r6, r7, r8, r9, sl, fp, pc}

08002668 <cmox_SubBN>:
 8002668:	b5f0      	push	{r4, r5, r6, r7, lr}
 800266a:	6813      	ldr	r3, [r2, #0]
 800266c:	6806      	ldr	r6, [r0, #0]
 800266e:	2400      	movs	r4, #0
 8002670:	2500      	movs	r5, #0
 8002672:	42b3      	cmp	r3, r6
 8002674:	d201      	bcs.n	800267a <cmox_SubBN+0x12>
 8002676:	2003      	movs	r0, #3
 8002678:	bdf0      	pop	{r4, r5, r6, r7, pc}
 800267a:	468e      	mov	lr, r1
 800267c:	f04f 0c01 	mov.w	ip, #1
 8002680:	4606      	mov	r6, r0
 8002682:	4617      	mov	r7, r2
 8002684:	2100      	movs	r1, #0
 8002686:	e00f      	b.n	80026a8 <cmox_SubBN+0x40>
 8002688:	f856 202c 	ldr.w	r2, [r6, ip, lsl #2]
 800268c:	f85e 002c 	ldr.w	r0, [lr, ip, lsl #2]
 8002690:	2300      	movs	r3, #0
 8002692:	18a2      	adds	r2, r4, r2
 8002694:	416b      	adcs	r3, r5
 8002696:	1a14      	subs	r4, r2, r0
 8002698:	f847 402c 	str.w	r4, [r7, ip, lsl #2]
 800269c:	eb63 0501 	sbc.w	r5, r3, r1
 80026a0:	462c      	mov	r4, r5
 80026a2:	17ed      	asrs	r5, r5, #31
 80026a4:	f10c 0c01 	add.w	ip, ip, #1
 80026a8:	f8de 0000 	ldr.w	r0, [lr]
 80026ac:	4560      	cmp	r0, ip
 80026ae:	d2eb      	bcs.n	8002688 <cmox_SubBN+0x20>
 80026b0:	6832      	ldr	r2, [r6, #0]
 80026b2:	4562      	cmp	r2, ip
 80026b4:	d30a      	bcc.n	80026cc <cmox_SubBN+0x64>
 80026b6:	f856 002c 	ldr.w	r0, [r6, ip, lsl #2]
 80026ba:	1824      	adds	r4, r4, r0
 80026bc:	f847 402c 	str.w	r4, [r7, ip, lsl #2]
 80026c0:	414d      	adcs	r5, r1
 80026c2:	462c      	mov	r4, r5
 80026c4:	17ed      	asrs	r5, r5, #31
 80026c6:	f10c 0c01 	add.w	ip, ip, #1
 80026ca:	e7f1      	b.n	80026b0 <cmox_SubBN+0x48>
 80026cc:	2000      	movs	r0, #0
 80026ce:	bdf0      	pop	{r4, r5, r6, r7, pc}

080026d0 <cmox_AddBN_Int>:
 80026d0:	b5f0      	push	{r4, r5, r6, r7, lr}
 80026d2:	4604      	mov	r4, r0
 80026d4:	4615      	mov	r5, r2
 80026d6:	6866      	ldr	r6, [r4, #4]
 80026d8:	2700      	movs	r7, #0
 80026da:	1872      	adds	r2, r6, r1
 80026dc:	606a      	str	r2, [r5, #4]
 80026de:	eb47 73e1 	adc.w	r3, r7, r1, asr #31
 80026e2:	461a      	mov	r2, r3
 80026e4:	17db      	asrs	r3, r3, #31
 80026e6:	2602      	movs	r6, #2
 80026e8:	e008      	b.n	80026fc <cmox_AddBN_Int+0x2c>
 80026ea:	f854 0026 	ldr.w	r0, [r4, r6, lsl #2]
 80026ee:	1812      	adds	r2, r2, r0
 80026f0:	f845 2026 	str.w	r2, [r5, r6, lsl #2]
 80026f4:	417b      	adcs	r3, r7
 80026f6:	461a      	mov	r2, r3
 80026f8:	17db      	asrs	r3, r3, #31
 80026fa:	1c76      	adds	r6, r6, #1
 80026fc:	6820      	ldr	r0, [r4, #0]
 80026fe:	42b0      	cmp	r0, r6
 8002700:	d2f3      	bcs.n	80026ea <cmox_AddBN_Int+0x1a>
 8002702:	4610      	mov	r0, r2
 8002704:	4252      	negs	r2, r2
 8002706:	ea22 0000 	bic.w	r0, r2, r0
 800270a:	0fc0      	lsrs	r0, r0, #31
 800270c:	bdf0      	pop	{r4, r5, r6, r7, pc}

0800270e <cmox_FieldBN_Div2>:
 800270e:	e92d 45f0 	stmdb	sp!, {r4, r5, r6, r7, r8, sl, lr}
 8002712:	4615      	mov	r5, r2
 8002714:	6842      	ldr	r2, [r0, #4]
 8002716:	468e      	mov	lr, r1
 8002718:	f002 0601 	and.w	r6, r2, #1
 800271c:	6801      	ldr	r1, [r0, #0]
 800271e:	f8de 3000 	ldr.w	r3, [lr]
 8002722:	4276      	negs	r6, r6
 8002724:	4299      	cmp	r1, r3
 8002726:	d102      	bne.n	800272e <cmox_FieldBN_Div2+0x20>
 8002728:	682c      	ldr	r4, [r5, #0]
 800272a:	428c      	cmp	r4, r1
 800272c:	d201      	bcs.n	8002732 <cmox_FieldBN_Div2+0x24>
 800272e:	2001      	movs	r0, #1
 8002730:	e03d      	b.n	80027ae <cmox_FieldBN_Div2+0xa0>
 8002732:	f8de 7004 	ldr.w	r7, [lr, #4]
 8002736:	2300      	movs	r3, #0
 8002738:	4037      	ands	r7, r6
 800273a:	2400      	movs	r4, #0
 800273c:	19d2      	adds	r2, r2, r7
 800273e:	4163      	adcs	r3, r4
 8002740:	4604      	mov	r4, r0
 8002742:	606a      	str	r2, [r5, #4]
 8002744:	2100      	movs	r1, #0
 8002746:	f04f 0802 	mov.w	r8, #2
 800274a:	4618      	mov	r0, r3
 800274c:	e018      	b.n	8002780 <cmox_FieldBN_Div2+0x72>
 800274e:	4607      	mov	r7, r0
 8002750:	f85e 0028 	ldr.w	r0, [lr, r8, lsl #2]
 8002754:	f854 2028 	ldr.w	r2, [r4, r8, lsl #2]
 8002758:	2300      	movs	r3, #0
 800275a:	4030      	ands	r0, r6
 800275c:	1810      	adds	r0, r2, r0
 800275e:	4159      	adcs	r1, r3
 8002760:	1838      	adds	r0, r7, r0
 8002762:	f845 0028 	str.w	r0, [r5, r8, lsl #2]
 8002766:	4159      	adcs	r1, r3
 8002768:	f855 3028 	ldr.w	r3, [r5, r8, lsl #2]
 800276c:	f85c 2c04 	ldr.w	r2, [ip, #-4]
 8002770:	07db      	lsls	r3, r3, #31
 8002772:	4608      	mov	r0, r1
 8002774:	ea43 0352 	orr.w	r3, r3, r2, lsr #1
 8002778:	2100      	movs	r1, #0
 800277a:	f84c 3c04 	str.w	r3, [ip, #-4]
 800277e:	46d0      	mov	r8, sl
 8002780:	6822      	ldr	r2, [r4, #0]
 8002782:	4542      	cmp	r2, r8
 8002784:	eb05 0c88 	add.w	ip, r5, r8, lsl #2
 8002788:	f108 0a01 	add.w	sl, r8, #1
 800278c:	d2df      	bcs.n	800274e <cmox_FieldBN_Div2+0x40>
 800278e:	f85c 3c04 	ldr.w	r3, [ip, #-4]
 8002792:	07c0      	lsls	r0, r0, #31
 8002794:	ea40 0053 	orr.w	r0, r0, r3, lsr #1
 8002798:	f84c 0c04 	str.w	r0, [ip, #-4]
 800279c:	e003      	b.n	80027a6 <cmox_FieldBN_Div2+0x98>
 800279e:	f845 102a 	str.w	r1, [r5, sl, lsl #2]
 80027a2:	f10a 0a01 	add.w	sl, sl, #1
 80027a6:	6828      	ldr	r0, [r5, #0]
 80027a8:	4550      	cmp	r0, sl
 80027aa:	d2f8      	bcs.n	800279e <cmox_FieldBN_Div2+0x90>
 80027ac:	2000      	movs	r0, #0
 80027ae:	e8bd 85f0 	ldmia.w	sp!, {r4, r5, r6, r7, r8, sl, pc}

080027b2 <cmox_FieldBN_Mul2>:
 80027b2:	e92d 47f0 	stmdb	sp!, {r4, r5, r6, r7, r8, r9, sl, lr}
 80027b6:	4690      	mov	r8, r2
 80027b8:	6802      	ldr	r2, [r0, #0]
 80027ba:	680b      	ldr	r3, [r1, #0]
 80027bc:	429a      	cmp	r2, r3
 80027be:	d103      	bne.n	80027c8 <cmox_FieldBN_Mul2+0x16>
 80027c0:	f8d8 4000 	ldr.w	r4, [r8]
 80027c4:	4294      	cmp	r4, r2
 80027c6:	d201      	bcs.n	80027cc <cmox_FieldBN_Mul2+0x1a>
 80027c8:	2001      	movs	r0, #1
 80027ca:	e04f      	b.n	800286c <cmox_FieldBN_Mul2+0xba>
 80027cc:	6844      	ldr	r4, [r0, #4]
 80027ce:	684a      	ldr	r2, [r1, #4]
 80027d0:	0064      	lsls	r4, r4, #1
 80027d2:	2300      	movs	r3, #0
 80027d4:	f04f 0900 	mov.w	r9, #0
 80027d8:	1aa2      	subs	r2, r4, r2
 80027da:	eb69 0303 	sbc.w	r3, r9, r3
 80027de:	4615      	mov	r5, r2
 80027e0:	461a      	mov	r2, r3
 80027e2:	17db      	asrs	r3, r3, #31
 80027e4:	2702      	movs	r7, #2
 80027e6:	4684      	mov	ip, r0
 80027e8:	468e      	mov	lr, r1
 80027ea:	e018      	b.n	800281e <cmox_FieldBN_Mul2+0x6c>
 80027ec:	eb0c 0487 	add.w	r4, ip, r7, lsl #2
 80027f0:	f854 0c04 	ldr.w	r0, [r4, #-4]
 80027f4:	f85c 1027 	ldr.w	r1, [ip, r7, lsl #2]
 80027f8:	f85e 4027 	ldr.w	r4, [lr, r7, lsl #2]
 80027fc:	0fc0      	lsrs	r0, r0, #31
 80027fe:	ea40 0041 	orr.w	r0, r0, r1, lsl #1
 8002802:	1816      	adds	r6, r2, r0
 8002804:	eb08 0087 	add.w	r0, r8, r7, lsl #2
 8002808:	eb43 0a09 	adc.w	sl, r3, r9
 800280c:	f840 5c04 	str.w	r5, [r0, #-4]
 8002810:	1b32      	subs	r2, r6, r4
 8002812:	eb6a 0309 	sbc.w	r3, sl, r9
 8002816:	4615      	mov	r5, r2
 8002818:	461a      	mov	r2, r3
 800281a:	17db      	asrs	r3, r3, #31
 800281c:	1c7f      	adds	r7, r7, #1
 800281e:	f8dc 0000 	ldr.w	r0, [ip]
 8002822:	42b8      	cmp	r0, r7
 8002824:	d2e2      	bcs.n	80027ec <cmox_FieldBN_Mul2+0x3a>
 8002826:	4646      	mov	r6, r8
 8002828:	4664      	mov	r4, ip
 800282a:	46c8      	mov	r8, r9
 800282c:	f854 1020 	ldr.w	r1, [r4, r0, lsl #2]
 8002830:	f846 5020 	str.w	r5, [r6, r0, lsl #2]
 8002834:	eb02 73d1 	add.w	r3, r2, r1, lsr #31
 8002838:	2500      	movs	r5, #0
 800283a:	f04f 0c01 	mov.w	ip, #1
 800283e:	e011      	b.n	8002864 <cmox_FieldBN_Mul2+0xb2>
 8002840:	f85e 002c 	ldr.w	r0, [lr, ip, lsl #2]
 8002844:	f856 202c 	ldr.w	r2, [r6, ip, lsl #2]
 8002848:	4018      	ands	r0, r3
 800284a:	2100      	movs	r1, #0
 800284c:	1810      	adds	r0, r2, r0
 800284e:	eb49 0101 	adc.w	r1, r9, r1
 8002852:	eb18 0000 	adds.w	r0, r8, r0
 8002856:	414d      	adcs	r5, r1
 8002858:	f846 002c 	str.w	r0, [r6, ip, lsl #2]
 800285c:	46a8      	mov	r8, r5
 800285e:	17ed      	asrs	r5, r5, #31
 8002860:	f10c 0c01 	add.w	ip, ip, #1
 8002864:	6820      	ldr	r0, [r4, #0]
 8002866:	4560      	cmp	r0, ip
 8002868:	d2ea      	bcs.n	8002840 <cmox_FieldBN_Mul2+0x8e>
 800286a:	2000      	movs	r0, #0
 800286c:	e8bd 87f0 	ldmia.w	sp!, {r4, r5, r6, r7, r8, r9, sl, pc}

08002870 <cmox_FieldBN_CondNegate>:
 8002870:	e92d 43f8 	stmdb	sp!, {r3, r4, r5, r6, r7, r8, r9, lr}
 8002874:	2400      	movs	r4, #0
 8002876:	2500      	movs	r5, #0
 8002878:	2900      	cmp	r1, #0
 800287a:	bf18      	it	ne
 800287c:	2a00      	cmpne	r2, #0
 800287e:	d003      	beq.n	8002888 <cmox_FieldBN_CondNegate+0x18>
 8002880:	680b      	ldr	r3, [r1, #0]
 8002882:	6816      	ldr	r6, [r2, #0]
 8002884:	42b3      	cmp	r3, r6
 8002886:	d201      	bcs.n	800288c <cmox_FieldBN_CondNegate+0x1c>
 8002888:	2001      	movs	r0, #1
 800288a:	e01d      	b.n	80028c8 <cmox_FieldBN_CondNegate+0x58>
 800288c:	2701      	movs	r7, #1
 800288e:	4681      	mov	r9, r0
 8002890:	460e      	mov	r6, r1
 8002892:	4690      	mov	r8, r2
 8002894:	e013      	b.n	80028be <cmox_FieldBN_CondNegate+0x4e>
 8002896:	f858 0027 	ldr.w	r0, [r8, r7, lsl #2]
 800289a:	f856 2027 	ldr.w	r2, [r6, r7, lsl #2]
 800289e:	2100      	movs	r1, #0
 80028a0:	1820      	adds	r0, r4, r0
 80028a2:	4169      	adcs	r1, r5
 80028a4:	2300      	movs	r3, #0
 80028a6:	1a84      	subs	r4, r0, r2
 80028a8:	eb61 0503 	sbc.w	r5, r1, r3
 80028ac:	4621      	mov	r1, r4
 80028ae:	4648      	mov	r0, r9
 80028b0:	f000 f8ab 	bl	8002a0a <cmox_mathUtils_mux>
 80028b4:	f846 0027 	str.w	r0, [r6, r7, lsl #2]
 80028b8:	462c      	mov	r4, r5
 80028ba:	17ed      	asrs	r5, r5, #31
 80028bc:	1c7f      	adds	r7, r7, #1
 80028be:	f8d8 0000 	ldr.w	r0, [r8]
 80028c2:	42b8      	cmp	r0, r7
 80028c4:	d2e7      	bcs.n	8002896 <cmox_FieldBN_CondNegate+0x26>
 80028c6:	2000      	movs	r0, #0
 80028c8:	e8bd 83f2 	ldmia.w	sp!, {r1, r4, r5, r6, r7, r8, r9, pc}

080028cc <cmox_ModularBN_InitWithR2>:
 80028cc:	b5f8      	push	{r3, r4, r5, r6, r7, lr}
 80028ce:	4617      	mov	r7, r2
 80028d0:	4605      	mov	r5, r0
 80028d2:	460e      	mov	r6, r1
 80028d4:	682a      	ldr	r2, [r5, #0]
 80028d6:	4618      	mov	r0, r3
 80028d8:	0052      	lsls	r2, r2, #1
 80028da:	f107 0108 	add.w	r1, r7, #8
 80028de:	f001 fc75 	bl	80041cc <cmox_bn_alloc>
 80028e2:	0004      	movs	r4, r0
 80028e4:	d109      	bne.n	80028fa <cmox_ModularBN_InitWithR2+0x2e>
 80028e6:	607e      	str	r6, [r7, #4]
 80028e8:	603d      	str	r5, [r7, #0]
 80028ea:	f107 010c 	add.w	r1, r7, #12
 80028ee:	6868      	ldr	r0, [r5, #4]
 80028f0:	f7ff fd63 	bl	80023ba <basic_type_modinv>
 80028f4:	68f8      	ldr	r0, [r7, #12]
 80028f6:	4240      	negs	r0, r0
 80028f8:	60f8      	str	r0, [r7, #12]
 80028fa:	4620      	mov	r0, r4
 80028fc:	bdf2      	pop	{r1, r4, r5, r6, r7, pc}

080028fe <cmox_ModularBN_Enter>:
 80028fe:	b580      	push	{r7, lr}
 8002900:	460b      	mov	r3, r1
 8002902:	9200      	str	r2, [sp, #0]
 8002904:	4602      	mov	r2, r0
 8002906:	6859      	ldr	r1, [r3, #4]
 8002908:	f000 f823 	bl	8002952 <cmox_ModularBN_Mul>
 800290c:	bd02      	pop	{r1, pc}

0800290e <cmox_ModularBN_Exit>:
 800290e:	e92d 41fc 	stmdb	sp!, {r2, r3, r4, r5, r6, r7, r8, lr}
 8002912:	461f      	mov	r7, r3
 8002914:	4605      	mov	r5, r0
 8002916:	2300      	movs	r3, #0
 8002918:	4690      	mov	r8, r2
 800291a:	9301      	str	r3, [sp, #4]
 800291c:	460e      	mov	r6, r1
 800291e:	682a      	ldr	r2, [r5, #0]
 8002920:	a901      	add	r1, sp, #4
 8002922:	4640      	mov	r0, r8
 8002924:	f001 fc52 	bl	80041cc <cmox_bn_alloc>
 8002928:	0004      	movs	r4, r0
 800292a:	d10f      	bne.n	800294c <cmox_ModularBN_Exit+0x3e>
 800292c:	9801      	ldr	r0, [sp, #4]
 800292e:	2101      	movs	r1, #1
 8002930:	f001 fc83 	bl	800423a <cmox_bn_init>
 8002934:	9700      	str	r7, [sp, #0]
 8002936:	4633      	mov	r3, r6
 8002938:	9901      	ldr	r1, [sp, #4]
 800293a:	462a      	mov	r2, r5
 800293c:	4628      	mov	r0, r5
 800293e:	f000 f808 	bl	8002952 <cmox_ModularBN_Mul>
 8002942:	4604      	mov	r4, r0
 8002944:	a901      	add	r1, sp, #4
 8002946:	4640      	mov	r0, r8
 8002948:	f001 fc4b 	bl	80041e2 <cmox_bn_free>
 800294c:	4620      	mov	r0, r4
 800294e:	e8bd 81f6 	ldmia.w	sp!, {r1, r2, r4, r5, r6, r7, r8, pc}

08002952 <cmox_ModularBN_Mul>:
 8002952:	b5fe      	push	{r1, r2, r3, r4, r5, r6, r7, lr}
 8002954:	461d      	mov	r5, r3
 8002956:	4614      	mov	r4, r2
 8002958:	682a      	ldr	r2, [r5, #0]
 800295a:	6823      	ldr	r3, [r4, #0]
 800295c:	6816      	ldr	r6, [r2, #0]
 800295e:	42b3      	cmp	r3, r6
 8002960:	d201      	bcs.n	8002966 <cmox_ModularBN_Mul+0x14>
 8002962:	2003      	movs	r0, #3
 8002964:	bdfe      	pop	{r1, r2, r3, r4, r5, r6, r7, pc}
 8002966:	68eb      	ldr	r3, [r5, #12]
 8002968:	9f08      	ldr	r7, [sp, #32]
 800296a:	9301      	str	r3, [sp, #4]
 800296c:	1d12      	adds	r2, r2, #4
 800296e:	9200      	str	r2, [sp, #0]
 8002970:	1d09      	adds	r1, r1, #4
 8002972:	68aa      	ldr	r2, [r5, #8]
 8002974:	f8d7 c000 	ldr.w	ip, [r7]
 8002978:	1d13      	adds	r3, r2, #4
 800297a:	4632      	mov	r2, r6
 800297c:	1d00      	adds	r0, r0, #4
 800297e:	47e0      	blx	ip
 8002980:	68e8      	ldr	r0, [r5, #12]
 8002982:	9000      	str	r0, [sp, #0]
 8002984:	1d23      	adds	r3, r4, #4
 8002986:	6829      	ldr	r1, [r5, #0]
 8002988:	68a8      	ldr	r0, [r5, #8]
 800298a:	687c      	ldr	r4, [r7, #4]
 800298c:	1d0a      	adds	r2, r1, #4
 800298e:	4631      	mov	r1, r6
 8002990:	1d00      	adds	r0, r0, #4
 8002992:	47a0      	blx	r4
 8002994:	2000      	movs	r0, #0
 8002996:	bdfe      	pop	{r1, r2, r3, r4, r5, r6, r7, pc}

08002998 <cmox_ModularBN_Sqr>:
 8002998:	b5f8      	push	{r3, r4, r5, r6, r7, lr}
 800299a:	4615      	mov	r5, r2
 800299c:	460c      	mov	r4, r1
 800299e:	6829      	ldr	r1, [r5, #0]
 80029a0:	6822      	ldr	r2, [r4, #0]
 80029a2:	680e      	ldr	r6, [r1, #0]
 80029a4:	42b2      	cmp	r2, r6
 80029a6:	461f      	mov	r7, r3
 80029a8:	d201      	bcs.n	80029ae <cmox_ModularBN_Sqr+0x16>
 80029aa:	2003      	movs	r0, #3
 80029ac:	bdf2      	pop	{r1, r4, r5, r6, r7, pc}
 80029ae:	68ea      	ldr	r2, [r5, #12]
 80029b0:	9200      	str	r2, [sp, #0]
 80029b2:	1d0b      	adds	r3, r1, #4
 80029b4:	68a9      	ldr	r1, [r5, #8]
 80029b6:	f8d7 c008 	ldr.w	ip, [r7, #8]
 80029ba:	1d0a      	adds	r2, r1, #4
 80029bc:	4631      	mov	r1, r6
 80029be:	1d00      	adds	r0, r0, #4
 80029c0:	47e0      	blx	ip
 80029c2:	68e8      	ldr	r0, [r5, #12]
 80029c4:	9000      	str	r0, [sp, #0]
 80029c6:	1d23      	adds	r3, r4, #4
 80029c8:	6829      	ldr	r1, [r5, #0]
 80029ca:	68a8      	ldr	r0, [r5, #8]
 80029cc:	68fc      	ldr	r4, [r7, #12]
 80029ce:	1d0a      	adds	r2, r1, #4
 80029d0:	4631      	mov	r1, r6
 80029d2:	1d00      	adds	r0, r0, #4
 80029d4:	47a0      	blx	r4
 80029d6:	2000      	movs	r0, #0
 80029d8:	bdf2      	pop	{r1, r4, r5, r6, r7, pc}

080029da <cmox_ModularBN_DeinitWithR2>:
 80029da:	460a      	mov	r2, r1
 80029dc:	2100      	movs	r1, #0
 80029de:	6001      	str	r1, [r0, #0]
 80029e0:	60c1      	str	r1, [r0, #12]
 80029e2:	6881      	ldr	r1, [r0, #8]
 80029e4:	b121      	cbz	r1, 80029f0 <cmox_ModularBN_DeinitWithR2+0x16>
 80029e6:	f100 0108 	add.w	r1, r0, #8
 80029ea:	4610      	mov	r0, r2
 80029ec:	f001 bbf9 	b.w	80041e2 <cmox_bn_free>
 80029f0:	4770      	bx	lr

080029f2 <cmox_asm_montymul_x128__sqr>:
 80029f2:	b510      	push	{r4, lr}
 80029f4:	b082      	sub	sp, #8
 80029f6:	9300      	str	r3, [sp, #0]
 80029f8:	4613      	mov	r3, r2
 80029fa:	9c04      	ldr	r4, [sp, #16]
 80029fc:	9401      	str	r4, [sp, #4]
 80029fe:	460a      	mov	r2, r1
 8002a00:	4601      	mov	r1, r0
 8002a02:	f001 fdd4 	bl	80045ae <cmox_asm_montymul_x128>
 8002a06:	b002      	add	sp, #8
 8002a08:	bd10      	pop	{r4, pc}

08002a0a <cmox_mathUtils_mux>:
 8002a0a:	4240      	negs	r0, r0
 8002a0c:	4051      	eors	r1, r2
 8002a0e:	4008      	ands	r0, r1
 8002a10:	4050      	eors	r0, r2
 8002a12:	4770      	bx	lr

08002a14 <cmox_mathUtils_not>:
 8002a14:	f080 0001 	eor.w	r0, r0, #1
 8002a18:	4770      	bx	lr

08002a1a <cmox_mathUtils_neq>:
 8002a1a:	4048      	eors	r0, r1
 8002a1c:	4241      	negs	r1, r0
 8002a1e:	4308      	orrs	r0, r1
 8002a20:	0fc0      	lsrs	r0, r0, #31
 8002a22:	4770      	bx	lr

08002a24 <cmox_mathUtils_gt>:
 8002a24:	1a0a      	subs	r2, r1, r0
 8002a26:	4041      	eors	r1, r0
 8002a28:	4050      	eors	r0, r2
 8002a2a:	4008      	ands	r0, r1
 8002a2c:	4050      	eors	r0, r2
 8002a2e:	0fc0      	lsrs	r0, r0, #31
 8002a30:	4770      	bx	lr

08002a32 <cmox_mathUtils_bitLength>:
 8002a32:	b510      	push	{r4, lr}
 8002a34:	4601      	mov	r1, r0
 8002a36:	2020      	movs	r0, #32
 8002a38:	2201      	movs	r2, #1
 8002a3a:	231f      	movs	r3, #31
 8002a3c:	fa21 f403 	lsr.w	r4, r1, r3
 8002a40:	f004 0401 	and.w	r4, r4, #1
 8002a44:	f084 0401 	eor.w	r4, r4, #1
 8002a48:	4022      	ands	r2, r4
 8002a4a:	1a80      	subs	r0, r0, r2
 8002a4c:	1e5b      	subs	r3, r3, #1
 8002a4e:	f113 0f01 	cmn.w	r3, #1
 8002a52:	d1f3      	bne.n	8002a3c <cmox_mathUtils_bitLength+0xa>
 8002a54:	bd10      	pop	{r4, pc}

08002a56 <cmox_mathUtils_abs>:
 8002a56:	4601      	mov	r1, r0
 8002a58:	4248      	negs	r0, r1
 8002a5a:	ea01 72e0 	and.w	r2, r1, r0, asr #31
 8002a5e:	ea00 70e1 	and.w	r0, r0, r1, asr #31
 8002a62:	4310      	orrs	r0, r2
 8002a64:	4770      	bx	lr

08002a66 <cmox_membuf_init>:
 8002a66:	2300      	movs	r3, #0

08002a68 <cmox_membuf_set>:
 8002a68:	2900      	cmp	r1, #0
 8002a6a:	bf18      	it	ne
 8002a6c:	2a00      	cmpne	r2, #0
 8002a6e:	d004      	beq.n	8002a7a <cmox_membuf_set+0x12>
 8002a70:	6001      	str	r1, [r0, #0]
 8002a72:	6042      	str	r2, [r0, #4]
 8002a74:	2100      	movs	r1, #0
 8002a76:	6083      	str	r3, [r0, #8]
 8002a78:	60c1      	str	r1, [r0, #12]
 8002a7a:	4770      	bx	lr

08002a7c <cmox_membuf_getFree>:
 8002a7c:	4601      	mov	r1, r0
 8002a7e:	6848      	ldr	r0, [r1, #4]
 8002a80:	6889      	ldr	r1, [r1, #8]
 8002a82:	1a40      	subs	r0, r0, r1
 8002a84:	4770      	bx	lr

08002a86 <cmox_membuf_alloc>:
 8002a86:	b520      	push	{r5, lr}
 8002a88:	b111      	cbz	r1, 8002a90 <cmox_membuf_alloc+0xa>
 8002a8a:	b91a      	cbnz	r2, 8002a94 <cmox_membuf_alloc+0xe>
 8002a8c:	2000      	movs	r0, #0
 8002a8e:	6008      	str	r0, [r1, #0]
 8002a90:	2001      	movs	r0, #1
 8002a92:	bd20      	pop	{r5, pc}
 8002a94:	6883      	ldr	r3, [r0, #8]
 8002a96:	6845      	ldr	r5, [r0, #4]
 8002a98:	1cd2      	adds	r2, r2, #3
 8002a9a:	0892      	lsrs	r2, r2, #2
 8002a9c:	eb03 0282 	add.w	r2, r3, r2, lsl #2
 8002aa0:	4295      	cmp	r5, r2
 8002aa2:	d203      	bcs.n	8002aac <cmox_membuf_alloc+0x26>
 8002aa4:	2000      	movs	r0, #0
 8002aa6:	6008      	str	r0, [r1, #0]
 8002aa8:	2002      	movs	r0, #2
 8002aaa:	bd20      	pop	{r5, pc}
 8002aac:	6805      	ldr	r5, [r0, #0]
 8002aae:	442b      	add	r3, r5
 8002ab0:	600b      	str	r3, [r1, #0]
 8002ab2:	6082      	str	r2, [r0, #8]
 8002ab4:	4611      	mov	r1, r2
 8002ab6:	68c2      	ldr	r2, [r0, #12]
 8002ab8:	4291      	cmp	r1, r2
 8002aba:	bf38      	it	cc
 8002abc:	4611      	movcc	r1, r2
 8002abe:	60c1      	str	r1, [r0, #12]
 8002ac0:	2000      	movs	r0, #0
 8002ac2:	bd20      	pop	{r5, pc}

08002ac4 <cmox_membuf_free>:
 8002ac4:	b510      	push	{r4, lr}
 8002ac6:	4604      	mov	r4, r0
 8002ac8:	2000      	movs	r0, #0
 8002aca:	2900      	cmp	r1, #0
 8002acc:	bf1c      	itt	ne
 8002ace:	680b      	ldrne	r3, [r1, #0]
 8002ad0:	2b00      	cmpne	r3, #0
 8002ad2:	d003      	beq.n	8002adc <cmox_membuf_free+0x18>
 8002ad4:	b112      	cbz	r2, 8002adc <cmox_membuf_free+0x18>
 8002ad6:	68a3      	ldr	r3, [r4, #8]
 8002ad8:	4293      	cmp	r3, r2
 8002ada:	d201      	bcs.n	8002ae0 <cmox_membuf_free+0x1c>
 8002adc:	2001      	movs	r0, #1
 8002ade:	bd10      	pop	{r4, pc}
 8002ae0:	1cd2      	adds	r2, r2, #3
 8002ae2:	0892      	lsrs	r2, r2, #2
 8002ae4:	6008      	str	r0, [r1, #0]
 8002ae6:	eba3 0282 	sub.w	r2, r3, r2, lsl #2
 8002aea:	60a2      	str	r2, [r4, #8]
 8002aec:	bd10      	pop	{r4, pc}
 8002aee:	0000      	movs	r0, r0
 8002af0:	0101b004 	.word	0x0101b004
 8002af4:	45011700 	.word	0x45011700

08002af8 <.text_19>:
	...

08002b00 <cmox_ModExpBN_SW>:
 8002b00:	e92d 4ff2 	stmdb	sp!, {r1, r4, r5, r6, r7, r8, r9, sl, fp, lr}
 8002b04:	b08a      	sub	sp, #40	@ 0x28
 8002b06:	4683      	mov	fp, r0
 8002b08:	2001      	movs	r0, #1
 8002b0a:	f88d 0008 	strb.w	r0, [sp, #8]
 8002b0e:	2400      	movs	r4, #0
 8002b10:	980a      	ldr	r0, [sp, #40]	@ 0x28
 8002b12:	f8dd 9054 	ldr.w	r9, [sp, #84]	@ 0x54
 8002b16:	2601      	movs	r6, #1
 8002b18:	4617      	mov	r7, r2
 8002b1a:	2500      	movs	r5, #0
 8002b1c:	9507      	str	r5, [sp, #28]
 8002b1e:	9501      	str	r5, [sp, #4]
 8002b20:	46aa      	mov	sl, r5
 8002b22:	6801      	ldr	r1, [r0, #0]
 8002b24:	2901      	cmp	r1, #1
 8002b26:	bf88      	it	hi
 8002b28:	b2de      	uxtbhi	r6, r3
 8002b2a:	2101      	movs	r1, #1
 8002b2c:	1e70      	subs	r0, r6, #1
 8002b2e:	4081      	lsls	r1, r0
 8002b30:	0089      	lsls	r1, r1, #2
 8002b32:	9109      	str	r1, [sp, #36]	@ 0x24
 8002b34:	460a      	mov	r2, r1
 8002b36:	a901      	add	r1, sp, #4
 8002b38:	4648      	mov	r0, r9
 8002b3a:	f7ff ffa4 	bl	8002a86 <cmox_membuf_alloc>
 8002b3e:	2800      	cmp	r0, #0
 8002b40:	9004      	str	r0, [sp, #16]
 8002b42:	f040 80ef 	bne.w	8002d24 <cmox_ModExpBN_SW+0x224>
 8002b46:	46a8      	mov	r8, r5
 8002b48:	e00c      	b.n	8002b64 <cmox_ModExpBN_SW+0x64>
 8002b4a:	6838      	ldr	r0, [r7, #0]
 8002b4c:	9901      	ldr	r1, [sp, #4]
 8002b4e:	6802      	ldr	r2, [r0, #0]
 8002b50:	eb01 0188 	add.w	r1, r1, r8, lsl #2
 8002b54:	4648      	mov	r0, r9
 8002b56:	f001 fb39 	bl	80041cc <cmox_bn_alloc>
 8002b5a:	2800      	cmp	r0, #0
 8002b5c:	9004      	str	r0, [sp, #16]
 8002b5e:	d175      	bne.n	8002c4c <cmox_ModExpBN_SW+0x14c>
 8002b60:	f108 0801 	add.w	r8, r8, #1
 8002b64:	2001      	movs	r0, #1
 8002b66:	1e72      	subs	r2, r6, #1
 8002b68:	4090      	lsls	r0, r2
 8002b6a:	4580      	cmp	r8, r0
 8002b6c:	9006      	str	r0, [sp, #24]
 8002b6e:	d3ec      	bcc.n	8002b4a <cmox_ModExpBN_SW+0x4a>
 8002b70:	9801      	ldr	r0, [sp, #4]
 8002b72:	f8cd b00c 	str.w	fp, [sp, #12]
 8002b76:	2100      	movs	r1, #0
 8002b78:	6800      	ldr	r0, [r0, #0]
 8002b7a:	f001 fb5e 	bl	800423a <cmox_bn_init>
 8002b7e:	9814      	ldr	r0, [sp, #80]	@ 0x50
 8002b80:	2100      	movs	r1, #0
 8002b82:	f001 fb5a 	bl	800423a <cmox_bn_init>
 8002b86:	9801      	ldr	r0, [sp, #4]
 8002b88:	6802      	ldr	r2, [r0, #0]
 8002b8a:	9903      	ldr	r1, [sp, #12]
 8002b8c:	2001      	movs	r0, #1
 8002b8e:	f001 fb63 	bl	8004258 <cmox_bn_cCopy>
 8002b92:	f8dd b058 	ldr.w	fp, [sp, #88]	@ 0x58
 8002b96:	9700      	str	r7, [sp, #0]
 8002b98:	2700      	movs	r7, #0
 8002b9a:	e007      	b.n	8002bac <cmox_ModExpBN_SW+0xac>
 8002b9c:	9801      	ldr	r0, [sp, #4]
 8002b9e:	6800      	ldr	r0, [r0, #0]
 8002ba0:	9a00      	ldr	r2, [sp, #0]
 8002ba2:	465b      	mov	r3, fp
 8002ba4:	4601      	mov	r1, r0
 8002ba6:	f7ff fef7 	bl	8002998 <cmox_ModularBN_Sqr>
 8002baa:	1c7f      	adds	r7, r7, #1
 8002bac:	1e70      	subs	r0, r6, #1
 8002bae:	4287      	cmp	r7, r0
 8002bb0:	d3f4      	bcc.n	8002b9c <cmox_ModExpBN_SW+0x9c>
 8002bb2:	9900      	ldr	r1, [sp, #0]
 8002bb4:	9605      	str	r6, [sp, #20]
 8002bb6:	4658      	mov	r0, fp
 8002bb8:	1e73      	subs	r3, r6, #1
 8002bba:	2701      	movs	r7, #1
 8002bbc:	f88d 3009 	strb.w	r3, [sp, #9]
 8002bc0:	468b      	mov	fp, r1
 8002bc2:	4606      	mov	r6, r0
 8002bc4:	e00c      	b.n	8002be0 <cmox_ModExpBN_SW+0xe0>
 8002bc6:	9600      	str	r6, [sp, #0]
 8002bc8:	465b      	mov	r3, fp
 8002bca:	9801      	ldr	r0, [sp, #4]
 8002bcc:	9903      	ldr	r1, [sp, #12]
 8002bce:	f850 2027 	ldr.w	r2, [r0, r7, lsl #2]
 8002bd2:	eb00 0c87 	add.w	ip, r0, r7, lsl #2
 8002bd6:	1c7f      	adds	r7, r7, #1
 8002bd8:	f85c 0c04 	ldr.w	r0, [ip, #-4]
 8002bdc:	f7ff feb9 	bl	8002952 <cmox_ModularBN_Mul>
 8002be0:	9806      	ldr	r0, [sp, #24]
 8002be2:	4287      	cmp	r7, r0
 8002be4:	d3ef      	bcc.n	8002bc6 <cmox_ModExpBN_SW+0xc6>
 8002be6:	9616      	str	r6, [sp, #88]	@ 0x58
 8002be8:	980a      	ldr	r0, [sp, #40]	@ 0x28
 8002bea:	6801      	ldr	r1, [r0, #0]
 8002bec:	9814      	ldr	r0, [sp, #80]	@ 0x50
 8002bee:	9106      	str	r1, [sp, #24]
 8002bf0:	2100      	movs	r1, #0
 8002bf2:	f001 fb22 	bl	800423a <cmox_bn_init>
 8002bf6:	9a14      	ldr	r2, [sp, #80]	@ 0x50
 8002bf8:	9903      	ldr	r1, [sp, #12]
 8002bfa:	2001      	movs	r0, #1
 8002bfc:	f001 fb2c 	bl	8004258 <cmox_bn_cCopy>
 8002c00:	2001      	movs	r0, #1
 8002c02:	9008      	str	r0, [sp, #32]
 8002c04:	e015      	b.n	8002c32 <cmox_ModExpBN_SW+0x132>
 8002c06:	980a      	ldr	r0, [sp, #40]	@ 0x28
 8002c08:	9906      	ldr	r1, [sp, #24]
 8002c0a:	f850 0021 	ldr.w	r0, [r0, r1, lsl #2]
 8002c0e:	9906      	ldr	r1, [sp, #24]
 8002c10:	1e49      	subs	r1, r1, #1
 8002c12:	2220      	movs	r2, #32
 8002c14:	9007      	str	r0, [sp, #28]
 8002c16:	9106      	str	r1, [sp, #24]
 8002c18:	f88d 2008 	strb.w	r2, [sp, #8]
 8002c1c:	9807      	ldr	r0, [sp, #28]
 8002c1e:	9907      	ldr	r1, [sp, #28]
 8002c20:	0fc0      	lsrs	r0, r0, #31
 8002c22:	0049      	lsls	r1, r1, #1
 8002c24:	002a      	movs	r2, r5
 8002c26:	9107      	str	r1, [sp, #28]
 8002c28:	d13b      	bne.n	8002ca2 <cmox_ModExpBN_SW+0x1a2>
 8002c2a:	2800      	cmp	r0, #0
 8002c2c:	d001      	beq.n	8002c32 <cmox_ModExpBN_SW+0x132>
 8002c2e:	d043      	beq.n	8002cb8 <cmox_ModExpBN_SW+0x1b8>
 8002c30:	2501      	movs	r5, #1
 8002c32:	f89d 0008 	ldrb.w	r0, [sp, #8]
 8002c36:	1e41      	subs	r1, r0, #1
 8002c38:	f88d 1008 	strb.w	r1, [sp, #8]
 8002c3c:	f89d 0008 	ldrb.w	r0, [sp, #8]
 8002c40:	2800      	cmp	r0, #0
 8002c42:	d1eb      	bne.n	8002c1c <cmox_ModExpBN_SW+0x11c>
 8002c44:	9806      	ldr	r0, [sp, #24]
 8002c46:	2800      	cmp	r0, #0
 8002c48:	d1dd      	bne.n	8002c06 <cmox_ModExpBN_SW+0x106>
 8002c4a:	2d02      	cmp	r5, #2
 8002c4c:	d11c      	bne.n	8002c88 <cmox_ModExpBN_SW+0x188>
 8002c4e:	b2e0      	uxtb	r0, r4
 8002c50:	b1d0      	cbz	r0, 8002c88 <cmox_ModExpBN_SW+0x188>
 8002c52:	b2e5      	uxtb	r5, r4
 8002c54:	9c14      	ldr	r4, [sp, #80]	@ 0x50
 8002c56:	9e16      	ldr	r6, [sp, #88]	@ 0x58
 8002c58:	9f05      	ldr	r7, [sp, #20]
 8002c5a:	4633      	mov	r3, r6
 8002c5c:	465a      	mov	r2, fp
 8002c5e:	4621      	mov	r1, r4
 8002c60:	4620      	mov	r0, r4
 8002c62:	f7ff fe99 	bl	8002998 <cmox_ModularBN_Sqr>
 8002c66:	9908      	ldr	r1, [sp, #32]
 8002c68:	ea4f 0a4a 	mov.w	sl, sl, lsl #1
 8002c6c:	40b9      	lsls	r1, r7
 8002c6e:	fa5f f08a 	uxtb.w	r0, sl
 8002c72:	4208      	tst	r0, r1
 8002c74:	d006      	beq.n	8002c84 <cmox_ModExpBN_SW+0x184>
 8002c76:	9600      	str	r6, [sp, #0]
 8002c78:	465b      	mov	r3, fp
 8002c7a:	9903      	ldr	r1, [sp, #12]
 8002c7c:	4622      	mov	r2, r4
 8002c7e:	4620      	mov	r0, r4
 8002c80:	f7ff fe67 	bl	8002952 <cmox_ModularBN_Mul>
 8002c84:	1e6d      	subs	r5, r5, #1
 8002c86:	d1e8      	bne.n	8002c5a <cmox_ModExpBN_SW+0x15a>
 8002c88:	f1b8 0f00 	cmp.w	r8, #0
 8002c8c:	d045      	beq.n	8002d1a <cmox_ModExpBN_SW+0x21a>
 8002c8e:	9801      	ldr	r0, [sp, #4]
 8002c90:	eb00 0188 	add.w	r1, r0, r8, lsl #2
 8002c94:	1f09      	subs	r1, r1, #4
 8002c96:	4648      	mov	r0, r9
 8002c98:	f001 faa3 	bl	80041e2 <cmox_bn_free>
 8002c9c:	f1a8 0801 	sub.w	r8, r8, #1
 8002ca0:	e7f2      	b.n	8002c88 <cmox_ModExpBN_SW+0x188>
 8002ca2:	2d01      	cmp	r5, #1
 8002ca4:	bf08      	it	eq
 8002ca6:	2800      	cmpeq	r0, #0
 8002ca8:	d106      	bne.n	8002cb8 <cmox_ModExpBN_SW+0x1b8>
 8002caa:	9914      	ldr	r1, [sp, #80]	@ 0x50
 8002cac:	9b16      	ldr	r3, [sp, #88]	@ 0x58
 8002cae:	465a      	mov	r2, fp
 8002cb0:	4608      	mov	r0, r1
 8002cb2:	f7ff fe71 	bl	8002998 <cmox_ModularBN_Sqr>
 8002cb6:	e7bc      	b.n	8002c32 <cmox_ModExpBN_SW+0x132>
 8002cb8:	9905      	ldr	r1, [sp, #20]
 8002cba:	9a05      	ldr	r2, [sp, #20]
 8002cbc:	1c64      	adds	r4, r4, #1
 8002cbe:	1b09      	subs	r1, r1, r4
 8002cc0:	4088      	lsls	r0, r1
 8002cc2:	ea40 0a0a 	orr.w	sl, r0, sl
 8002cc6:	2502      	movs	r5, #2
 8002cc8:	b2e0      	uxtb	r0, r4
 8002cca:	4290      	cmp	r0, r2
 8002ccc:	d1b1      	bne.n	8002c32 <cmox_ModExpBN_SW+0x132>
 8002cce:	9d14      	ldr	r5, [sp, #80]	@ 0x50
 8002cd0:	9c16      	ldr	r4, [sp, #88]	@ 0x58
 8002cd2:	2700      	movs	r7, #0
 8002cd4:	4616      	mov	r6, r2
 8002cd6:	e006      	b.n	8002ce6 <cmox_ModExpBN_SW+0x1e6>
 8002cd8:	4623      	mov	r3, r4
 8002cda:	465a      	mov	r2, fp
 8002cdc:	4629      	mov	r1, r5
 8002cde:	4628      	mov	r0, r5
 8002ce0:	f7ff fe5a 	bl	8002998 <cmox_ModularBN_Sqr>
 8002ce4:	1c7f      	adds	r7, r7, #1
 8002ce6:	42b7      	cmp	r7, r6
 8002ce8:	d3f6      	bcc.n	8002cd8 <cmox_ModExpBN_SW+0x1d8>
 8002cea:	9514      	str	r5, [sp, #80]	@ 0x50
 8002cec:	9416      	str	r4, [sp, #88]	@ 0x58
 8002cee:	9605      	str	r6, [sp, #20]
 8002cf0:	fa5f f48a 	uxtb.w	r4, sl
 8002cf4:	9a16      	ldr	r2, [sp, #88]	@ 0x58
 8002cf6:	9d08      	ldr	r5, [sp, #32]
 8002cf8:	f99d 0009 	ldrsb.w	r0, [sp, #9]
 8002cfc:	9901      	ldr	r1, [sp, #4]
 8002cfe:	9200      	str	r2, [sp, #0]
 8002d00:	4085      	lsls	r5, r0
 8002d02:	9a14      	ldr	r2, [sp, #80]	@ 0x50
 8002d04:	ea24 0a05 	bic.w	sl, r4, r5
 8002d08:	f851 102a 	ldr.w	r1, [r1, sl, lsl #2]
 8002d0c:	465b      	mov	r3, fp
 8002d0e:	4610      	mov	r0, r2
 8002d10:	f7ff fe1f 	bl	8002952 <cmox_ModularBN_Mul>
 8002d14:	2400      	movs	r4, #0
 8002d16:	46a2      	mov	sl, r4
 8002d18:	e78a      	b.n	8002c30 <cmox_ModExpBN_SW+0x130>
 8002d1a:	9a09      	ldr	r2, [sp, #36]	@ 0x24
 8002d1c:	a901      	add	r1, sp, #4
 8002d1e:	4648      	mov	r0, r9
 8002d20:	f7ff fed0 	bl	8002ac4 <cmox_membuf_free>
 8002d24:	9804      	ldr	r0, [sp, #16]
 8002d26:	b00b      	add	sp, #44	@ 0x2c
 8002d28:	e8bd 8ff0 	ldmia.w	sp!, {r4, r5, r6, r7, r8, r9, sl, fp, pc}

08002d2c <cmox_ScalarMul_FW>:
 8002d2c:	e92d 4ff4 	stmdb	sp!, {r2, r4, r5, r6, r7, r8, r9, sl, fp, lr}
 8002d30:	b08c      	sub	sp, #48	@ 0x30
 8002d32:	4607      	mov	r7, r0
 8002d34:	2001      	movs	r0, #1
 8002d36:	468b      	mov	fp, r1
 8002d38:	9009      	str	r0, [sp, #36]	@ 0x24
 8002d3a:	2200      	movs	r2, #0
 8002d3c:	69b9      	ldr	r1, [r7, #24]
 8002d3e:	6988      	ldr	r0, [r1, #24]
 8002d40:	6846      	ldr	r6, [r0, #4]
 8002d42:	9204      	str	r2, [sp, #16]
 8002d44:	461c      	mov	r4, r3
 8002d46:	2100      	movs	r1, #0
 8002d48:	4658      	mov	r0, fp
 8002d4a:	f001 fb03 	bl	8004354 <cmox_bn_cmpUint>
 8002d4e:	b950      	cbnz	r0, 8002d66 <cmox_ScalarMul_FW+0x3a>
 8002d50:	69b8      	ldr	r0, [r7, #24]
 8002d52:	6800      	ldr	r0, [r0, #0]
 8002d54:	69c1      	ldr	r1, [r0, #28]
 8002d56:	2901      	cmp	r1, #1
 8002d58:	d008      	beq.n	8002d6c <cmox_ScalarMul_FW+0x40>
 8002d5a:	6881      	ldr	r1, [r0, #8]
 8002d5c:	4658      	mov	r0, fp
 8002d5e:	f001 fab8 	bl	80042d2 <cmox_bn_cmp>
 8002d62:	2800      	cmp	r0, #0
 8002d64:	d402      	bmi.n	8002d6c <cmox_ScalarMul_FW+0x40>
 8002d66:	f04f 0801 	mov.w	r8, #1
 8002d6a:	e1d7      	b.n	800311c <cmox_ScalarMul_FW+0x3f0>
 8002d6c:	69b8      	ldr	r0, [r7, #24]
 8002d6e:	6841      	ldr	r1, [r0, #4]
 8002d70:	698a      	ldr	r2, [r1, #24]
 8002d72:	69f8      	ldr	r0, [r7, #28]
 8002d74:	0092      	lsls	r2, r2, #2
 8002d76:	f107 0114 	add.w	r1, r7, #20
 8002d7a:	f7ff fe84 	bl	8002a86 <cmox_membuf_alloc>
 8002d7e:	ea5f 0800 	movs.w	r8, r0
 8002d82:	d1f2      	bne.n	8002d6a <cmox_ScalarMul_FW+0x3e>
 8002d84:	2500      	movs	r5, #0
 8002d86:	e00c      	b.n	8002da2 <cmox_ScalarMul_FW+0x76>
 8002d88:	6809      	ldr	r1, [r1, #0]
 8002d8a:	680a      	ldr	r2, [r1, #0]
 8002d8c:	6979      	ldr	r1, [r7, #20]
 8002d8e:	6812      	ldr	r2, [r2, #0]
 8002d90:	eb01 0185 	add.w	r1, r1, r5, lsl #2
 8002d94:	f001 fa1a 	bl	80041cc <cmox_bn_alloc>
 8002d98:	ea5f 0800 	movs.w	r8, r0
 8002d9c:	f040 81b3 	bne.w	8003106 <cmox_ScalarMul_FW+0x3da>
 8002da0:	1c6d      	adds	r5, r5, #1
 8002da2:	69b9      	ldr	r1, [r7, #24]
 8002da4:	684a      	ldr	r2, [r1, #4]
 8002da6:	6993      	ldr	r3, [r2, #24]
 8002da8:	69f8      	ldr	r0, [r7, #28]
 8002daa:	429d      	cmp	r5, r3
 8002dac:	d3ec      	bcc.n	8002d88 <cmox_ScalarMul_FW+0x5c>
 8002dae:	f04f 0901 	mov.w	r9, #1
 8002db2:	1e72      	subs	r2, r6, #1
 8002db4:	fa09 f202 	lsl.w	r2, r9, r2
 8002db8:	0092      	lsls	r2, r2, #2
 8002dba:	9208      	str	r2, [sp, #32]
 8002dbc:	a901      	add	r1, sp, #4
 8002dbe:	f7ff fe62 	bl	8002a86 <cmox_membuf_alloc>
 8002dc2:	ea5f 0800 	movs.w	r8, r0
 8002dc6:	46aa      	mov	sl, r5
 8002dc8:	f040 8194 	bne.w	80030f4 <cmox_ScalarMul_FW+0x3c8>
 8002dcc:	2500      	movs	r5, #0
 8002dce:	e010      	b.n	8002df2 <cmox_ScalarMul_FW+0xc6>
 8002dd0:	9801      	ldr	r0, [sp, #4]
 8002dd2:	eb00 0185 	add.w	r1, r0, r5, lsl #2
 8002dd6:	4638      	mov	r0, r7
 8002dd8:	f7fd fa67 	bl	80002aa <cmox_ECC_AllocPoint>
 8002ddc:	ea5f 0800 	movs.w	r8, r0
 8002de0:	f040 8181 	bne.w	80030e6 <cmox_ScalarMul_FW+0x3ba>
 8002de4:	9801      	ldr	r0, [sp, #4]
 8002de6:	f850 1025 	ldr.w	r1, [r0, r5, lsl #2]
 8002dea:	4638      	mov	r0, r7
 8002dec:	f7fd fb44 	bl	8000478 <cmox_ECC_SetPointAtInfinity>
 8002df0:	1c6d      	adds	r5, r5, #1
 8002df2:	1e71      	subs	r1, r6, #1
 8002df4:	fa09 f101 	lsl.w	r1, r9, r1
 8002df8:	428d      	cmp	r5, r1
 8002dfa:	d3e9      	bcc.n	8002dd0 <cmox_ScalarMul_FW+0xa4>
 8002dfc:	9702      	str	r7, [sp, #8]
 8002dfe:	950b      	str	r5, [sp, #44]	@ 0x2c
 8002e00:	9403      	str	r4, [sp, #12]
 8002e02:	4621      	mov	r1, r4
 8002e04:	9802      	ldr	r0, [sp, #8]
 8002e06:	f7fd fb37 	bl	8000478 <cmox_ECC_SetPointAtInfinity>
 8002e0a:	f89b 0004 	ldrb.w	r0, [fp, #4]
 8002e0e:	f000 0001 	and.w	r0, r0, #1
 8002e12:	9007      	str	r0, [sp, #28]
 8002e14:	f04f 0800 	mov.w	r8, #0
 8002e18:	9802      	ldr	r0, [sp, #8]
 8002e1a:	6981      	ldr	r1, [r0, #24]
 8002e1c:	680a      	ldr	r2, [r1, #0]
 8002e1e:	9807      	ldr	r0, [sp, #28]
 8002e20:	6892      	ldr	r2, [r2, #8]
 8002e22:	4659      	mov	r1, fp
 8002e24:	f1c0 0001 	rsb	r0, r0, #1
 8002e28:	f7ff fd22 	bl	8002870 <cmox_FieldBN_CondNegate>
 8002e2c:	f8db 0000 	ldr.w	r0, [fp]
 8002e30:	ebc6 1540 	rsb	r5, r6, r0, lsl #5
 8002e34:	f85b 0020 	ldr.w	r0, [fp, r0, lsl #2]
 8002e38:	f7ff fdfb 	bl	8002a32 <cmox_mathUtils_bitLength>
 8002e3c:	f8db 1000 	ldr.w	r1, [fp]
 8002e40:	1e49      	subs	r1, r1, #1
 8002e42:	eb00 1041 	add.w	r0, r0, r1, lsl #5
 8002e46:	1e71      	subs	r1, r6, #1
 8002e48:	fa09 f101 	lsl.w	r1, r9, r1
 8002e4c:	1e49      	subs	r1, r1, #1
 8002e4e:	9105      	str	r1, [sp, #20]
 8002e50:	fa09 f206 	lsl.w	r2, r9, r6
 8002e54:	9206      	str	r2, [sp, #24]
 8002e56:	4634      	mov	r4, r6
 8002e58:	900a      	str	r0, [sp, #40]	@ 0x28
 8002e5a:	e02d      	b.n	8002eb8 <cmox_ScalarMul_FW+0x18c>
 8002e5c:	4642      	mov	r2, r8
 8002e5e:	1c61      	adds	r1, r4, #1
 8002e60:	4658      	mov	r0, fp
 8002e62:	f001 faa6 	bl	80043b2 <cmox_bn_getBits>
 8002e66:	4606      	mov	r6, r0
 8002e68:	9806      	ldr	r0, [sp, #24]
 8002e6a:	1a30      	subs	r0, r6, r0
 8002e6c:	f7ff fdf3 	bl	8002a56 <cmox_mathUtils_abs>
 8002e70:	4607      	mov	r7, r0
 8002e72:	eb04 0008 	add.w	r0, r4, r8
 8002e76:	9000      	str	r0, [sp, #0]
 8002e78:	4601      	mov	r1, r0
 8002e7a:	4628      	mov	r0, r5
 8002e7c:	f7ff fdd2 	bl	8002a24 <cmox_mathUtils_gt>
 8002e80:	9906      	ldr	r1, [sp, #24]
 8002e82:	2200      	movs	r2, #0
 8002e84:	f7ff fdc1 	bl	8002a0a <cmox_mathUtils_mux>
 8002e88:	ea40 0757 	orr.w	r7, r0, r7, lsr #1
 8002e8c:	980a      	ldr	r0, [sp, #40]	@ 0x28
 8002e8e:	4641      	mov	r1, r8
 8002e90:	f7ff fdc8 	bl	8002a24 <cmox_mathUtils_gt>
 8002e94:	40e6      	lsrs	r6, r4
 8002e96:	f006 0601 	and.w	r6, r6, #1
 8002e9a:	1e63      	subs	r3, r4, #1
 8002e9c:	9a05      	ldr	r2, [sp, #20]
 8002e9e:	409e      	lsls	r6, r3
 8002ea0:	ea46 0107 	orr.w	r1, r6, r7
 8002ea4:	f7ff fdb1 	bl	8002a0a <cmox_mathUtils_mux>
 8002ea8:	4603      	mov	r3, r0
 8002eaa:	4642      	mov	r2, r8
 8002eac:	1c61      	adds	r1, r4, #1
 8002eae:	4658      	mov	r0, fp
 8002eb0:	f001 faa3 	bl	80043fa <cmox_bn_setBits>
 8002eb4:	f8dd 8000 	ldr.w	r8, [sp]
 8002eb8:	45a8      	cmp	r8, r5
 8002eba:	d3cf      	bcc.n	8002e5c <cmox_ScalarMul_FW+0x130>
 8002ebc:	1c65      	adds	r5, r4, #1
 8002ebe:	4642      	mov	r2, r8
 8002ec0:	4629      	mov	r1, r5
 8002ec2:	4658      	mov	r0, fp
 8002ec4:	f001 fa75 	bl	80043b2 <cmox_bn_getBits>
 8002ec8:	0843      	lsrs	r3, r0, #1
 8002eca:	4642      	mov	r2, r8
 8002ecc:	4629      	mov	r1, r5
 8002ece:	4658      	mov	r0, fp
 8002ed0:	f001 fa93 	bl	80043fa <cmox_bn_setBits>
 8002ed4:	980c      	ldr	r0, [sp, #48]	@ 0x30
 8002ed6:	7c00      	ldrb	r0, [r0, #16]
 8002ed8:	2100      	movs	r1, #0
 8002eda:	f000 0004 	and.w	r0, r0, #4
 8002ede:	f7ff fd9c 	bl	8002a1a <cmox_mathUtils_neq>
 8002ee2:	b920      	cbnz	r0, 8002eee <cmox_ScalarMul_FW+0x1c2>
 8002ee4:	9009      	str	r0, [sp, #36]	@ 0x24
 8002ee6:	990c      	ldr	r1, [sp, #48]	@ 0x30
 8002ee8:	9802      	ldr	r0, [sp, #8]
 8002eea:	f7fd fb85 	bl	80005f8 <cmox_ECC_PointToModularDomain>
 8002eee:	990c      	ldr	r1, [sp, #48]	@ 0x30
 8002ef0:	9802      	ldr	r0, [sp, #8]
 8002ef2:	f7fd fbd9 	bl	80006a8 <cmox_ECC_PointValidation>
 8002ef6:	ea5f 0800 	movs.w	r8, r0
 8002efa:	f040 80e9 	bne.w	80030d0 <cmox_ScalarMul_FW+0x3a4>
 8002efe:	9801      	ldr	r0, [sp, #4]
 8002f00:	6802      	ldr	r2, [r0, #0]
 8002f02:	9802      	ldr	r0, [sp, #8]
 8002f04:	6986      	ldr	r6, [r0, #24]
 8002f06:	6875      	ldr	r5, [r6, #4]
 8002f08:	990c      	ldr	r1, [sp, #48]	@ 0x30
 8002f0a:	682e      	ldr	r6, [r5, #0]
 8002f0c:	2301      	movs	r3, #1
 8002f0e:	47b0      	blx	r6
 8002f10:	9901      	ldr	r1, [sp, #4]
 8002f12:	9a0c      	ldr	r2, [sp, #48]	@ 0x30
 8002f14:	2000      	movs	r0, #0
 8002f16:	9000      	str	r0, [sp, #0]
 8002f18:	9802      	ldr	r0, [sp, #8]
 8002f1a:	6986      	ldr	r6, [r0, #24]
 8002f1c:	6875      	ldr	r5, [r6, #4]
 8002f1e:	684b      	ldr	r3, [r1, #4]
 8002f20:	6809      	ldr	r1, [r1, #0]
 8002f22:	f8d5 c004 	ldr.w	ip, [r5, #4]
 8002f26:	47e0      	blx	ip
 8002f28:	1e61      	subs	r1, r4, #1
 8002f2a:	f88d 1000 	strb.w	r1, [sp]
 8002f2e:	2502      	movs	r5, #2
 8002f30:	f89d 0000 	ldrb.w	r0, [sp]
 8002f34:	9f02      	ldr	r7, [sp, #8]
 8002f36:	fa09 f600 	lsl.w	r6, r9, r0
 8002f3a:	e00e      	b.n	8002f5a <cmox_ScalarMul_FW+0x22e>
 8002f3c:	f8d7 c018 	ldr.w	ip, [r7, #24]
 8002f40:	f850 3025 	ldr.w	r3, [r0, r5, lsl #2]
 8002f44:	f8dc e004 	ldr.w	lr, [ip, #4]
 8002f48:	f8de c008 	ldr.w	ip, [lr, #8]
 8002f4c:	eb00 0185 	add.w	r1, r0, r5, lsl #2
 8002f50:	4638      	mov	r0, r7
 8002f52:	f851 1c04 	ldr.w	r1, [r1, #-4]
 8002f56:	47e0      	blx	ip
 8002f58:	1c6d      	adds	r5, r5, #1
 8002f5a:	9801      	ldr	r0, [sp, #4]
 8002f5c:	6802      	ldr	r2, [r0, #0]
 8002f5e:	42b5      	cmp	r5, r6
 8002f60:	d3ec      	bcc.n	8002f3c <cmox_ScalarMul_FW+0x210>
 8002f62:	990c      	ldr	r1, [sp, #48]	@ 0x30
 8002f64:	2001      	movs	r0, #1
 8002f66:	f7fd fa2d 	bl	80003c4 <cmox_ECC_CondCopyPoint>
 8002f6a:	f8db 5000 	ldr.w	r5, [fp]
 8002f6e:	016d      	lsls	r5, r5, #5
 8002f70:	1b2a      	subs	r2, r5, r4
 8002f72:	1e61      	subs	r1, r4, #1
 8002f74:	4658      	mov	r0, fp
 8002f76:	f001 fa1c 	bl	80043b2 <cmox_bn_getBits>
 8002f7a:	9901      	ldr	r1, [sp, #4]
 8002f7c:	f851 1020 	ldr.w	r1, [r1, r0, lsl #2]
 8002f80:	9a03      	ldr	r2, [sp, #12]
 8002f82:	2001      	movs	r0, #1
 8002f84:	f7fd fa1e 	bl	80003c4 <cmox_ECC_CondCopyPoint>
 8002f88:	eba5 0544 	sub.w	r5, r5, r4, lsl #1
 8002f8c:	9502      	str	r5, [sp, #8]
 8002f8e:	e02e      	b.n	8002fee <cmox_ScalarMul_FW+0x2c2>
 8002f90:	f8d7 c018 	ldr.w	ip, [r7, #24]
 8002f94:	f8dc e004 	ldr.w	lr, [ip, #4]
 8002f98:	f8de c000 	ldr.w	ip, [lr]
 8002f9c:	2301      	movs	r3, #1
 8002f9e:	464a      	mov	r2, r9
 8002fa0:	4649      	mov	r1, r9
 8002fa2:	4638      	mov	r0, r7
 8002fa4:	47e0      	blx	ip
 8002fa6:	1e6d      	subs	r5, r5, #1
 8002fa8:	d1f2      	bne.n	8002f90 <cmox_ScalarMul_FW+0x264>
 8002faa:	9d04      	ldr	r5, [sp, #16]
 8002fac:	9901      	ldr	r1, [sp, #4]
 8002fae:	9806      	ldr	r0, [sp, #24]
 8002fb0:	f8cd 900c 	str.w	r9, [sp, #12]
 8002fb4:	40f5      	lsrs	r5, r6
 8002fb6:	f005 0501 	and.w	r5, r5, #1
 8002fba:	4045      	eors	r5, r0
 8002fbc:	f851 2026 	ldr.w	r2, [r1, r6, lsl #2]
 8002fc0:	f085 0501 	eor.w	r5, r5, #1
 8002fc4:	4639      	mov	r1, r7
 8002fc6:	4628      	mov	r0, r5
 8002fc8:	f7fd fa2f 	bl	800042a <cmox_ECC_CondSymmetricPoint>
 8002fcc:	9804      	ldr	r0, [sp, #16]
 8002fce:	9b03      	ldr	r3, [sp, #12]
 8002fd0:	40b5      	lsls	r5, r6
 8002fd2:	4045      	eors	r5, r0
 8002fd4:	9801      	ldr	r0, [sp, #4]
 8002fd6:	9504      	str	r5, [sp, #16]
 8002fd8:	4619      	mov	r1, r3
 8002fda:	69bd      	ldr	r5, [r7, #24]
 8002fdc:	f850 2026 	ldr.w	r2, [r0, r6, lsl #2]
 8002fe0:	686e      	ldr	r6, [r5, #4]
 8002fe2:	68b5      	ldr	r5, [r6, #8]
 8002fe4:	4638      	mov	r0, r7
 8002fe6:	47a8      	blx	r5
 8002fe8:	9802      	ldr	r0, [sp, #8]
 8002fea:	1b00      	subs	r0, r0, r4
 8002fec:	9002      	str	r0, [sp, #8]
 8002fee:	9802      	ldr	r0, [sp, #8]
 8002ff0:	42a0      	cmp	r0, r4
 8002ff2:	d310      	bcc.n	8003016 <cmox_ScalarMul_FW+0x2ea>
 8002ff4:	4602      	mov	r2, r0
 8002ff6:	4621      	mov	r1, r4
 8002ff8:	4658      	mov	r0, fp
 8002ffa:	f001 f9da 	bl	80043b2 <cmox_bn_getBits>
 8002ffe:	f89d 2000 	ldrb.w	r2, [sp]
 8003002:	9905      	ldr	r1, [sp, #20]
 8003004:	f8dd 900c 	ldr.w	r9, [sp, #12]
 8003008:	fa20 f302 	lsr.w	r3, r0, r2
 800300c:	9306      	str	r3, [sp, #24]
 800300e:	ea01 0600 	and.w	r6, r1, r0
 8003012:	0025      	movs	r5, r4
 8003014:	e7c8      	b.n	8002fa8 <cmox_ScalarMul_FW+0x27c>
 8003016:	2200      	movs	r2, #0
 8003018:	4621      	mov	r1, r4
 800301a:	4658      	mov	r0, fp
 800301c:	f001 f9c9 	bl	80043b2 <cmox_bn_getBits>
 8003020:	f89d 2000 	ldrb.w	r2, [sp]
 8003024:	9905      	ldr	r1, [sp, #20]
 8003026:	fa20 f302 	lsr.w	r3, r0, r2
 800302a:	ea01 0b00 	and.w	fp, r1, r0
 800302e:	9801      	ldr	r0, [sp, #4]
 8003030:	f850 202b 	ldr.w	r2, [r0, fp, lsl #2]
 8003034:	9804      	ldr	r0, [sp, #16]
 8003036:	fa20 f00b 	lsr.w	r0, r0, fp
 800303a:	f000 0001 	and.w	r0, r0, #1
 800303e:	4043      	eors	r3, r0
 8003040:	4639      	mov	r1, r7
 8003042:	f083 0001 	eor.w	r0, r3, #1
 8003046:	f7fd f9f0 	bl	800042a <cmox_ECC_CondSymmetricPoint>
 800304a:	4625      	mov	r5, r4
 800304c:	9c03      	ldr	r4, [sp, #12]
 800304e:	e007      	b.n	8003060 <cmox_ScalarMul_FW+0x334>
 8003050:	f8d6 c000 	ldr.w	ip, [r6]
 8003054:	2301      	movs	r3, #1
 8003056:	4622      	mov	r2, r4
 8003058:	4621      	mov	r1, r4
 800305a:	4638      	mov	r0, r7
 800305c:	47e0      	blx	ip
 800305e:	1e6d      	subs	r5, r5, #1
 8003060:	69b8      	ldr	r0, [r7, #24]
 8003062:	6846      	ldr	r6, [r0, #4]
 8003064:	2d00      	cmp	r5, #0
 8003066:	d1f3      	bne.n	8003050 <cmox_ScalarMul_FW+0x324>
 8003068:	9702      	str	r7, [sp, #8]
 800306a:	4621      	mov	r1, r4
 800306c:	9801      	ldr	r0, [sp, #4]
 800306e:	6803      	ldr	r3, [r0, #0]
 8003070:	f850 202b 	ldr.w	r2, [r0, fp, lsl #2]
 8003074:	68b5      	ldr	r5, [r6, #8]
 8003076:	4638      	mov	r0, r7
 8003078:	47a8      	blx	r5
 800307a:	9801      	ldr	r0, [sp, #4]
 800307c:	6802      	ldr	r2, [r0, #0]
 800307e:	6890      	ldr	r0, [r2, #8]
 8003080:	2100      	movs	r1, #0
 8003082:	f001 f967 	bl	8004354 <cmox_bn_cmpUint>
 8003086:	4603      	mov	r3, r0
 8003088:	9801      	ldr	r0, [sp, #4]
 800308a:	6802      	ldr	r2, [r0, #0]
 800308c:	9802      	ldr	r0, [sp, #8]
 800308e:	6986      	ldr	r6, [r0, #24]
 8003090:	6875      	ldr	r5, [r6, #4]
 8003092:	f8d5 c000 	ldr.w	ip, [r5]
 8003096:	4621      	mov	r1, r4
 8003098:	47e0      	blx	ip
 800309a:	9801      	ldr	r0, [sp, #4]
 800309c:	6801      	ldr	r1, [r0, #0]
 800309e:	4622      	mov	r2, r4
 80030a0:	2001      	movs	r0, #1
 80030a2:	f7fd f98f 	bl	80003c4 <cmox_ECC_CondCopyPoint>
 80030a6:	9807      	ldr	r0, [sp, #28]
 80030a8:	9902      	ldr	r1, [sp, #8]
 80030aa:	4622      	mov	r2, r4
 80030ac:	f1c0 0001 	rsb	r0, r0, #1
 80030b0:	f7fd f9bb 	bl	800042a <cmox_ECC_CondSymmetricPoint>
 80030b4:	9809      	ldr	r0, [sp, #36]	@ 0x24
 80030b6:	b958      	cbnz	r0, 80030d0 <cmox_ScalarMul_FW+0x3a4>
 80030b8:	990c      	ldr	r1, [sp, #48]	@ 0x30
 80030ba:	9802      	ldr	r0, [sp, #8]
 80030bc:	f7fd fac6 	bl	800064c <cmox_ECC_PointFromModularDomain>
 80030c0:	4680      	mov	r8, r0
 80030c2:	980c      	ldr	r0, [sp, #48]	@ 0x30
 80030c4:	42a0      	cmp	r0, r4
 80030c6:	d003      	beq.n	80030d0 <cmox_ScalarMul_FW+0x3a4>
 80030c8:	9802      	ldr	r0, [sp, #8]
 80030ca:	4621      	mov	r1, r4
 80030cc:	f7fd fabe 	bl	800064c <cmox_ECC_PointFromModularDomain>
 80030d0:	9f02      	ldr	r7, [sp, #8]
 80030d2:	9d0b      	ldr	r5, [sp, #44]	@ 0x2c
 80030d4:	e007      	b.n	80030e6 <cmox_ScalarMul_FW+0x3ba>
 80030d6:	9801      	ldr	r0, [sp, #4]
 80030d8:	eb00 0185 	add.w	r1, r0, r5, lsl #2
 80030dc:	1f09      	subs	r1, r1, #4
 80030de:	4638      	mov	r0, r7
 80030e0:	f7fd f93f 	bl	8000362 <cmox_ECC_FreePoint>
 80030e4:	1e6d      	subs	r5, r5, #1
 80030e6:	2d00      	cmp	r5, #0
 80030e8:	d1f5      	bne.n	80030d6 <cmox_ScalarMul_FW+0x3aa>
 80030ea:	9a08      	ldr	r2, [sp, #32]
 80030ec:	69f8      	ldr	r0, [r7, #28]
 80030ee:	a901      	add	r1, sp, #4
 80030f0:	f7ff fce8 	bl	8002ac4 <cmox_membuf_free>
 80030f4:	4655      	mov	r5, sl
 80030f6:	e006      	b.n	8003106 <cmox_ScalarMul_FW+0x3da>
 80030f8:	6979      	ldr	r1, [r7, #20]
 80030fa:	eb01 0285 	add.w	r2, r1, r5, lsl #2
 80030fe:	1f11      	subs	r1, r2, #4
 8003100:	f001 f86f 	bl	80041e2 <cmox_bn_free>
 8003104:	1e6d      	subs	r5, r5, #1
 8003106:	69f8      	ldr	r0, [r7, #28]
 8003108:	2d00      	cmp	r5, #0
 800310a:	d1f5      	bne.n	80030f8 <cmox_ScalarMul_FW+0x3cc>
 800310c:	69b9      	ldr	r1, [r7, #24]
 800310e:	684a      	ldr	r2, [r1, #4]
 8003110:	6992      	ldr	r2, [r2, #24]
 8003112:	0092      	lsls	r2, r2, #2
 8003114:	f107 0114 	add.w	r1, r7, #20
 8003118:	f7ff fcd4 	bl	8002ac4 <cmox_membuf_free>
 800311c:	4640      	mov	r0, r8
 800311e:	b00d      	add	sp, #52	@ 0x34
 8003120:	e8bd 8ff0 	ldmia.w	sp!, {r4, r5, r6, r7, r8, r9, sl, fp, pc}

08003124 <cmox_ScalarMul_SC>:
 8003124:	e92d 4ff6 	stmdb	sp!, {r1, r2, r4, r5, r6, r7, r8, r9, sl, fp, lr}
 8003128:	4606      	mov	r6, r0
 800312a:	b08b      	sub	sp, #44	@ 0x2c
 800312c:	4689      	mov	r9, r1
 800312e:	69b1      	ldr	r1, [r6, #24]
 8003130:	680a      	ldr	r2, [r1, #0]
 8003132:	6890      	ldr	r0, [r2, #8]
 8003134:	f001 f924 	bl	8004380 <cmox_bn_countBits>
 8003138:	69b1      	ldr	r1, [r6, #24]
 800313a:	688a      	ldr	r2, [r1, #8]
 800313c:	6813      	ldr	r3, [r2, #0]
 800313e:	fbb0 f8f3 	udiv	r8, r0, r3
 8003142:	461d      	mov	r5, r3
 8003144:	1e5a      	subs	r2, r3, #1
 8003146:	9300      	str	r3, [sp, #0]
 8003148:	fb05 0518 	mls	r5, r5, r8, r0
 800314c:	f88d 2010 	strb.w	r2, [sp, #16]
 8003150:	2301      	movs	r3, #1
 8003152:	f89d 0010 	ldrb.w	r0, [sp, #16]
 8003156:	4083      	lsls	r3, r0
 8003158:	1e5b      	subs	r3, r3, #1
 800315a:	9309      	str	r3, [sp, #36]	@ 0x24
 800315c:	2700      	movs	r7, #0
 800315e:	680a      	ldr	r2, [r1, #0]
 8003160:	6813      	ldr	r3, [r2, #0]
 8003162:	681c      	ldr	r4, [r3, #0]
 8003164:	9405      	str	r4, [sp, #20]
 8003166:	2302      	movs	r3, #2
 8003168:	9702      	str	r7, [sp, #8]
 800316a:	9307      	str	r3, [sp, #28]
 800316c:	688a      	ldr	r2, [r1, #8]
 800316e:	9206      	str	r2, [sp, #24]
 8003170:	6848      	ldr	r0, [r1, #4]
 8003172:	69c1      	ldr	r1, [r0, #28]
 8003174:	2902      	cmp	r1, #2
 8003176:	bf04      	itt	eq
 8003178:	2003      	moveq	r0, #3
 800317a:	9007      	streq	r0, [sp, #28]
 800317c:	2100      	movs	r1, #0
 800317e:	4648      	mov	r0, r9
 8003180:	f001 f8e8 	bl	8004354 <cmox_bn_cmpUint>
 8003184:	b950      	cbnz	r0, 800319c <cmox_ScalarMul_SC+0x78>
 8003186:	69b0      	ldr	r0, [r6, #24]
 8003188:	6800      	ldr	r0, [r0, #0]
 800318a:	69c1      	ldr	r1, [r0, #28]
 800318c:	2901      	cmp	r1, #1
 800318e:	d007      	beq.n	80031a0 <cmox_ScalarMul_SC+0x7c>
 8003190:	6881      	ldr	r1, [r0, #8]
 8003192:	4648      	mov	r0, r9
 8003194:	f001 f89d 	bl	80042d2 <cmox_bn_cmp>
 8003198:	2800      	cmp	r0, #0
 800319a:	d401      	bmi.n	80031a0 <cmox_ScalarMul_SC+0x7c>
 800319c:	2401      	movs	r4, #1
 800319e:	e193      	b.n	80034c8 <cmox_ScalarMul_SC+0x3a4>
 80031a0:	69b0      	ldr	r0, [r6, #24]
 80031a2:	6841      	ldr	r1, [r0, #4]
 80031a4:	698a      	ldr	r2, [r1, #24]
 80031a6:	69f0      	ldr	r0, [r6, #28]
 80031a8:	0092      	lsls	r2, r2, #2
 80031aa:	f106 0114 	add.w	r1, r6, #20
 80031ae:	f7ff fc6a 	bl	8002a86 <cmox_membuf_alloc>
 80031b2:	0004      	movs	r4, r0
 80031b4:	d1f3      	bne.n	800319e <cmox_ScalarMul_SC+0x7a>
 80031b6:	46ba      	mov	sl, r7
 80031b8:	e00d      	b.n	80031d6 <cmox_ScalarMul_SC+0xb2>
 80031ba:	6800      	ldr	r0, [r0, #0]
 80031bc:	6801      	ldr	r1, [r0, #0]
 80031be:	6970      	ldr	r0, [r6, #20]
 80031c0:	680a      	ldr	r2, [r1, #0]
 80031c2:	eb00 018a 	add.w	r1, r0, sl, lsl #2
 80031c6:	69f0      	ldr	r0, [r6, #28]
 80031c8:	f001 f800 	bl	80041cc <cmox_bn_alloc>
 80031cc:	0004      	movs	r4, r0
 80031ce:	f040 816f 	bne.w	80034b0 <cmox_ScalarMul_SC+0x38c>
 80031d2:	f10a 0a01 	add.w	sl, sl, #1
 80031d6:	69b0      	ldr	r0, [r6, #24]
 80031d8:	6841      	ldr	r1, [r0, #4]
 80031da:	698a      	ldr	r2, [r1, #24]
 80031dc:	4592      	cmp	sl, r2
 80031de:	dbec      	blt.n	80031ba <cmox_ScalarMul_SC+0x96>
 80031e0:	f8cd a028 	str.w	sl, [sp, #40]	@ 0x28
 80031e4:	a902      	add	r1, sp, #8
 80031e6:	4630      	mov	r0, r6
 80031e8:	f7fd f85f 	bl	80002aa <cmox_ECC_AllocPoint>
 80031ec:	0004      	movs	r4, r0
 80031ee:	f040 8154 	bne.w	800349a <cmox_ScalarMul_SC+0x376>
 80031f2:	9902      	ldr	r1, [sp, #8]
 80031f4:	4630      	mov	r0, r6
 80031f6:	f7fd f93f 	bl	8000478 <cmox_ECC_SetPointAtInfinity>
 80031fa:	f899 0004 	ldrb.w	r0, [r9, #4]
 80031fe:	f000 0001 	and.w	r0, r0, #1
 8003202:	9008      	str	r0, [sp, #32]
 8003204:	4644      	mov	r4, r8
 8003206:	69b1      	ldr	r1, [r6, #24]
 8003208:	6808      	ldr	r0, [r1, #0]
 800320a:	6882      	ldr	r2, [r0, #8]
 800320c:	9808      	ldr	r0, [sp, #32]
 800320e:	4649      	mov	r1, r9
 8003210:	f1c0 0001 	rsb	r0, r0, #1
 8003214:	f7ff fb2c 	bl	8002870 <cmox_FieldBN_CondNegate>
 8003218:	f8dd a000 	ldr.w	sl, [sp]
 800321c:	46b8      	mov	r8, r7
 800321e:	e00b      	b.n	8003238 <cmox_ScalarMul_SC+0x114>
 8003220:	f108 0b01 	add.w	fp, r8, #1
 8003224:	fb04 520b 	mla	r2, r4, fp, r5
 8003228:	2101      	movs	r1, #1
 800322a:	4648      	mov	r0, r9
 800322c:	f001 f8c1 	bl	80043b2 <cmox_bn_getBits>
 8003230:	fa00 f008 	lsl.w	r0, r0, r8
 8003234:	4307      	orrs	r7, r0
 8003236:	46d8      	mov	r8, fp
 8003238:	f1aa 0001 	sub.w	r0, sl, #1
 800323c:	4580      	cmp	r8, r0
 800323e:	d3ef      	bcc.n	8003220 <cmox_ScalarMul_SC+0xfc>
 8003240:	990c      	ldr	r1, [sp, #48]	@ 0x30
 8003242:	4630      	mov	r0, r6
 8003244:	f7fd f918 	bl	8000478 <cmox_ECC_SetPointAtInfinity>
 8003248:	980c      	ldr	r0, [sp, #48]	@ 0x30
 800324a:	9001      	str	r0, [sp, #4]
 800324c:	2106      	movs	r1, #6
 800324e:	9100      	str	r1, [sp, #0]
 8003250:	1c7f      	adds	r7, r7, #1
 8003252:	9a06      	ldr	r2, [sp, #24]
 8003254:	9807      	ldr	r0, [sp, #28]
 8003256:	1d13      	adds	r3, r2, #4
 8003258:	1d11      	adds	r1, r2, #4
 800325a:	9a05      	ldr	r2, [sp, #20]
 800325c:	4347      	muls	r7, r0
 800325e:	1c7f      	adds	r7, r7, #1
 8003260:	4357      	muls	r7, r2
 8003262:	eb01 0287 	add.w	r2, r1, r7, lsl #2
 8003266:	9905      	ldr	r1, [sp, #20]
 8003268:	2001      	movs	r0, #1
 800326a:	f7fd f948 	bl	80004fe <cmox_ECC_CondImportPoint>
 800326e:	1ea7      	subs	r7, r4, #2
 8003270:	e052      	b.n	8003318 <cmox_ScalarMul_SC+0x1f4>
 8003272:	197a      	adds	r2, r7, r5
 8003274:	fb04 220b 	mla	r2, r4, fp, r2
 8003278:	1c52      	adds	r2, r2, #1
 800327a:	2101      	movs	r1, #1
 800327c:	4648      	mov	r0, r9
 800327e:	f001 f898 	bl	80043b2 <cmox_bn_getBits>
 8003282:	fa00 f00b 	lsl.w	r0, r0, fp
 8003286:	ea40 0808 	orr.w	r8, r0, r8
 800328a:	f10b 0b01 	add.w	fp, fp, #1
 800328e:	45d3      	cmp	fp, sl
 8003290:	d3ef      	bcc.n	8003272 <cmox_ScalarMul_SC+0x14e>
 8003292:	f8d6 e018 	ldr.w	lr, [r6, #24]
 8003296:	f89d 0010 	ldrb.w	r0, [sp, #16]
 800329a:	f8de c004 	ldr.w	ip, [lr, #4]
 800329e:	9a0c      	ldr	r2, [sp, #48]	@ 0x30
 80032a0:	f8dc c000 	ldr.w	ip, [ip]
 80032a4:	fa28 f000 	lsr.w	r0, r8, r0
 80032a8:	f000 0b01 	and.w	fp, r0, #1
 80032ac:	2301      	movs	r3, #1
 80032ae:	4611      	mov	r1, r2
 80032b0:	4630      	mov	r0, r6
 80032b2:	47e0      	blx	ip
 80032b4:	9802      	ldr	r0, [sp, #8]
 80032b6:	f8dd e01c 	ldr.w	lr, [sp, #28]
 80032ba:	f8dd c014 	ldr.w	ip, [sp, #20]
 80032be:	9001      	str	r0, [sp, #4]
 80032c0:	2106      	movs	r1, #6
 80032c2:	9806      	ldr	r0, [sp, #24]
 80032c4:	9100      	str	r1, [sp, #0]
 80032c6:	1d02      	adds	r2, r0, #4
 80032c8:	f1ab 0101 	sub.w	r1, fp, #1
 80032cc:	9809      	ldr	r0, [sp, #36]	@ 0x24
 80032ce:	ea81 0108 	eor.w	r1, r1, r8
 80032d2:	4008      	ands	r0, r1
 80032d4:	1c40      	adds	r0, r0, #1
 80032d6:	fb00 f00e 	mul.w	r0, r0, lr
 80032da:	1c40      	adds	r0, r0, #1
 80032dc:	fb00 f00c 	mul.w	r0, r0, ip
 80032e0:	eb02 0280 	add.w	r2, r2, r0, lsl #2
 80032e4:	2300      	movs	r3, #0
 80032e6:	4661      	mov	r1, ip
 80032e8:	2001      	movs	r0, #1
 80032ea:	f7fd f908 	bl	80004fe <cmox_ECC_CondImportPoint>
 80032ee:	9a02      	ldr	r2, [sp, #8]
 80032f0:	f1cb 0b01 	rsb	fp, fp, #1
 80032f4:	4631      	mov	r1, r6
 80032f6:	4658      	mov	r0, fp
 80032f8:	f7fd f897 	bl	800042a <cmox_ECC_CondSymmetricPoint>
 80032fc:	2000      	movs	r0, #0
 80032fe:	9000      	str	r0, [sp, #0]
 8003300:	4630      	mov	r0, r6
 8003302:	f8d6 c018 	ldr.w	ip, [r6, #24]
 8003306:	f8dc e004 	ldr.w	lr, [ip, #4]
 800330a:	9b0c      	ldr	r3, [sp, #48]	@ 0x30
 800330c:	9a02      	ldr	r2, [sp, #8]
 800330e:	f8de c004 	ldr.w	ip, [lr, #4]
 8003312:	4619      	mov	r1, r3
 8003314:	47e0      	blx	ip
 8003316:	1e7f      	subs	r7, r7, #1
 8003318:	1e68      	subs	r0, r5, #1
 800331a:	4180      	sbcs	r0, r0
 800331c:	ebb7 7fd0 	cmp.w	r7, r0, lsr #31
 8003320:	db03      	blt.n	800332a <cmox_ScalarMul_SC+0x206>
 8003322:	f04f 0800 	mov.w	r8, #0
 8003326:	46c3      	mov	fp, r8
 8003328:	e7b1      	b.n	800328e <cmox_ScalarMul_SC+0x16a>
 800332a:	bb9d      	cbnz	r5, 8003394 <cmox_ScalarMul_SC+0x270>
 800332c:	2700      	movs	r7, #0
 800332e:	e009      	b.n	8003344 <cmox_ScalarMul_SC+0x220>
 8003330:	fb04 f207 	mul.w	r2, r4, r7
 8003334:	1c52      	adds	r2, r2, #1
 8003336:	2101      	movs	r1, #1
 8003338:	4648      	mov	r0, r9
 800333a:	f001 f83a 	bl	80043b2 <cmox_bn_getBits>
 800333e:	40b8      	lsls	r0, r7
 8003340:	4305      	orrs	r5, r0
 8003342:	1c7f      	adds	r7, r7, #1
 8003344:	4557      	cmp	r7, sl
 8003346:	d3f3      	bcc.n	8003330 <cmox_ScalarMul_SC+0x20c>
 8003348:	69b4      	ldr	r4, [r6, #24]
 800334a:	6864      	ldr	r4, [r4, #4]
 800334c:	9a0c      	ldr	r2, [sp, #48]	@ 0x30
 800334e:	f8d4 c000 	ldr.w	ip, [r4]
 8003352:	2301      	movs	r3, #1
 8003354:	4611      	mov	r1, r2
 8003356:	f89d 0010 	ldrb.w	r0, [sp, #16]
 800335a:	fa25 f700 	lsr.w	r7, r5, r0
 800335e:	4630      	mov	r0, r6
 8003360:	47e0      	blx	ip
 8003362:	9802      	ldr	r0, [sp, #8]
 8003364:	f8dd a01c 	ldr.w	sl, [sp, #28]
 8003368:	9c05      	ldr	r4, [sp, #20]
 800336a:	9001      	str	r0, [sp, #4]
 800336c:	2106      	movs	r1, #6
 800336e:	9806      	ldr	r0, [sp, #24]
 8003370:	9100      	str	r1, [sp, #0]
 8003372:	f007 0701 	and.w	r7, r7, #1
 8003376:	1d02      	adds	r2, r0, #4
 8003378:	1e79      	subs	r1, r7, #1
 800337a:	9809      	ldr	r0, [sp, #36]	@ 0x24
 800337c:	404d      	eors	r5, r1
 800337e:	4005      	ands	r5, r0
 8003380:	1c6d      	adds	r5, r5, #1
 8003382:	fb05 f50a 	mul.w	r5, r5, sl
 8003386:	1c6d      	adds	r5, r5, #1
 8003388:	4365      	muls	r5, r4
 800338a:	2300      	movs	r3, #0
 800338c:	eb02 0285 	add.w	r2, r2, r5, lsl #2
 8003390:	4621      	mov	r1, r4
 8003392:	e04b      	b.n	800342c <cmox_ScalarMul_SC+0x308>
 8003394:	9806      	ldr	r0, [sp, #24]
 8003396:	9a05      	ldr	r2, [sp, #20]
 8003398:	1e6f      	subs	r7, r5, #1
 800339a:	1d01      	adds	r1, r0, #4
 800339c:	9d0c      	ldr	r5, [sp, #48]	@ 0x30
 800339e:	eb01 0482 	add.w	r4, r1, r2, lsl #2
 80033a2:	4692      	mov	sl, r2
 80033a4:	e029      	b.n	80033fa <cmox_ScalarMul_SC+0x2d6>
 80033a6:	2301      	movs	r3, #1
 80033a8:	462a      	mov	r2, r5
 80033aa:	4629      	mov	r1, r5
 80033ac:	4630      	mov	r0, r6
 80033ae:	47e0      	blx	ip
 80033b0:	1c7a      	adds	r2, r7, #1
 80033b2:	2101      	movs	r1, #1
 80033b4:	4648      	mov	r0, r9
 80033b6:	f000 fffc 	bl	80043b2 <cmox_bn_getBits>
 80033ba:	4680      	mov	r8, r0
 80033bc:	9802      	ldr	r0, [sp, #8]
 80033be:	9001      	str	r0, [sp, #4]
 80033c0:	2106      	movs	r1, #6
 80033c2:	9100      	str	r1, [sp, #0]
 80033c4:	2300      	movs	r3, #0
 80033c6:	4622      	mov	r2, r4
 80033c8:	4651      	mov	r1, sl
 80033ca:	2001      	movs	r0, #1
 80033cc:	f7fd f897 	bl	80004fe <cmox_ECC_CondImportPoint>
 80033d0:	9a02      	ldr	r2, [sp, #8]
 80033d2:	f1c8 0801 	rsb	r8, r8, #1
 80033d6:	4631      	mov	r1, r6
 80033d8:	4640      	mov	r0, r8
 80033da:	f7fd f826 	bl	800042a <cmox_ECC_CondSymmetricPoint>
 80033de:	2000      	movs	r0, #0
 80033e0:	9000      	str	r0, [sp, #0]
 80033e2:	462b      	mov	r3, r5
 80033e4:	f8d6 c018 	ldr.w	ip, [r6, #24]
 80033e8:	f8dc e004 	ldr.w	lr, [ip, #4]
 80033ec:	9a02      	ldr	r2, [sp, #8]
 80033ee:	f8de c004 	ldr.w	ip, [lr, #4]
 80033f2:	4629      	mov	r1, r5
 80033f4:	4630      	mov	r0, r6
 80033f6:	47e0      	blx	ip
 80033f8:	1e7f      	subs	r7, r7, #1
 80033fa:	69b0      	ldr	r0, [r6, #24]
 80033fc:	6841      	ldr	r1, [r0, #4]
 80033fe:	f8d1 c000 	ldr.w	ip, [r1]
 8003402:	2f00      	cmp	r7, #0
 8003404:	dccf      	bgt.n	80033a6 <cmox_ScalarMul_SC+0x282>
 8003406:	462a      	mov	r2, r5
 8003408:	950c      	str	r5, [sp, #48]	@ 0x30
 800340a:	2301      	movs	r3, #1
 800340c:	4611      	mov	r1, r2
 800340e:	4630      	mov	r0, r6
 8003410:	47e0      	blx	ip
 8003412:	2201      	movs	r2, #1
 8003414:	2101      	movs	r1, #1
 8003416:	4648      	mov	r0, r9
 8003418:	f000 ffcb 	bl	80043b2 <cmox_bn_getBits>
 800341c:	4607      	mov	r7, r0
 800341e:	2106      	movs	r1, #6
 8003420:	9802      	ldr	r0, [sp, #8]
 8003422:	9100      	str	r1, [sp, #0]
 8003424:	9001      	str	r0, [sp, #4]
 8003426:	2300      	movs	r3, #0
 8003428:	4622      	mov	r2, r4
 800342a:	4651      	mov	r1, sl
 800342c:	2001      	movs	r0, #1
 800342e:	f7fd f866 	bl	80004fe <cmox_ECC_CondImportPoint>
 8003432:	9a02      	ldr	r2, [sp, #8]
 8003434:	f1c7 0701 	rsb	r7, r7, #1
 8003438:	4631      	mov	r1, r6
 800343a:	4638      	mov	r0, r7
 800343c:	f7fc fff5 	bl	800042a <cmox_ECC_CondSymmetricPoint>
 8003440:	a803      	add	r0, sp, #12
 8003442:	9000      	str	r0, [sp, #0]
 8003444:	4630      	mov	r0, r6
 8003446:	69b4      	ldr	r4, [r6, #24]
 8003448:	6865      	ldr	r5, [r4, #4]
 800344a:	9b0c      	ldr	r3, [sp, #48]	@ 0x30
 800344c:	9a02      	ldr	r2, [sp, #8]
 800344e:	686c      	ldr	r4, [r5, #4]
 8003450:	4619      	mov	r1, r3
 8003452:	47a0      	blx	r4
 8003454:	69b4      	ldr	r4, [r6, #24]
 8003456:	6865      	ldr	r5, [r4, #4]
 8003458:	9b03      	ldr	r3, [sp, #12]
 800345a:	9a0c      	ldr	r2, [sp, #48]	@ 0x30
 800345c:	f8d5 a000 	ldr.w	sl, [r5]
 8003460:	f003 0301 	and.w	r3, r3, #1
 8003464:	4611      	mov	r1, r2
 8003466:	4630      	mov	r0, r6
 8003468:	47d0      	blx	sl
 800346a:	69b0      	ldr	r0, [r6, #24]
 800346c:	6801      	ldr	r1, [r0, #0]
 800346e:	9c08      	ldr	r4, [sp, #32]
 8003470:	688a      	ldr	r2, [r1, #8]
 8003472:	f1c4 0401 	rsb	r4, r4, #1
 8003476:	4649      	mov	r1, r9
 8003478:	4620      	mov	r0, r4
 800347a:	f7ff f9f9 	bl	8002870 <cmox_FieldBN_CondNegate>
 800347e:	9a0c      	ldr	r2, [sp, #48]	@ 0x30
 8003480:	4631      	mov	r1, r6
 8003482:	4620      	mov	r0, r4
 8003484:	f7fc ffd1 	bl	800042a <cmox_ECC_CondSymmetricPoint>
 8003488:	990c      	ldr	r1, [sp, #48]	@ 0x30
 800348a:	4630      	mov	r0, r6
 800348c:	f7fd f8de 	bl	800064c <cmox_ECC_PointFromModularDomain>
 8003490:	4604      	mov	r4, r0
 8003492:	a902      	add	r1, sp, #8
 8003494:	4630      	mov	r0, r6
 8003496:	f7fc ff64 	bl	8000362 <cmox_ECC_FreePoint>
 800349a:	f8dd a028 	ldr.w	sl, [sp, #40]	@ 0x28
 800349e:	e007      	b.n	80034b0 <cmox_ScalarMul_SC+0x38c>
 80034a0:	6971      	ldr	r1, [r6, #20]
 80034a2:	eb01 028a 	add.w	r2, r1, sl, lsl #2
 80034a6:	1f11      	subs	r1, r2, #4
 80034a8:	f000 fe9b 	bl	80041e2 <cmox_bn_free>
 80034ac:	f1aa 0a01 	sub.w	sl, sl, #1
 80034b0:	69f0      	ldr	r0, [r6, #28]
 80034b2:	f1ba 0f00 	cmp.w	sl, #0
 80034b6:	dcf3      	bgt.n	80034a0 <cmox_ScalarMul_SC+0x37c>
 80034b8:	69b1      	ldr	r1, [r6, #24]
 80034ba:	684a      	ldr	r2, [r1, #4]
 80034bc:	6992      	ldr	r2, [r2, #24]
 80034be:	0092      	lsls	r2, r2, #2
 80034c0:	f106 0114 	add.w	r1, r6, #20
 80034c4:	f7ff fafe 	bl	8002ac4 <cmox_membuf_free>
 80034c8:	4620      	mov	r0, r4
 80034ca:	b00d      	add	sp, #52	@ 0x34
 80034cc:	e8bd 8ff0 	ldmia.w	sp!, {r4, r5, r6, r7, r8, r9, sl, fp, pc}

080034d0 <cmox_ScalarMul_wMOF>:
 80034d0:	e92d 4ff0 	stmdb	sp!, {r4, r5, r6, r7, r8, r9, sl, fp, lr}
 80034d4:	b099      	sub	sp, #100	@ 0x64
 80034d6:	460e      	mov	r6, r1
 80034d8:	f04f 31ff 	mov.w	r1, #4294967295
 80034dc:	9112      	str	r1, [sp, #72]	@ 0x48
 80034de:	9111      	str	r1, [sp, #68]	@ 0x44
 80034e0:	9110      	str	r1, [sp, #64]	@ 0x40
 80034e2:	9101      	str	r1, [sp, #4]
 80034e4:	4617      	mov	r7, r2
 80034e6:	2101      	movs	r1, #1
 80034e8:	4605      	mov	r5, r0
 80034ea:	9117      	str	r1, [sp, #92]	@ 0x5c
 80034ec:	2200      	movs	r2, #0
 80034ee:	9207      	str	r2, [sp, #28]
 80034f0:	9206      	str	r2, [sp, #24]
 80034f2:	461c      	mov	r4, r3
 80034f4:	69a9      	ldr	r1, [r5, #24]
 80034f6:	6808      	ldr	r0, [r1, #0]
 80034f8:	6802      	ldr	r2, [r0, #0]
 80034fa:	6813      	ldr	r3, [r2, #0]
 80034fc:	930a      	str	r3, [sp, #40]	@ 0x28
 80034fe:	f04f 0902 	mov.w	r9, #2
 8003502:	68ca      	ldr	r2, [r1, #12]
 8003504:	6813      	ldr	r3, [r2, #0]
 8003506:	9304      	str	r3, [sp, #16]
 8003508:	9209      	str	r2, [sp, #36]	@ 0x24
 800350a:	9804      	ldr	r0, [sp, #16]
 800350c:	f8df 2634 	ldr.w	r2, [pc, #1588]	@ 8003b44 <cmox_ScalarMul_wMOF+0x674>
 8003510:	1e40      	subs	r0, r0, #1
 8003512:	0840      	lsrs	r0, r0, #1
 8003514:	eb02 0380 	add.w	r3, r2, r0, lsl #2
 8003518:	1f1a      	subs	r2, r3, #4
 800351a:	920c      	str	r2, [sp, #48]	@ 0x30
 800351c:	f8df 2628 	ldr.w	r2, [pc, #1576]	@ 8003b48 <cmox_ScalarMul_wMOF+0x678>
 8003520:	f8dd 8088 	ldr.w	r8, [sp, #136]	@ 0x88
 8003524:	eb02 0080 	add.w	r0, r2, r0, lsl #2
 8003528:	1f03      	subs	r3, r0, #4
 800352a:	930b      	str	r3, [sp, #44]	@ 0x2c
 800352c:	6848      	ldr	r0, [r1, #4]
 800352e:	69c1      	ldr	r1, [r0, #28]
 8003530:	2902      	cmp	r1, #2
 8003532:	bf08      	it	eq
 8003534:	f04f 0903 	moveq.w	r9, #3
 8003538:	4641      	mov	r1, r8
 800353a:	4628      	mov	r0, r5
 800353c:	f7fc ff9c 	bl	8000478 <cmox_ECC_SetPointAtInfinity>
 8003540:	4641      	mov	r1, r8
 8003542:	4628      	mov	r0, r5
 8003544:	f7fd f858 	bl	80005f8 <cmox_ECC_PointToModularDomain>
 8003548:	69a8      	ldr	r0, [r5, #24]
 800354a:	6800      	ldr	r0, [r0, #0]
 800354c:	9408      	str	r4, [sp, #32]
 800354e:	69c1      	ldr	r1, [r0, #28]
 8003550:	2901      	cmp	r1, #1
 8003552:	d010      	beq.n	8003576 <cmox_ScalarMul_wMOF+0xa6>
 8003554:	6881      	ldr	r1, [r0, #8]
 8003556:	4630      	mov	r0, r6
 8003558:	f000 febb 	bl	80042d2 <cmox_bn_cmp>
 800355c:	2800      	cmp	r0, #0
 800355e:	d507      	bpl.n	8003570 <cmox_ScalarMul_wMOF+0xa0>
 8003560:	69a8      	ldr	r0, [r5, #24]
 8003562:	6801      	ldr	r1, [r0, #0]
 8003564:	9808      	ldr	r0, [sp, #32]
 8003566:	6889      	ldr	r1, [r1, #8]
 8003568:	f000 feb3 	bl	80042d2 <cmox_bn_cmp>
 800356c:	2800      	cmp	r0, #0
 800356e:	d402      	bmi.n	8003576 <cmox_ScalarMul_wMOF+0xa6>
 8003570:	2001      	movs	r0, #1
 8003572:	9005      	str	r0, [sp, #20]
 8003574:	e2e1      	b.n	8003b3a <cmox_ScalarMul_wMOF+0x66a>
 8003576:	69a8      	ldr	r0, [r5, #24]
 8003578:	6841      	ldr	r1, [r0, #4]
 800357a:	698a      	ldr	r2, [r1, #24]
 800357c:	69e8      	ldr	r0, [r5, #28]
 800357e:	0092      	lsls	r2, r2, #2
 8003580:	f105 0114 	add.w	r1, r5, #20
 8003584:	f7ff fa7f 	bl	8002a86 <cmox_membuf_alloc>
 8003588:	2800      	cmp	r0, #0
 800358a:	9005      	str	r0, [sp, #20]
 800358c:	d1f2      	bne.n	8003574 <cmox_ScalarMul_wMOF+0xa4>
 800358e:	2400      	movs	r4, #0
 8003590:	e00c      	b.n	80035ac <cmox_ScalarMul_wMOF+0xdc>
 8003592:	6809      	ldr	r1, [r1, #0]
 8003594:	680a      	ldr	r2, [r1, #0]
 8003596:	6969      	ldr	r1, [r5, #20]
 8003598:	6812      	ldr	r2, [r2, #0]
 800359a:	eb01 0184 	add.w	r1, r1, r4, lsl #2
 800359e:	f000 fe15 	bl	80041cc <cmox_bn_alloc>
 80035a2:	2800      	cmp	r0, #0
 80035a4:	9005      	str	r0, [sp, #20]
 80035a6:	f040 82bd 	bne.w	8003b24 <cmox_ScalarMul_wMOF+0x654>
 80035aa:	1c64      	adds	r4, r4, #1
 80035ac:	69a9      	ldr	r1, [r5, #24]
 80035ae:	684a      	ldr	r2, [r1, #4]
 80035b0:	6993      	ldr	r3, [r2, #24]
 80035b2:	69e8      	ldr	r0, [r5, #28]
 80035b4:	429c      	cmp	r4, r3
 80035b6:	d3ec      	bcc.n	8003592 <cmox_ScalarMul_wMOF+0xc2>
 80035b8:	9b04      	ldr	r3, [sp, #16]
 80035ba:	2201      	movs	r2, #1
 80035bc:	1e99      	subs	r1, r3, #2
 80035be:	408a      	lsls	r2, r1
 80035c0:	0092      	lsls	r2, r2, #2
 80035c2:	9215      	str	r2, [sp, #84]	@ 0x54
 80035c4:	a902      	add	r1, sp, #8
 80035c6:	f7ff fa5e 	bl	8002a86 <cmox_membuf_alloc>
 80035ca:	2800      	cmp	r0, #0
 80035cc:	46a3      	mov	fp, r4
 80035ce:	9005      	str	r0, [sp, #20]
 80035d0:	f040 829f 	bne.w	8003b12 <cmox_ScalarMul_wMOF+0x642>
 80035d4:	9904      	ldr	r1, [sp, #16]
 80035d6:	2001      	movs	r0, #1
 80035d8:	1e89      	subs	r1, r1, #2
 80035da:	2400      	movs	r4, #0
 80035dc:	fa00 fa01 	lsl.w	sl, r0, r1
 80035e0:	e010      	b.n	8003604 <cmox_ScalarMul_wMOF+0x134>
 80035e2:	9802      	ldr	r0, [sp, #8]
 80035e4:	eb00 0184 	add.w	r1, r0, r4, lsl #2
 80035e8:	4628      	mov	r0, r5
 80035ea:	f7fc fe5e 	bl	80002aa <cmox_ECC_AllocPoint>
 80035ee:	2800      	cmp	r0, #0
 80035f0:	9005      	str	r0, [sp, #20]
 80035f2:	f040 8287 	bne.w	8003b04 <cmox_ScalarMul_wMOF+0x634>
 80035f6:	9802      	ldr	r0, [sp, #8]
 80035f8:	f850 1024 	ldr.w	r1, [r0, r4, lsl #2]
 80035fc:	4628      	mov	r0, r5
 80035fe:	f7fc ff3b 	bl	8000478 <cmox_ECC_SetPointAtInfinity>
 8003602:	1c64      	adds	r4, r4, #1
 8003604:	4554      	cmp	r4, sl
 8003606:	d3ec      	bcc.n	80035e2 <cmox_ScalarMul_wMOF+0x112>
 8003608:	9503      	str	r5, [sp, #12]
 800360a:	9418      	str	r4, [sp, #96]	@ 0x60
 800360c:	2100      	movs	r1, #0
 800360e:	463c      	mov	r4, r7
 8003610:	7c20      	ldrb	r0, [r4, #16]
 8003612:	f000 0004 	and.w	r0, r0, #4
 8003616:	f7ff fa00 	bl	8002a1a <cmox_mathUtils_neq>
 800361a:	b920      	cbnz	r0, 8003626 <cmox_ScalarMul_wMOF+0x156>
 800361c:	9017      	str	r0, [sp, #92]	@ 0x5c
 800361e:	4621      	mov	r1, r4
 8003620:	9803      	ldr	r0, [sp, #12]
 8003622:	f7fc ffe9 	bl	80005f8 <cmox_ECC_PointToModularDomain>
 8003626:	9803      	ldr	r0, [sp, #12]
 8003628:	4621      	mov	r1, r4
 800362a:	f7fd f83d 	bl	80006a8 <cmox_ECC_PointValidation>
 800362e:	2800      	cmp	r0, #0
 8003630:	9005      	str	r0, [sp, #20]
 8003632:	f040 825c 	bne.w	8003aee <cmox_ScalarMul_wMOF+0x61e>
 8003636:	9803      	ldr	r0, [sp, #12]
 8003638:	6985      	ldr	r5, [r0, #24]
 800363a:	9f02      	ldr	r7, [sp, #8]
 800363c:	686d      	ldr	r5, [r5, #4]
 800363e:	683a      	ldr	r2, [r7, #0]
 8003640:	68ef      	ldr	r7, [r5, #12]
 8003642:	2301      	movs	r3, #1
 8003644:	4621      	mov	r1, r4
 8003646:	47b8      	blx	r7
 8003648:	9902      	ldr	r1, [sp, #8]
 800364a:	2000      	movs	r0, #0
 800364c:	9000      	str	r0, [sp, #0]
 800364e:	4622      	mov	r2, r4
 8003650:	9803      	ldr	r0, [sp, #12]
 8003652:	6985      	ldr	r5, [r0, #24]
 8003654:	686d      	ldr	r5, [r5, #4]
 8003656:	684b      	ldr	r3, [r1, #4]
 8003658:	6809      	ldr	r1, [r1, #0]
 800365a:	692f      	ldr	r7, [r5, #16]
 800365c:	47b8      	blx	r7
 800365e:	9f03      	ldr	r7, [sp, #12]
 8003660:	2502      	movs	r5, #2
 8003662:	e010      	b.n	8003686 <cmox_ScalarMul_wMOF+0x1b6>
 8003664:	9802      	ldr	r0, [sp, #8]
 8003666:	f8d7 c018 	ldr.w	ip, [r7, #24]
 800366a:	f850 3025 	ldr.w	r3, [r0, r5, lsl #2]
 800366e:	6802      	ldr	r2, [r0, #0]
 8003670:	f8dc e004 	ldr.w	lr, [ip, #4]
 8003674:	f8de c014 	ldr.w	ip, [lr, #20]
 8003678:	eb00 0085 	add.w	r0, r0, r5, lsl #2
 800367c:	1c6d      	adds	r5, r5, #1
 800367e:	f850 1c04 	ldr.w	r1, [r0, #-4]
 8003682:	4638      	mov	r0, r7
 8003684:	47e0      	blx	ip
 8003686:	2001      	movs	r0, #1
 8003688:	4555      	cmp	r5, sl
 800368a:	900e      	str	r0, [sp, #56]	@ 0x38
 800368c:	d3ea      	bcc.n	8003664 <cmox_ScalarMul_wMOF+0x194>
 800368e:	9808      	ldr	r0, [sp, #32]
 8003690:	f000 fe76 	bl	8004380 <cmox_bn_countBits>
 8003694:	4605      	mov	r5, r0
 8003696:	4630      	mov	r0, r6
 8003698:	f000 fe72 	bl	8004380 <cmox_bn_countBits>
 800369c:	4285      	cmp	r5, r0
 800369e:	bf2c      	ite	cs
 80036a0:	9808      	ldrcs	r0, [sp, #32]
 80036a2:	4630      	movcc	r0, r6
 80036a4:	f000 fe6c 	bl	8004380 <cmox_bn_countBits>
 80036a8:	960d      	str	r6, [sp, #52]	@ 0x34
 80036aa:	940f      	str	r4, [sp, #60]	@ 0x3c
 80036ac:	9d01      	ldr	r5, [sp, #4]
 80036ae:	9c12      	ldr	r4, [sp, #72]	@ 0x48
 80036b0:	9e11      	ldr	r6, [sp, #68]	@ 0x44
 80036b2:	f8dd a040 	ldr.w	sl, [sp, #64]	@ 0x40
 80036b6:	f8cd 9058 	str.w	r9, [sp, #88]	@ 0x58
 80036ba:	4681      	mov	r9, r0
 80036bc:	e075      	b.n	80037aa <cmox_ScalarMul_wMOF+0x2da>
 80036be:	f8dd c030 	ldr.w	ip, [sp, #48]	@ 0x30
 80036c2:	9a03      	ldr	r2, [sp, #12]
 80036c4:	9806      	ldr	r0, [sp, #24]
 80036c6:	9e16      	ldr	r6, [sp, #88]	@ 0x58
 80036c8:	9101      	str	r1, [sp, #4]
 80036ca:	1a10      	subs	r0, r2, r0
 80036cc:	f1a0 0e01 	sub.w	lr, r0, #1
 80036d0:	ea4f 0ede 	mov.w	lr, lr, lsr #3
 80036d4:	1e40      	subs	r0, r0, #1
 80036d6:	2106      	movs	r1, #6
 80036d8:	0080      	lsls	r0, r0, #2
 80036da:	9100      	str	r1, [sp, #0]
 80036dc:	f000 001c 	and.w	r0, r0, #28
 80036e0:	f85c c02e 	ldr.w	ip, [ip, lr, lsl #2]
 80036e4:	9a09      	ldr	r2, [sp, #36]	@ 0x24
 80036e6:	fa2c f000 	lsr.w	r0, ip, r0
 80036ea:	1d13      	adds	r3, r2, #4
 80036ec:	1d11      	adds	r1, r2, #4
 80036ee:	f000 000f 	and.w	r0, r0, #15
 80036f2:	9a0a      	ldr	r2, [sp, #40]	@ 0x28
 80036f4:	4346      	muls	r6, r0
 80036f6:	1c76      	adds	r6, r6, #1
 80036f8:	4372      	muls	r2, r6
 80036fa:	eb01 0282 	add.w	r2, r1, r2, lsl #2
 80036fe:	990a      	ldr	r1, [sp, #40]	@ 0x28
 8003700:	2001      	movs	r0, #1
 8003702:	f7fc fefc 	bl	80004fe <cmox_ECC_CondImportPoint>
 8003706:	9802      	ldr	r0, [sp, #8]
 8003708:	6802      	ldr	r2, [r0, #0]
 800370a:	4639      	mov	r1, r7
 800370c:	2001      	movs	r0, #1
 800370e:	f7fc fe8c 	bl	800042a <cmox_ECC_CondSymmetricPoint>
 8003712:	e03a      	b.n	800378a <cmox_ScalarMul_wMOF+0x2ba>
 8003714:	9903      	ldr	r1, [sp, #12]
 8003716:	1a08      	subs	r0, r1, r0
 8003718:	990b      	ldr	r1, [sp, #44]	@ 0x2c
 800371a:	1e42      	subs	r2, r0, #1
 800371c:	08d2      	lsrs	r2, r2, #3
 800371e:	1e40      	subs	r0, r0, #1
 8003720:	f851 5022 	ldr.w	r5, [r1, r2, lsl #2]
 8003724:	0080      	lsls	r0, r0, #2
 8003726:	f000 001c 	and.w	r0, r0, #28
 800372a:	40c5      	lsrs	r5, r0
 800372c:	f89d 6002 	ldrb.w	r6, [sp, #2]
 8003730:	f005 050f 	and.w	r5, r5, #15
 8003734:	1b76      	subs	r6, r6, r5
 8003736:	b276      	sxtb	r6, r6
 8003738:	bbae      	cbnz	r6, 80037a6 <cmox_ScalarMul_wMOF+0x2d6>
 800373a:	9802      	ldr	r0, [sp, #8]
 800373c:	6801      	ldr	r1, [r0, #0]
 800373e:	9a06      	ldr	r2, [sp, #24]
 8003740:	9801      	ldr	r0, [sp, #4]
 8003742:	4282      	cmp	r2, r0
 8003744:	dabb      	bge.n	80036be <cmox_ScalarMul_wMOF+0x1ee>
 8003746:	9e0c      	ldr	r6, [sp, #48]	@ 0x30
 8003748:	f8dd c018 	ldr.w	ip, [sp, #24]
 800374c:	9a16      	ldr	r2, [sp, #88]	@ 0x58
 800374e:	9809      	ldr	r0, [sp, #36]	@ 0x24
 8003750:	9101      	str	r1, [sp, #4]
 8003752:	ea4f 0cdc 	mov.w	ip, ip, lsr #3
 8003756:	2106      	movs	r1, #6
 8003758:	9100      	str	r1, [sp, #0]
 800375a:	1d03      	adds	r3, r0, #4
 800375c:	f856 602c 	ldr.w	r6, [r6, ip, lsl #2]
 8003760:	f8dd c018 	ldr.w	ip, [sp, #24]
 8003764:	990a      	ldr	r1, [sp, #40]	@ 0x28
 8003766:	ea4f 0e8c 	mov.w	lr, ip, lsl #2
 800376a:	f00e 0e1c 	and.w	lr, lr, #28
 800376e:	fa26 f60e 	lsr.w	r6, r6, lr
 8003772:	f006 060f 	and.w	r6, r6, #15
 8003776:	4372      	muls	r2, r6
 8003778:	1c52      	adds	r2, r2, #1
 800377a:	1d00      	adds	r0, r0, #4
 800377c:	4351      	muls	r1, r2
 800377e:	eb00 0281 	add.w	r2, r0, r1, lsl #2
 8003782:	990a      	ldr	r1, [sp, #40]	@ 0x28
 8003784:	2001      	movs	r0, #1
 8003786:	f7fc feba 	bl	80004fe <cmox_ECC_CondImportPoint>
 800378a:	9902      	ldr	r1, [sp, #8]
 800378c:	2000      	movs	r0, #0
 800378e:	9000      	str	r0, [sp, #0]
 8003790:	4643      	mov	r3, r8
 8003792:	69be      	ldr	r6, [r7, #24]
 8003794:	f8d6 c004 	ldr.w	ip, [r6, #4]
 8003798:	680a      	ldr	r2, [r1, #0]
 800379a:	f8dc 6010 	ldr.w	r6, [ip, #16]
 800379e:	4641      	mov	r1, r8
 80037a0:	4638      	mov	r0, r7
 80037a2:	47b0      	blx	r6
 80037a4:	9e10      	ldr	r6, [sp, #64]	@ 0x40
 80037a6:	f1a9 0901 	sub.w	r9, r9, #1
 80037aa:	f1b9 0f00 	cmp.w	r9, #0
 80037ae:	bfd8      	it	le
 80037b0:	2c00      	cmple	r4, #0
 80037b2:	dc06      	bgt.n	80037c2 <cmox_ScalarMul_wMOF+0x2f2>
 80037b4:	f1ba 0f00 	cmp.w	sl, #0
 80037b8:	bfdc      	itt	le
 80037ba:	2e00      	cmple	r6, #0
 80037bc:	2d00      	cmple	r5, #0
 80037be:	f340 813a 	ble.w	8003a36 <cmox_ScalarMul_wMOF+0x566>
 80037c2:	f1b9 0f00 	cmp.w	r9, #0
 80037c6:	d40a      	bmi.n	80037de <cmox_ScalarMul_wMOF+0x30e>
 80037c8:	f8d7 c018 	ldr.w	ip, [r7, #24]
 80037cc:	f8dc e004 	ldr.w	lr, [ip, #4]
 80037d0:	f8de c00c 	ldr.w	ip, [lr, #12]
 80037d4:	2301      	movs	r3, #1
 80037d6:	4642      	mov	r2, r8
 80037d8:	4641      	mov	r1, r8
 80037da:	4638      	mov	r0, r7
 80037dc:	47e0      	blx	ip
 80037de:	2c00      	cmp	r4, #0
 80037e0:	dd02      	ble.n	80037e8 <cmox_ScalarMul_wMOF+0x318>
 80037e2:	1e64      	subs	r4, r4, #1
 80037e4:	b264      	sxtb	r4, r4
 80037e6:	e006      	b.n	80037f6 <cmox_ScalarMul_wMOF+0x326>
 80037e8:	f1ba 0f00 	cmp.w	sl, #0
 80037ec:	bfc4      	itt	gt
 80037ee:	f1aa 0001 	subgt.w	r0, sl, #1
 80037f2:	fa4f fa80 	sxtbgt.w	sl, r0
 80037f6:	2e00      	cmp	r6, #0
 80037f8:	dd02      	ble.n	8003800 <cmox_ScalarMul_wMOF+0x330>
 80037fa:	1e76      	subs	r6, r6, #1
 80037fc:	b276      	sxtb	r6, r6
 80037fe:	e003      	b.n	8003808 <cmox_ScalarMul_wMOF+0x338>
 8003800:	2d00      	cmp	r5, #0
 8003802:	bfc4      	itt	gt
 8003804:	1e6d      	subgt	r5, r5, #1
 8003806:	b26d      	sxtbgt	r5, r5
 8003808:	9904      	ldr	r1, [sp, #16]
 800380a:	980e      	ldr	r0, [sp, #56]	@ 0x38
 800380c:	1c49      	adds	r1, r1, #1
 800380e:	4088      	lsls	r0, r1
 8003810:	1e40      	subs	r0, r0, #1
 8003812:	f88d 0003 	strb.w	r0, [sp, #3]
 8003816:	9804      	ldr	r0, [sp, #16]
 8003818:	990e      	ldr	r1, [sp, #56]	@ 0x38
 800381a:	1e42      	subs	r2, r0, #1
 800381c:	4091      	lsls	r1, r2
 800381e:	9101      	str	r1, [sp, #4]
 8003820:	9804      	ldr	r0, [sp, #16]
 8003822:	9a04      	ldr	r2, [sp, #16]
 8003824:	1e41      	subs	r1, r0, #1
 8003826:	f88d 1002 	strb.w	r1, [sp, #2]
 800382a:	eba2 0209 	sub.w	r2, r2, r9
 800382e:	980e      	ldr	r0, [sp, #56]	@ 0x38
 8003830:	9904      	ldr	r1, [sp, #16]
 8003832:	f88d 2001 	strb.w	r2, [sp, #1]
 8003836:	4088      	lsls	r0, r1
 8003838:	9904      	ldr	r1, [sp, #16]
 800383a:	9003      	str	r0, [sp, #12]
 800383c:	eba9 0101 	sub.w	r1, r9, r1
 8003840:	9114      	str	r1, [sp, #80]	@ 0x50
 8003842:	f1c9 0201 	rsb	r2, r9, #1
 8003846:	9904      	ldr	r1, [sp, #16]
 8003848:	9804      	ldr	r0, [sp, #16]
 800384a:	f88d 2000 	strb.w	r2, [sp]
 800384e:	eba9 0101 	sub.w	r1, r9, r1
 8003852:	9112      	str	r1, [sp, #72]	@ 0x48
 8003854:	1c40      	adds	r0, r0, #1
 8003856:	2c00      	cmp	r4, #0
 8003858:	f1a9 0101 	sub.w	r1, r9, #1
 800385c:	f04f 32ff 	mov.w	r2, #4294967295
 8003860:	bfc8      	it	gt
 8003862:	f1ba 0f00 	cmpgt.w	sl, #0
 8003866:	9013      	str	r0, [sp, #76]	@ 0x4c
 8003868:	9111      	str	r1, [sp, #68]	@ 0x44
 800386a:	9210      	str	r2, [sp, #64]	@ 0x40
 800386c:	dc56      	bgt.n	800391c <cmox_ScalarMul_wMOF+0x44c>
 800386e:	f1b9 0f00 	cmp.w	r9, #0
 8003872:	dd06      	ble.n	8003882 <cmox_ScalarMul_wMOF+0x3b2>
 8003874:	9a11      	ldr	r2, [sp, #68]	@ 0x44
 8003876:	980d      	ldr	r0, [sp, #52]	@ 0x34
 8003878:	2102      	movs	r1, #2
 800387a:	f000 fd9a 	bl	80043b2 <cmox_bn_getBits>
 800387e:	b2c0      	uxtb	r0, r0
 8003880:	e007      	b.n	8003892 <cmox_ScalarMul_wMOF+0x3c2>
 8003882:	980d      	ldr	r0, [sp, #52]	@ 0x34
 8003884:	6841      	ldr	r1, [r0, #4]
 8003886:	f89d 0000 	ldrb.w	r0, [sp]
 800388a:	fa01 f000 	lsl.w	r0, r1, r0
 800388e:	f000 0003 	and.w	r0, r0, #3
 8003892:	2c00      	cmp	r4, #0
 8003894:	d541      	bpl.n	800391a <cmox_ScalarMul_wMOF+0x44a>
 8003896:	f1ba 0f00 	cmp.w	sl, #0
 800389a:	dc3f      	bgt.n	800391c <cmox_ScalarMul_wMOF+0x44c>
 800389c:	f000 0101 	and.w	r1, r0, #1
 80038a0:	ea91 0f60 	teq	r1, r0, asr #1
 80038a4:	f000 8080 	beq.w	80039a8 <cmox_ScalarMul_wMOF+0x4d8>
 80038a8:	9814      	ldr	r0, [sp, #80]	@ 0x50
 80038aa:	2800      	cmp	r0, #0
 80038ac:	d405      	bmi.n	80038ba <cmox_ScalarMul_wMOF+0x3ea>
 80038ae:	9a12      	ldr	r2, [sp, #72]	@ 0x48
 80038b0:	9913      	ldr	r1, [sp, #76]	@ 0x4c
 80038b2:	980d      	ldr	r0, [sp, #52]	@ 0x34
 80038b4:	f000 fd7d 	bl	80043b2 <cmox_bn_getBits>
 80038b8:	e008      	b.n	80038cc <cmox_ScalarMul_wMOF+0x3fc>
 80038ba:	980d      	ldr	r0, [sp, #52]	@ 0x34
 80038bc:	6841      	ldr	r1, [r0, #4]
 80038be:	f89d 0001 	ldrb.w	r0, [sp, #1]
 80038c2:	fa01 f000 	lsl.w	r0, r1, r0
 80038c6:	f89d 1003 	ldrb.w	r1, [sp, #3]
 80038ca:	4008      	ands	r0, r1
 80038cc:	9a01      	ldr	r2, [sp, #4]
 80038ce:	9901      	ldr	r1, [sp, #4]
 80038d0:	1a80      	subs	r0, r0, r2
 80038d2:	b2c0      	uxtb	r0, r0
 80038d4:	4288      	cmp	r0, r1
 80038d6:	9007      	str	r0, [sp, #28]
 80038d8:	da0b      	bge.n	80038f2 <cmox_ScalarMul_wMOF+0x422>
 80038da:	980b      	ldr	r0, [sp, #44]	@ 0x2c
 80038dc:	9907      	ldr	r1, [sp, #28]
 80038de:	08c9      	lsrs	r1, r1, #3
 80038e0:	f850 2021 	ldr.w	r2, [r0, r1, lsl #2]
 80038e4:	9807      	ldr	r0, [sp, #28]
 80038e6:	0081      	lsls	r1, r0, #2
 80038e8:	f001 011c 	and.w	r1, r1, #28
 80038ec:	fa22 f001 	lsr.w	r0, r2, r1
 80038f0:	e00c      	b.n	800390c <cmox_ScalarMul_wMOF+0x43c>
 80038f2:	9903      	ldr	r1, [sp, #12]
 80038f4:	1a08      	subs	r0, r1, r0
 80038f6:	990b      	ldr	r1, [sp, #44]	@ 0x2c
 80038f8:	1e42      	subs	r2, r0, #1
 80038fa:	08d2      	lsrs	r2, r2, #3
 80038fc:	1e40      	subs	r0, r0, #1
 80038fe:	f851 1022 	ldr.w	r1, [r1, r2, lsl #2]
 8003902:	0080      	lsls	r0, r0, #2
 8003904:	f000 001c 	and.w	r0, r0, #28
 8003908:	fa21 f000 	lsr.w	r0, r1, r0
 800390c:	f89d 4002 	ldrb.w	r4, [sp, #2]
 8003910:	f000 0a0f 	and.w	sl, r0, #15
 8003914:	eba4 040a 	sub.w	r4, r4, sl
 8003918:	b264      	sxtb	r4, r4
 800391a:	2c00      	cmp	r4, #0
 800391c:	d144      	bne.n	80039a8 <cmox_ScalarMul_wMOF+0x4d8>
 800391e:	9807      	ldr	r0, [sp, #28]
 8003920:	9901      	ldr	r1, [sp, #4]
 8003922:	4288      	cmp	r0, r1
 8003924:	da16      	bge.n	8003954 <cmox_ScalarMul_wMOF+0x484>
 8003926:	980c      	ldr	r0, [sp, #48]	@ 0x30
 8003928:	9907      	ldr	r1, [sp, #28]
 800392a:	08c9      	lsrs	r1, r1, #3
 800392c:	f850 0021 	ldr.w	r0, [r0, r1, lsl #2]
 8003930:	9907      	ldr	r1, [sp, #28]
 8003932:	008a      	lsls	r2, r1, #2
 8003934:	69b9      	ldr	r1, [r7, #24]
 8003936:	f002 021c 	and.w	r2, r2, #28
 800393a:	40d0      	lsrs	r0, r2
 800393c:	684a      	ldr	r2, [r1, #4]
 800393e:	6954      	ldr	r4, [r2, #20]
 8003940:	f010 000f 	ands.w	r0, r0, #15
 8003944:	4643      	mov	r3, r8
 8003946:	d101      	bne.n	800394c <cmox_ScalarMul_wMOF+0x47c>
 8003948:	9a0f      	ldr	r2, [sp, #60]	@ 0x3c
 800394a:	e029      	b.n	80039a0 <cmox_ScalarMul_wMOF+0x4d0>
 800394c:	9902      	ldr	r1, [sp, #8]
 800394e:	f851 2020 	ldr.w	r2, [r1, r0, lsl #2]
 8003952:	e025      	b.n	80039a0 <cmox_ScalarMul_wMOF+0x4d0>
 8003954:	9803      	ldr	r0, [sp, #12]
 8003956:	9907      	ldr	r1, [sp, #28]
 8003958:	1a41      	subs	r1, r0, r1
 800395a:	980c      	ldr	r0, [sp, #48]	@ 0x30
 800395c:	1e4a      	subs	r2, r1, #1
 800395e:	08d2      	lsrs	r2, r2, #3
 8003960:	1e49      	subs	r1, r1, #1
 8003962:	f850 0022 	ldr.w	r0, [r0, r2, lsl #2]
 8003966:	0089      	lsls	r1, r1, #2
 8003968:	f001 011c 	and.w	r1, r1, #28
 800396c:	40c8      	lsrs	r0, r1
 800396e:	9902      	ldr	r1, [sp, #8]
 8003970:	680a      	ldr	r2, [r1, #0]
 8003972:	f010 000f 	ands.w	r0, r0, #15
 8003976:	bf0c      	ite	eq
 8003978:	990f      	ldreq	r1, [sp, #60]	@ 0x3c
 800397a:	f851 1020 	ldrne.w	r1, [r1, r0, lsl #2]
 800397e:	2001      	movs	r0, #1
 8003980:	f7fc fd20 	bl	80003c4 <cmox_ECC_CondCopyPoint>
 8003984:	9802      	ldr	r0, [sp, #8]
 8003986:	6802      	ldr	r2, [r0, #0]
 8003988:	4639      	mov	r1, r7
 800398a:	2001      	movs	r0, #1
 800398c:	f7fc fd4d 	bl	800042a <cmox_ECC_CondSymmetricPoint>
 8003990:	69bc      	ldr	r4, [r7, #24]
 8003992:	9802      	ldr	r0, [sp, #8]
 8003994:	f8d4 c004 	ldr.w	ip, [r4, #4]
 8003998:	6802      	ldr	r2, [r0, #0]
 800399a:	f8dc 4014 	ldr.w	r4, [ip, #20]
 800399e:	4643      	mov	r3, r8
 80039a0:	4641      	mov	r1, r8
 80039a2:	4638      	mov	r0, r7
 80039a4:	47a0      	blx	r4
 80039a6:	9c10      	ldr	r4, [sp, #64]	@ 0x40
 80039a8:	2e00      	cmp	r6, #0
 80039aa:	bfc8      	it	gt
 80039ac:	2d00      	cmpgt	r5, #0
 80039ae:	dc15      	bgt.n	80039dc <cmox_ScalarMul_wMOF+0x50c>
 80039b0:	f1b9 0f00 	cmp.w	r9, #0
 80039b4:	dd06      	ble.n	80039c4 <cmox_ScalarMul_wMOF+0x4f4>
 80039b6:	9a11      	ldr	r2, [sp, #68]	@ 0x44
 80039b8:	9808      	ldr	r0, [sp, #32]
 80039ba:	2102      	movs	r1, #2
 80039bc:	f000 fcf9 	bl	80043b2 <cmox_bn_getBits>
 80039c0:	b2c0      	uxtb	r0, r0
 80039c2:	e007      	b.n	80039d4 <cmox_ScalarMul_wMOF+0x504>
 80039c4:	9808      	ldr	r0, [sp, #32]
 80039c6:	6841      	ldr	r1, [r0, #4]
 80039c8:	f89d 0000 	ldrb.w	r0, [sp]
 80039cc:	fa01 f000 	lsl.w	r0, r1, r0
 80039d0:	f000 0003 	and.w	r0, r0, #3
 80039d4:	2e00      	cmp	r6, #0
 80039d6:	f57f aeaf 	bpl.w	8003738 <cmox_ScalarMul_wMOF+0x268>
 80039da:	2d00      	cmp	r5, #0
 80039dc:	f73f aee3 	bgt.w	80037a6 <cmox_ScalarMul_wMOF+0x2d6>
 80039e0:	f000 0101 	and.w	r1, r0, #1
 80039e4:	ea91 0f60 	teq	r1, r0, asr #1
 80039e8:	f43f aedd 	beq.w	80037a6 <cmox_ScalarMul_wMOF+0x2d6>
 80039ec:	9814      	ldr	r0, [sp, #80]	@ 0x50
 80039ee:	2800      	cmp	r0, #0
 80039f0:	d405      	bmi.n	80039fe <cmox_ScalarMul_wMOF+0x52e>
 80039f2:	9a12      	ldr	r2, [sp, #72]	@ 0x48
 80039f4:	9913      	ldr	r1, [sp, #76]	@ 0x4c
 80039f6:	9808      	ldr	r0, [sp, #32]
 80039f8:	f000 fcdb 	bl	80043b2 <cmox_bn_getBits>
 80039fc:	e008      	b.n	8003a10 <cmox_ScalarMul_wMOF+0x540>
 80039fe:	9808      	ldr	r0, [sp, #32]
 8003a00:	6841      	ldr	r1, [r0, #4]
 8003a02:	f89d 0001 	ldrb.w	r0, [sp, #1]
 8003a06:	fa01 f000 	lsl.w	r0, r1, r0
 8003a0a:	f89d 1003 	ldrb.w	r1, [sp, #3]
 8003a0e:	4008      	ands	r0, r1
 8003a10:	9a01      	ldr	r2, [sp, #4]
 8003a12:	9901      	ldr	r1, [sp, #4]
 8003a14:	1a80      	subs	r0, r0, r2
 8003a16:	b2c0      	uxtb	r0, r0
 8003a18:	4288      	cmp	r0, r1
 8003a1a:	9006      	str	r0, [sp, #24]
 8003a1c:	f6bf ae7a 	bge.w	8003714 <cmox_ScalarMul_wMOF+0x244>
 8003a20:	980b      	ldr	r0, [sp, #44]	@ 0x2c
 8003a22:	9906      	ldr	r1, [sp, #24]
 8003a24:	08c9      	lsrs	r1, r1, #3
 8003a26:	f850 5021 	ldr.w	r5, [r0, r1, lsl #2]
 8003a2a:	9806      	ldr	r0, [sp, #24]
 8003a2c:	0081      	lsls	r1, r0, #2
 8003a2e:	f001 011c 	and.w	r1, r1, #28
 8003a32:	40cd      	lsrs	r5, r1
 8003a34:	e67a      	b.n	800372c <cmox_ScalarMul_wMOF+0x25c>
 8003a36:	9703      	str	r7, [sp, #12]
 8003a38:	f1b9 0f00 	cmp.w	r9, #0
 8003a3c:	9c0d      	ldr	r4, [sp, #52]	@ 0x34
 8003a3e:	9e0f      	ldr	r6, [sp, #60]	@ 0x3c
 8003a40:	9f08      	ldr	r7, [sp, #32]
 8003a42:	f8dd a028 	ldr.w	sl, [sp, #40]	@ 0x28
 8003a46:	9d09      	ldr	r5, [sp, #36]	@ 0x24
 8003a48:	d146      	bne.n	8003ad8 <cmox_ScalarMul_wMOF+0x608>
 8003a4a:	9803      	ldr	r0, [sp, #12]
 8003a4c:	f8d0 e018 	ldr.w	lr, [r0, #24]
 8003a50:	f8de 9004 	ldr.w	r9, [lr, #4]
 8003a54:	f8d9 c00c 	ldr.w	ip, [r9, #12]
 8003a58:	2301      	movs	r3, #1
 8003a5a:	4642      	mov	r2, r8
 8003a5c:	4641      	mov	r1, r8
 8003a5e:	47e0      	blx	ip
 8003a60:	7920      	ldrb	r0, [r4, #4]
 8003a62:	07c1      	lsls	r1, r0, #31
 8003a64:	d517      	bpl.n	8003a96 <cmox_ScalarMul_wMOF+0x5c6>
 8003a66:	9802      	ldr	r0, [sp, #8]
 8003a68:	6802      	ldr	r2, [r0, #0]
 8003a6a:	4631      	mov	r1, r6
 8003a6c:	2001      	movs	r0, #1
 8003a6e:	f7fc fca9 	bl	80003c4 <cmox_ECC_CondCopyPoint>
 8003a72:	9802      	ldr	r0, [sp, #8]
 8003a74:	6802      	ldr	r2, [r0, #0]
 8003a76:	9903      	ldr	r1, [sp, #12]
 8003a78:	2001      	movs	r0, #1
 8003a7a:	f7fc fcd6 	bl	800042a <cmox_ECC_CondSymmetricPoint>
 8003a7e:	9803      	ldr	r0, [sp, #12]
 8003a80:	f8d0 c018 	ldr.w	ip, [r0, #24]
 8003a84:	9a02      	ldr	r2, [sp, #8]
 8003a86:	f8dc 4004 	ldr.w	r4, [ip, #4]
 8003a8a:	6812      	ldr	r2, [r2, #0]
 8003a8c:	f8d4 c014 	ldr.w	ip, [r4, #20]
 8003a90:	4643      	mov	r3, r8
 8003a92:	4641      	mov	r1, r8
 8003a94:	47e0      	blx	ip
 8003a96:	7938      	ldrb	r0, [r7, #4]
 8003a98:	07c1      	lsls	r1, r0, #31
 8003a9a:	d51d      	bpl.n	8003ad8 <cmox_ScalarMul_wMOF+0x608>
 8003a9c:	9802      	ldr	r0, [sp, #8]
 8003a9e:	6801      	ldr	r1, [r0, #0]
 8003aa0:	9101      	str	r1, [sp, #4]
 8003aa2:	2206      	movs	r2, #6
 8003aa4:	9200      	str	r2, [sp, #0]
 8003aa6:	1d28      	adds	r0, r5, #4
 8003aa8:	eb00 028a 	add.w	r2, r0, sl, lsl #2
 8003aac:	1d2b      	adds	r3, r5, #4
 8003aae:	4651      	mov	r1, sl
 8003ab0:	2001      	movs	r0, #1
 8003ab2:	f7fc fd24 	bl	80004fe <cmox_ECC_CondImportPoint>
 8003ab6:	9802      	ldr	r0, [sp, #8]
 8003ab8:	6802      	ldr	r2, [r0, #0]
 8003aba:	9903      	ldr	r1, [sp, #12]
 8003abc:	2001      	movs	r0, #1
 8003abe:	f7fc fcb4 	bl	800042a <cmox_ECC_CondSymmetricPoint>
 8003ac2:	9902      	ldr	r1, [sp, #8]
 8003ac4:	2000      	movs	r0, #0
 8003ac6:	9000      	str	r0, [sp, #0]
 8003ac8:	4643      	mov	r3, r8
 8003aca:	9803      	ldr	r0, [sp, #12]
 8003acc:	6987      	ldr	r7, [r0, #24]
 8003ace:	687c      	ldr	r4, [r7, #4]
 8003ad0:	680a      	ldr	r2, [r1, #0]
 8003ad2:	6927      	ldr	r7, [r4, #16]
 8003ad4:	4641      	mov	r1, r8
 8003ad6:	47b8      	blx	r7
 8003ad8:	9817      	ldr	r0, [sp, #92]	@ 0x5c
 8003ada:	b940      	cbnz	r0, 8003aee <cmox_ScalarMul_wMOF+0x61e>
 8003adc:	9803      	ldr	r0, [sp, #12]
 8003ade:	4631      	mov	r1, r6
 8003ae0:	f7fc fdb4 	bl	800064c <cmox_ECC_PointFromModularDomain>
 8003ae4:	9005      	str	r0, [sp, #20]
 8003ae6:	4641      	mov	r1, r8
 8003ae8:	9803      	ldr	r0, [sp, #12]
 8003aea:	f7fc fdaf 	bl	800064c <cmox_ECC_PointFromModularDomain>
 8003aee:	9d03      	ldr	r5, [sp, #12]
 8003af0:	9c18      	ldr	r4, [sp, #96]	@ 0x60
 8003af2:	e007      	b.n	8003b04 <cmox_ScalarMul_wMOF+0x634>
 8003af4:	9802      	ldr	r0, [sp, #8]
 8003af6:	eb00 0184 	add.w	r1, r0, r4, lsl #2
 8003afa:	1f09      	subs	r1, r1, #4
 8003afc:	4628      	mov	r0, r5
 8003afe:	f7fc fc30 	bl	8000362 <cmox_ECC_FreePoint>
 8003b02:	1e64      	subs	r4, r4, #1
 8003b04:	2c00      	cmp	r4, #0
 8003b06:	d1f5      	bne.n	8003af4 <cmox_ScalarMul_wMOF+0x624>
 8003b08:	9a15      	ldr	r2, [sp, #84]	@ 0x54
 8003b0a:	69e8      	ldr	r0, [r5, #28]
 8003b0c:	a902      	add	r1, sp, #8
 8003b0e:	f7fe ffd9 	bl	8002ac4 <cmox_membuf_free>
 8003b12:	465c      	mov	r4, fp
 8003b14:	e006      	b.n	8003b24 <cmox_ScalarMul_wMOF+0x654>
 8003b16:	6969      	ldr	r1, [r5, #20]
 8003b18:	eb01 0284 	add.w	r2, r1, r4, lsl #2
 8003b1c:	1f11      	subs	r1, r2, #4
 8003b1e:	f000 fb60 	bl	80041e2 <cmox_bn_free>
 8003b22:	1e64      	subs	r4, r4, #1
 8003b24:	69e8      	ldr	r0, [r5, #28]
 8003b26:	2c00      	cmp	r4, #0
 8003b28:	d1f5      	bne.n	8003b16 <cmox_ScalarMul_wMOF+0x646>
 8003b2a:	69a9      	ldr	r1, [r5, #24]
 8003b2c:	684a      	ldr	r2, [r1, #4]
 8003b2e:	6992      	ldr	r2, [r2, #24]
 8003b30:	0092      	lsls	r2, r2, #2
 8003b32:	f105 0114 	add.w	r1, r5, #20
 8003b36:	f7fe ffc5 	bl	8002ac4 <cmox_membuf_free>
 8003b3a:	9805      	ldr	r0, [sp, #20]
 8003b3c:	b019      	add	sp, #100	@ 0x64
 8003b3e:	e8bd 8ff0 	ldmia.w	sp!, {r4, r5, r6, r7, r8, r9, sl, fp, pc}
 8003b42:	bf00      	nop
 8003b44:	08003b4c 	.word	0x08003b4c
 8003b48:	08003b58 	.word	0x08003b58

08003b4c <cmox_ScalarMul_wMOF::T_Pi>:
 8003b4c:	00000110 15522440 07733661              ....@$R.a6s.

08003b58 <cmox_ScalarMul_wMOF::T_DblAfter>:
 8003b58:	00002001 20011003 40011002              . ..... ...@

08003b64 <cmox_ScalarMul_wNAFRecoding>:
 8003b64:	e92d 47fc 	stmdb	sp!, {r2, r3, r4, r5, r6, r7, r8, r9, sl, lr}
 8003b68:	4681      	mov	r9, r0
 8003b6a:	460f      	mov	r7, r1
 8003b6c:	2000      	movs	r0, #0
 8003b6e:	4692      	mov	sl, r2
 8003b70:	9000      	str	r0, [sp, #0]
 8003b72:	461e      	mov	r6, r3
 8003b74:	683a      	ldr	r2, [r7, #0]
 8003b76:	4669      	mov	r1, sp
 8003b78:	4648      	mov	r0, r9
 8003b7a:	f000 fb27 	bl	80041cc <cmox_bn_alloc>
 8003b7e:	2500      	movs	r5, #0
 8003b80:	ea5f 0800 	movs.w	r8, r0
 8003b84:	d138      	bne.n	8003bf8 <cmox_ScalarMul_wNAFRecoding+0x94>
 8003b86:	9800      	ldr	r0, [sp, #0]
 8003b88:	2100      	movs	r1, #0
 8003b8a:	f000 fb56 	bl	800423a <cmox_bn_init>
 8003b8e:	9a00      	ldr	r2, [sp, #0]
 8003b90:	4639      	mov	r1, r7
 8003b92:	2001      	movs	r0, #1
 8003b94:	f000 fb60 	bl	8004258 <cmox_bn_cCopy>
 8003b98:	2401      	movs	r4, #1
 8003b9a:	f1aa 0701 	sub.w	r7, sl, #1
 8003b9e:	fa04 f707 	lsl.w	r7, r4, r7
 8003ba2:	e01c      	b.n	8003bde <cmox_ScalarMul_wNAFRecoding+0x7a>
 8003ba4:	2100      	movs	r1, #0
 8003ba6:	5571      	strb	r1, [r6, r5]
 8003ba8:	e013      	b.n	8003bd2 <cmox_ScalarMul_wNAFRecoding+0x6e>
 8003baa:	9800      	ldr	r0, [sp, #0]
 8003bac:	6841      	ldr	r1, [r0, #4]
 8003bae:	07c8      	lsls	r0, r1, #31
 8003bb0:	d5f8      	bpl.n	8003ba4 <cmox_ScalarMul_wNAFRecoding+0x40>
 8003bb2:	fa04 f00a 	lsl.w	r0, r4, sl
 8003bb6:	1e42      	subs	r2, r0, #1
 8003bb8:	4011      	ands	r1, r2
 8003bba:	b24a      	sxtb	r2, r1
 8003bbc:	b27b      	sxtb	r3, r7
 8003bbe:	429a      	cmp	r2, r3
 8003bc0:	bfa8      	it	ge
 8003bc2:	1bc9      	subge	r1, r1, r7
 8003bc4:	5571      	strb	r1, [r6, r5]
 8003bc6:	b249      	sxtb	r1, r1
 8003bc8:	9a00      	ldr	r2, [sp, #0]
 8003bca:	4249      	negs	r1, r1
 8003bcc:	4610      	mov	r0, r2
 8003bce:	f7fe fd7f 	bl	80026d0 <cmox_AddBN_Int>
 8003bd2:	9a00      	ldr	r2, [sp, #0]
 8003bd4:	2101      	movs	r1, #1
 8003bd6:	4610      	mov	r0, r2
 8003bd8:	f7fe fc0b 	bl	80023f2 <cmox_RightShiftBN>
 8003bdc:	1c6d      	adds	r5, r5, #1
 8003bde:	9800      	ldr	r0, [sp, #0]
 8003be0:	2100      	movs	r1, #0
 8003be2:	f000 fbb7 	bl	8004354 <cmox_bn_cmpUint>
 8003be6:	2800      	cmp	r0, #0
 8003be8:	d0df      	beq.n	8003baa <cmox_ScalarMul_wNAFRecoding+0x46>
 8003bea:	980a      	ldr	r0, [sp, #40]	@ 0x28
 8003bec:	b100      	cbz	r0, 8003bf0 <cmox_ScalarMul_wNAFRecoding+0x8c>
 8003bee:	6005      	str	r5, [r0, #0]
 8003bf0:	4669      	mov	r1, sp
 8003bf2:	4648      	mov	r0, r9
 8003bf4:	f000 faf5 	bl	80041e2 <cmox_bn_free>
 8003bf8:	4640      	mov	r0, r8
 8003bfa:	e8bd 87f6 	ldmia.w	sp!, {r1, r2, r4, r5, r6, r7, r8, r9, sl, pc}
	...

08003c00 <cmox_sha256_cleanup>:
 8003c00:	b500      	push	{lr}
 8003c02:	b081      	sub	sp, #4
 8003c04:	6801      	ldr	r1, [r0, #0]
 8003c06:	4a07      	ldr	r2, [pc, #28]	@ (8003c24 <cmox_sha256_cleanup+0x24>)
 8003c08:	4291      	cmp	r1, r2
 8003c0a:	d100      	bne.n	8003c0e <cmox_sha256_cleanup+0xe>
 8003c0c:	b910      	cbnz	r0, 8003c14 <cmox_sha256_cleanup+0x14>
 8003c0e:	4806      	ldr	r0, [pc, #24]	@ (8003c28 <cmox_sha256_cleanup+0x28>)
 8003c10:	b001      	add	sp, #4
 8003c12:	bd00      	pop	{pc}
 8003c14:	217c      	movs	r1, #124	@ 0x7c
 8003c16:	f004 fda1 	bl	800875c <__aeabi_memclr>
 8003c1a:	f44f 3000 	mov.w	r0, #131072	@ 0x20000
 8003c1e:	b001      	add	sp, #4
 8003c20:	bd00      	pop	{pc}
 8003c22:	bf00      	nop
 8003c24:	08003d0c 	.word	0x08003d0c
 8003c28:	00020003 	.word	0x00020003

08003c2c <cmox_sha256_init>:
 8003c2c:	e92d 41f0 	stmdb	sp!, {r4, r5, r6, r7, r8, lr}
 8003c30:	4a0b      	ldr	r2, [pc, #44]	@ (8003c60 <cmox_sha256_init+0x34>)
 8003c32:	e892 51f8 	ldmia.w	r2, {r3, r4, r5, r6, r7, r8, ip, lr}
 8003c36:	b088      	sub	sp, #32
 8003c38:	4669      	mov	r1, sp
 8003c3a:	e881 51f8 	stmia.w	r1, {r3, r4, r5, r6, r7, r8, ip, lr}
 8003c3e:	6802      	ldr	r2, [r0, #0]
 8003c40:	4b08      	ldr	r3, [pc, #32]	@ (8003c64 <cmox_sha256_init+0x38>)
 8003c42:	429a      	cmp	r2, r3
 8003c44:	d100      	bne.n	8003c48 <cmox_sha256_init+0x1c>
 8003c46:	b918      	cbnz	r0, 8003c50 <cmox_sha256_init+0x24>
 8003c48:	4807      	ldr	r0, [pc, #28]	@ (8003c68 <cmox_sha256_init+0x3c>)
 8003c4a:	b008      	add	sp, #32
 8003c4c:	e8bd 81f0 	ldmia.w	sp!, {r4, r5, r6, r7, r8, pc}
 8003c50:	2220      	movs	r2, #32
 8003c52:	3008      	adds	r0, #8
 8003c54:	f000 fe91 	bl	800497a <cmox_md_init>
 8003c58:	b008      	add	sp, #32
 8003c5a:	e8bd 81f0 	ldmia.w	sp!, {r4, r5, r6, r7, r8, pc}
 8003c5e:	bf00      	nop
 8003c60:	08003cec 	.word	0x08003cec
 8003c64:	08003d0c 	.word	0x08003d0c
 8003c68:	00020003 	.word	0x00020003

08003c6c <cmox_sha256_setTagLen>:
 8003c6c:	2921      	cmp	r1, #33	@ 0x21
 8003c6e:	d204      	bcs.n	8003c7a <cmox_sha256_setTagLen+0xe>
 8003c70:	6802      	ldr	r2, [r0, #0]
 8003c72:	4b04      	ldr	r3, [pc, #16]	@ (8003c84 <cmox_sha256_setTagLen+0x18>)
 8003c74:	429a      	cmp	r2, r3
 8003c76:	d100      	bne.n	8003c7a <cmox_sha256_setTagLen+0xe>
 8003c78:	b908      	cbnz	r0, 8003c7e <cmox_sha256_setTagLen+0x12>
 8003c7a:	4803      	ldr	r0, [pc, #12]	@ (8003c88 <cmox_sha256_setTagLen+0x1c>)
 8003c7c:	4770      	bx	lr
 8003c7e:	3008      	adds	r0, #8
 8003c80:	f000 be8a 	b.w	8004998 <cmox_md_setTagSize>
 8003c84:	08003d0c 	.word	0x08003d0c
 8003c88:	00020003 	.word	0x00020003

08003c8c <cmox_sha256_append>:
 8003c8c:	b410      	push	{r4}
 8003c8e:	b081      	sub	sp, #4
 8003c90:	4613      	mov	r3, r2
 8003c92:	6802      	ldr	r2, [r0, #0]
 8003c94:	4c07      	ldr	r4, [pc, #28]	@ (8003cb4 <cmox_sha256_append+0x28>)
 8003c96:	42a2      	cmp	r2, r4
 8003c98:	d100      	bne.n	8003c9c <cmox_sha256_append+0x10>
 8003c9a:	b918      	cbnz	r0, 8003ca4 <cmox_sha256_append+0x18>
 8003c9c:	b001      	add	sp, #4
 8003c9e:	bc10      	pop	{r4}
 8003ca0:	4805      	ldr	r0, [pc, #20]	@ (8003cb8 <cmox_sha256_append+0x2c>)
 8003ca2:	4770      	bx	lr
 8003ca4:	b001      	add	sp, #4
 8003ca6:	f100 0224 	add.w	r2, r0, #36	@ 0x24
 8003caa:	bc10      	pop	{r4}
 8003cac:	3008      	adds	r0, #8
 8003cae:	f000 be77 	b.w	80049a0 <cmox_md_append>
 8003cb2:	bf00      	nop
 8003cb4:	08003d0c 	.word	0x08003d0c
 8003cb8:	00020003 	.word	0x00020003

08003cbc <cmox_sha256_generateTag>:
 8003cbc:	b410      	push	{r4}
 8003cbe:	b081      	sub	sp, #4
 8003cc0:	4613      	mov	r3, r2
 8003cc2:	6802      	ldr	r2, [r0, #0]
 8003cc4:	4c07      	ldr	r4, [pc, #28]	@ (8003ce4 <cmox_sha256_generateTag+0x28>)
 8003cc6:	42a2      	cmp	r2, r4
 8003cc8:	d100      	bne.n	8003ccc <cmox_sha256_generateTag+0x10>
 8003cca:	b918      	cbnz	r0, 8003cd4 <cmox_sha256_generateTag+0x18>
 8003ccc:	b001      	add	sp, #4
 8003cce:	bc10      	pop	{r4}
 8003cd0:	4805      	ldr	r0, [pc, #20]	@ (8003ce8 <cmox_sha256_generateTag+0x2c>)
 8003cd2:	4770      	bx	lr
 8003cd4:	460a      	mov	r2, r1
 8003cd6:	b001      	add	sp, #4
 8003cd8:	f100 0124 	add.w	r1, r0, #36	@ 0x24
 8003cdc:	bc10      	pop	{r4}
 8003cde:	3008      	adds	r0, #8
 8003ce0:	f000 beb2 	b.w	8004a48 <cmox_md_generateTag>
 8003ce4:	08003d0c 	.word	0x08003d0c
 8003ce8:	00020003 	.word	0x00020003
 8003cec:	6a09e667 	.word	0x6a09e667
 8003cf0:	bb67ae85 	.word	0xbb67ae85
 8003cf4:	3c6ef372 	.word	0x3c6ef372
 8003cf8:	a54ff53a 	.word	0xa54ff53a
 8003cfc:	510e527f 	.word	0x510e527f
 8003d00:	9b05688c 	.word	0x9b05688c
 8003d04:	1f83d9ab 	.word	0x1f83d9ab
 8003d08:	5be0cd19 	.word	0x5be0cd19

08003d0c <CMOX_SHA256_VTABLE>:
 8003d0c:	08003c01 08003c2d 08003c6d 08003c8d     .<..-<..m<...<..
 8003d1c:	08003cbd                                .<..

08003d20 <cmox_sha256_compute>:
 8003d20:	b5f0      	push	{r4, r5, r6, r7, lr}
 8003d22:	b0a3      	sub	sp, #140	@ 0x8c
 8003d24:	4604      	mov	r4, r0
 8003d26:	480b      	ldr	r0, [pc, #44]	@ (8003d54 <cmox_sha256_compute+0x34>)
 8003d28:	9002      	str	r0, [sp, #8]
 8003d2a:	460d      	mov	r5, r1
 8003d2c:	4616      	mov	r6, r2
 8003d2e:	461f      	mov	r7, r3
 8003d30:	4b09      	ldr	r3, [pc, #36]	@ (8003d58 <cmox_sha256_compute+0x38>)
 8003d32:	2208      	movs	r2, #8
 8003d34:	2140      	movs	r1, #64	@ 0x40
 8003d36:	a804      	add	r0, sp, #16
 8003d38:	f000 fe1b 	bl	8004972 <cmox_md_construct>
 8003d3c:	9828      	ldr	r0, [sp, #160]	@ 0xa0
 8003d3e:	9001      	str	r0, [sp, #4]
 8003d40:	9700      	str	r7, [sp, #0]
 8003d42:	4633      	mov	r3, r6
 8003d44:	462a      	mov	r2, r5
 8003d46:	4621      	mov	r1, r4
 8003d48:	a802      	add	r0, sp, #8
 8003d4a:	f7fe fabd 	bl	80022c8 <cmox_hash_common_compute>
 8003d4e:	b023      	add	sp, #140	@ 0x8c
 8003d50:	bdf0      	pop	{r4, r5, r6, r7, pc}
 8003d52:	bf00      	nop
 8003d54:	08003d0c 	.word	0x08003d0c
 8003d58:	080095f4 	.word	0x080095f4

08003d5c <cmox_sha256_transform>:
 8003d5c:	e92d 4ff0 	stmdb	sp!, {r4, r5, r6, r7, r8, r9, sl, fp, lr}
 8003d60:	b0c1      	sub	sp, #260	@ 0x104
 8003d62:	680b      	ldr	r3, [r1, #0]
 8003d64:	ba1b      	rev	r3, r3
 8003d66:	9301      	str	r3, [sp, #4]
 8003d68:	4602      	mov	r2, r0
 8003d6a:	684b      	ldr	r3, [r1, #4]
 8003d6c:	a801      	add	r0, sp, #4
 8003d6e:	ba1b      	rev	r3, r3
 8003d70:	6043      	str	r3, [r0, #4]
 8003d72:	f10d 0c44 	add.w	ip, sp, #68	@ 0x44
 8003d76:	688b      	ldr	r3, [r1, #8]
 8003d78:	ba1b      	rev	r3, r3
 8003d7a:	6083      	str	r3, [r0, #8]
 8003d7c:	68cb      	ldr	r3, [r1, #12]
 8003d7e:	ba1b      	rev	r3, r3
 8003d80:	60c3      	str	r3, [r0, #12]
 8003d82:	690b      	ldr	r3, [r1, #16]
 8003d84:	ba1b      	rev	r3, r3
 8003d86:	6103      	str	r3, [r0, #16]
 8003d88:	694b      	ldr	r3, [r1, #20]
 8003d8a:	ba1b      	rev	r3, r3
 8003d8c:	6143      	str	r3, [r0, #20]
 8003d8e:	698b      	ldr	r3, [r1, #24]
 8003d90:	ba1b      	rev	r3, r3
 8003d92:	6183      	str	r3, [r0, #24]
 8003d94:	69cb      	ldr	r3, [r1, #28]
 8003d96:	ba1b      	rev	r3, r3
 8003d98:	61c3      	str	r3, [r0, #28]
 8003d9a:	6a0b      	ldr	r3, [r1, #32]
 8003d9c:	ba1b      	rev	r3, r3
 8003d9e:	6203      	str	r3, [r0, #32]
 8003da0:	6a4b      	ldr	r3, [r1, #36]	@ 0x24
 8003da2:	ba1b      	rev	r3, r3
 8003da4:	6243      	str	r3, [r0, #36]	@ 0x24
 8003da6:	6a8b      	ldr	r3, [r1, #40]	@ 0x28
 8003da8:	ba1b      	rev	r3, r3
 8003daa:	6283      	str	r3, [r0, #40]	@ 0x28
 8003dac:	6acb      	ldr	r3, [r1, #44]	@ 0x2c
 8003dae:	ba1b      	rev	r3, r3
 8003db0:	62c3      	str	r3, [r0, #44]	@ 0x2c
 8003db2:	6b0b      	ldr	r3, [r1, #48]	@ 0x30
 8003db4:	ba1b      	rev	r3, r3
 8003db6:	6303      	str	r3, [r0, #48]	@ 0x30
 8003db8:	6b4b      	ldr	r3, [r1, #52]	@ 0x34
 8003dba:	ba1b      	rev	r3, r3
 8003dbc:	6343      	str	r3, [r0, #52]	@ 0x34
 8003dbe:	6b8b      	ldr	r3, [r1, #56]	@ 0x38
 8003dc0:	ba1b      	rev	r3, r3
 8003dc2:	6383      	str	r3, [r0, #56]	@ 0x38
 8003dc4:	6bc9      	ldr	r1, [r1, #60]	@ 0x3c
 8003dc6:	ba09      	rev	r1, r1
 8003dc8:	63c1      	str	r1, [r0, #60]	@ 0x3c
 8003dca:	2018      	movs	r0, #24
 8003dcc:	f85c 4c08 	ldr.w	r4, [ip, #-8]
 8003dd0:	ea4f 41f4 	mov.w	r1, r4, ror #19
 8003dd4:	ea91 4374 	eors.w	r3, r1, r4, ror #17
 8003dd8:	f85c 1c3c 	ldr.w	r1, [ip, #-60]
 8003ddc:	ea83 2394 	eor.w	r3, r3, r4, lsr #10
 8003de0:	ea4f 47b1 	mov.w	r7, r1, ror #18
 8003de4:	f85c 4c1c 	ldr.w	r4, [ip, #-28]
 8003de8:	ea97 16f1 	eors.w	r6, r7, r1, ror #7
 8003dec:	4423      	add	r3, r4
 8003dee:	ea86 06d1 	eor.w	r6, r6, r1, lsr #3
 8003df2:	18f3      	adds	r3, r6, r3
 8003df4:	f85c 6c40 	ldr.w	r6, [ip, #-64]
 8003df8:	18f3      	adds	r3, r6, r3
 8003dfa:	f8cc 3000 	str.w	r3, [ip]
 8003dfe:	f85c 4c04 	ldr.w	r4, [ip, #-4]
 8003e02:	ea4f 46f4 	mov.w	r6, r4, ror #19
 8003e06:	ea96 4374 	eors.w	r3, r6, r4, ror #17
 8003e0a:	f85c 6c38 	ldr.w	r6, [ip, #-56]
 8003e0e:	ea83 2394 	eor.w	r3, r3, r4, lsr #10
 8003e12:	ea4f 4ab6 	mov.w	sl, r6, ror #18
 8003e16:	f85c 4c18 	ldr.w	r4, [ip, #-24]
 8003e1a:	ea8a 17f6 	eor.w	r7, sl, r6, ror #7
 8003e1e:	4423      	add	r3, r4
 8003e20:	ea87 07d6 	eor.w	r7, r7, r6, lsr #3
 8003e24:	18fb      	adds	r3, r7, r3
 8003e26:	18c9      	adds	r1, r1, r3
 8003e28:	f8cc 1004 	str.w	r1, [ip, #4]
 8003e2c:	1e40      	subs	r0, r0, #1
 8003e2e:	f10c 0c08 	add.w	ip, ip, #8
 8003e32:	d1cb      	bne.n	8003dcc <cmox_sha256_transform+0x70>
 8003e34:	4610      	mov	r0, r2
 8003e36:	9200      	str	r2, [sp, #0]
 8003e38:	6dc1      	ldr	r1, [r0, #92]	@ 0x5c
 8003e3a:	6ec3      	ldr	r3, [r0, #108]	@ 0x6c
 8003e3c:	f8d0 e060 	ldr.w	lr, [r0, #96]	@ 0x60
 8003e40:	f8d0 8070 	ldr.w	r8, [r0, #112]	@ 0x70
 8003e44:	6e42      	ldr	r2, [r0, #100]	@ 0x64
 8003e46:	6f44      	ldr	r4, [r0, #116]	@ 0x74
 8003e48:	f8d0 a068 	ldr.w	sl, [r0, #104]	@ 0x68
 8003e4c:	6f85      	ldr	r5, [r0, #120]	@ 0x78
 8003e4e:	f8df 90f4 	ldr.w	r9, [pc, #244]	@ 8003f44 <cmox_sha256_transform+0x1e8>
 8003e52:	f10d 0c04 	add.w	ip, sp, #4
 8003e56:	2020      	movs	r0, #32
 8003e58:	ea4f 16b3 	mov.w	r6, r3, ror #6
 8003e5c:	ea86 26f3 	eor.w	r6, r6, r3, ror #11
 8003e60:	ea86 6673 	eor.w	r6, r6, r3, ror #25
 8003e64:	1975      	adds	r5, r6, r5
 8003e66:	ea84 0608 	eor.w	r6, r4, r8
 8003e6a:	401e      	ands	r6, r3
 8003e6c:	4066      	eors	r6, r4
 8003e6e:	1975      	adds	r5, r6, r5
 8003e70:	f859 6b04 	ldr.w	r6, [r9], #4
 8003e74:	f85c 7b04 	ldr.w	r7, [ip], #4
 8003e78:	1975      	adds	r5, r6, r5
 8003e7a:	197e      	adds	r6, r7, r5
 8003e7c:	ea4f 07b1 	mov.w	r7, r1, ror #2
 8003e80:	ea4e 0b01 	orr.w	fp, lr, r1
 8003e84:	ea87 3771 	eor.w	r7, r7, r1, ror #13
 8003e88:	ea0e 0501 	and.w	r5, lr, r1
 8003e8c:	ea0b 0b02 	and.w	fp, fp, r2
 8003e90:	ea87 57b1 	eor.w	r7, r7, r1, ror #22
 8003e94:	ea4b 0505 	orr.w	r5, fp, r5
 8003e98:	19ef      	adds	r7, r5, r7
 8003e9a:	4645      	mov	r5, r8
 8003e9c:	eb06 080a 	add.w	r8, r6, sl
 8003ea0:	4692      	mov	sl, r2
 8003ea2:	4672      	mov	r2, lr
 8003ea4:	eb07 0e06 	add.w	lr, r7, r6
 8003ea8:	ea4f 16b8 	mov.w	r6, r8, ror #6
 8003eac:	ea86 26f8 	eor.w	r6, r6, r8, ror #11
 8003eb0:	ea86 6678 	eor.w	r6, r6, r8, ror #25
 8003eb4:	1934      	adds	r4, r6, r4
 8003eb6:	ea85 0603 	eor.w	r6, r5, r3
 8003eba:	ea06 0608 	and.w	r6, r6, r8
 8003ebe:	406e      	eors	r6, r5
 8003ec0:	1934      	adds	r4, r6, r4
 8003ec2:	f859 6b04 	ldr.w	r6, [r9], #4
 8003ec6:	f85c 7b04 	ldr.w	r7, [ip], #4
 8003eca:	1934      	adds	r4, r6, r4
 8003ecc:	193e      	adds	r6, r7, r4
 8003ece:	ea4f 07be 	mov.w	r7, lr, ror #2
 8003ed2:	ea41 0b0e 	orr.w	fp, r1, lr
 8003ed6:	ea87 377e 	eor.w	r7, r7, lr, ror #13
 8003eda:	ea01 040e 	and.w	r4, r1, lr
 8003ede:	ea0b 0b02 	and.w	fp, fp, r2
 8003ee2:	ea87 57be 	eor.w	r7, r7, lr, ror #22
 8003ee6:	ea4b 0404 	orr.w	r4, fp, r4
 8003eea:	19e7      	adds	r7, r4, r7
 8003eec:	461c      	mov	r4, r3
 8003eee:	eb06 030a 	add.w	r3, r6, sl
 8003ef2:	4692      	mov	sl, r2
 8003ef4:	460a      	mov	r2, r1
 8003ef6:	19b9      	adds	r1, r7, r6
 8003ef8:	1e40      	subs	r0, r0, #1
 8003efa:	d1ad      	bne.n	8003e58 <cmox_sha256_transform+0xfc>
 8003efc:	9800      	ldr	r0, [sp, #0]
 8003efe:	6dc6      	ldr	r6, [r0, #92]	@ 0x5c
 8003f00:	4431      	add	r1, r6
 8003f02:	65c1      	str	r1, [r0, #92]	@ 0x5c
 8003f04:	9900      	ldr	r1, [sp, #0]
 8003f06:	6e08      	ldr	r0, [r1, #96]	@ 0x60
 8003f08:	4470      	add	r0, lr
 8003f0a:	6608      	str	r0, [r1, #96]	@ 0x60
 8003f0c:	9800      	ldr	r0, [sp, #0]
 8003f0e:	6e41      	ldr	r1, [r0, #100]	@ 0x64
 8003f10:	1852      	adds	r2, r2, r1
 8003f12:	6642      	str	r2, [r0, #100]	@ 0x64
 8003f14:	9900      	ldr	r1, [sp, #0]
 8003f16:	6e88      	ldr	r0, [r1, #104]	@ 0x68
 8003f18:	4450      	add	r0, sl
 8003f1a:	6688      	str	r0, [r1, #104]	@ 0x68
 8003f1c:	9800      	ldr	r0, [sp, #0]
 8003f1e:	6ec1      	ldr	r1, [r0, #108]	@ 0x6c
 8003f20:	185b      	adds	r3, r3, r1
 8003f22:	66c3      	str	r3, [r0, #108]	@ 0x6c
 8003f24:	9900      	ldr	r1, [sp, #0]
 8003f26:	6f08      	ldr	r0, [r1, #112]	@ 0x70
 8003f28:	4440      	add	r0, r8
 8003f2a:	6708      	str	r0, [r1, #112]	@ 0x70
 8003f2c:	9800      	ldr	r0, [sp, #0]
 8003f2e:	6f41      	ldr	r1, [r0, #116]	@ 0x74
 8003f30:	1864      	adds	r4, r4, r1
 8003f32:	6744      	str	r4, [r0, #116]	@ 0x74
 8003f34:	9900      	ldr	r1, [sp, #0]
 8003f36:	6f88      	ldr	r0, [r1, #120]	@ 0x78
 8003f38:	182d      	adds	r5, r5, r0
 8003f3a:	678d      	str	r5, [r1, #120]	@ 0x78
 8003f3c:	b041      	add	sp, #260	@ 0x104
 8003f3e:	e8bd 8ff0 	ldmia.w	sp!, {r4, r5, r6, r7, r8, r9, sl, fp, pc}
 8003f42:	bf00      	nop
 8003f44:	080094f4 	.word	0x080094f4

08003f48 <firstloop_bb_cmp>:
 8003f48:	b5f8      	push	{r3, r4, r5, r6, r7, lr}
 8003f4a:	2401      	movs	r4, #1
 8003f4c:	9400      	str	r4, [sp, #0]
 8003f4e:	2300      	movs	r3, #0
 8003f50:	2400      	movs	r4, #0
 8003f52:	e00d      	b.n	8003f70 <firstloop_bb_cmp+0x28>
 8003f54:	9d00      	ldr	r5, [sp, #0]
 8003f56:	5d06      	ldrb	r6, [r0, r4]
 8003f58:	5d0f      	ldrb	r7, [r1, r4]
 8003f5a:	407e      	eors	r6, r7
 8003f5c:	43f6      	mvns	r6, r6
 8003f5e:	1c76      	adds	r6, r6, #1
 8003f60:	0ff6      	lsrs	r6, r6, #31
 8003f62:	f086 0601 	eor.w	r6, r6, #1
 8003f66:	4035      	ands	r5, r6
 8003f68:	9500      	str	r5, [sp, #0]
 8003f6a:	1c64      	adds	r4, r4, #1
 8003f6c:	9d00      	ldr	r5, [sp, #0]
 8003f6e:	18eb      	adds	r3, r5, r3
 8003f70:	4294      	cmp	r4, r2
 8003f72:	d3ef      	bcc.n	8003f54 <firstloop_bb_cmp+0xc>
 8003f74:	4618      	mov	r0, r3
 8003f76:	bdf2      	pop	{r1, r4, r5, r6, r7, pc}

08003f78 <secondloop_bb_cmp>:
 8003f78:	b5f8      	push	{r3, r4, r5, r6, r7, lr}
 8003f7a:	2300      	movs	r3, #0
 8003f7c:	2401      	movs	r4, #1
 8003f7e:	9400      	str	r4, [sp, #0]
 8003f80:	2a00      	cmp	r2, #0
 8003f82:	e011      	b.n	8003fa8 <secondloop_bb_cmp+0x30>
 8003f84:	9c00      	ldr	r4, [sp, #0]
 8003f86:	1885      	adds	r5, r0, r2
 8003f88:	188f      	adds	r7, r1, r2
 8003f8a:	f815 6c01 	ldrb.w	r6, [r5, #-1]
 8003f8e:	f817 5c01 	ldrb.w	r5, [r7, #-1]
 8003f92:	406e      	eors	r6, r5
 8003f94:	43f6      	mvns	r6, r6
 8003f96:	1c76      	adds	r6, r6, #1
 8003f98:	0ff6      	lsrs	r6, r6, #31
 8003f9a:	f086 0601 	eor.w	r6, r6, #1
 8003f9e:	4034      	ands	r4, r6
 8003fa0:	9400      	str	r4, [sp, #0]
 8003fa2:	9c00      	ldr	r4, [sp, #0]
 8003fa4:	18e3      	adds	r3, r4, r3
 8003fa6:	1e52      	subs	r2, r2, #1
 8003fa8:	d1ec      	bne.n	8003f84 <secondloop_bb_cmp+0xc>
 8003faa:	4618      	mov	r0, r3
 8003fac:	bdf2      	pop	{r1, r4, r5, r6, r7, pc}

08003fae <firstloop_bw_be_r_cmp>:
 8003fae:	e92d 41f8 	stmdb	sp!, {r3, r4, r5, r6, r7, r8, lr}
 8003fb2:	2401      	movs	r4, #1
 8003fb4:	9400      	str	r4, [sp, #0]
 8003fb6:	460b      	mov	r3, r1
 8003fb8:	0895      	lsrs	r5, r2, #2
 8003fba:	2100      	movs	r1, #0
 8003fbc:	eba2 0585 	sub.w	r5, r2, r5, lsl #2
 8003fc0:	2400      	movs	r4, #0
 8003fc2:	1f1b      	subs	r3, r3, #4
 8003fc4:	e01c      	b.n	8004000 <firstloop_bw_be_r_cmp+0x52>
 8003fc6:	f102 0c03 	add.w	ip, r2, #3
 8003fca:	ea4f 0c9c 	mov.w	ip, ip, lsr #2
 8003fce:	9e00      	ldr	r6, [sp, #0]
 8003fd0:	f853 e02c 	ldr.w	lr, [r3, ip, lsl #2]
 8003fd4:	5d07      	ldrb	r7, [r0, r4]
 8003fd6:	eba5 0804 	sub.w	r8, r5, r4
 8003fda:	f1a8 0c01 	sub.w	ip, r8, #1
 8003fde:	ea4f 0ccc 	mov.w	ip, ip, lsl #3
 8003fe2:	fa2e fe0c 	lsr.w	lr, lr, ip
 8003fe6:	ea8e 0707 	eor.w	r7, lr, r7
 8003fea:	b2ff      	uxtb	r7, r7
 8003fec:	43ff      	mvns	r7, r7
 8003fee:	1c7f      	adds	r7, r7, #1
 8003ff0:	0fff      	lsrs	r7, r7, #31
 8003ff2:	f087 0701 	eor.w	r7, r7, #1
 8003ff6:	403e      	ands	r6, r7
 8003ff8:	9600      	str	r6, [sp, #0]
 8003ffa:	1c64      	adds	r4, r4, #1
 8003ffc:	9e00      	ldr	r6, [sp, #0]
 8003ffe:	1871      	adds	r1, r6, r1
 8004000:	42ac      	cmp	r4, r5
 8004002:	d3e0      	bcc.n	8003fc6 <firstloop_bw_be_r_cmp+0x18>
 8004004:	2500      	movs	r5, #0
 8004006:	0892      	lsrs	r2, r2, #2
 8004008:	e017      	b.n	800403a <firstloop_bw_be_r_cmp+0x8c>
 800400a:	1906      	adds	r6, r0, r4
 800400c:	1b57      	subs	r7, r2, r5
 800400e:	f856 6025 	ldr.w	r6, [r6, r5, lsl #2]
 8004012:	f853 7027 	ldr.w	r7, [r3, r7, lsl #2]
 8004016:	ba36      	rev	r6, r6
 8004018:	407e      	eors	r6, r7
 800401a:	ea6f 0e06 	mvn.w	lr, r6
 800401e:	f10e 0e01 	add.w	lr, lr, #1
 8004022:	ea4e 0606 	orr.w	r6, lr, r6
 8004026:	9f00      	ldr	r7, [sp, #0]
 8004028:	0ff6      	lsrs	r6, r6, #31
 800402a:	f086 0601 	eor.w	r6, r6, #1
 800402e:	403e      	ands	r6, r7
 8004030:	9600      	str	r6, [sp, #0]
 8004032:	1c6d      	adds	r5, r5, #1
 8004034:	9e00      	ldr	r6, [sp, #0]
 8004036:	eb01 0186 	add.w	r1, r1, r6, lsl #2
 800403a:	4295      	cmp	r5, r2
 800403c:	d3e5      	bcc.n	800400a <firstloop_bw_be_r_cmp+0x5c>
 800403e:	4608      	mov	r0, r1
 8004040:	e8bd 81f2 	ldmia.w	sp!, {r1, r4, r5, r6, r7, r8, pc}

08004044 <secondloop_bw_be_r_cmp>:
 8004044:	b5fc      	push	{r2, r3, r4, r5, r6, r7, lr}
 8004046:	2501      	movs	r5, #1
 8004048:	0896      	lsrs	r6, r2, #2
 800404a:	4603      	mov	r3, r0
 800404c:	9500      	str	r5, [sp, #0]
 800404e:	eba2 0686 	sub.w	r6, r2, r6, lsl #2
 8004052:	2400      	movs	r4, #0
 8004054:	9601      	str	r6, [sp, #4]
 8004056:	4610      	mov	r0, r2
 8004058:	e015      	b.n	8004086 <secondloop_bw_be_r_cmp+0x42>
 800405a:	181d      	adds	r5, r3, r0
 800405c:	1a16      	subs	r6, r2, r0
 800405e:	f855 5c04 	ldr.w	r5, [r5, #-4]
 8004062:	08b6      	lsrs	r6, r6, #2
 8004064:	f851 6026 	ldr.w	r6, [r1, r6, lsl #2]
 8004068:	9f00      	ldr	r7, [sp, #0]
 800406a:	ba2d      	rev	r5, r5
 800406c:	4075      	eors	r5, r6
 800406e:	43ee      	mvns	r6, r5
 8004070:	1c76      	adds	r6, r6, #1
 8004072:	4335      	orrs	r5, r6
 8004074:	0fed      	lsrs	r5, r5, #31
 8004076:	f085 0501 	eor.w	r5, r5, #1
 800407a:	403d      	ands	r5, r7
 800407c:	9500      	str	r5, [sp, #0]
 800407e:	1f00      	subs	r0, r0, #4
 8004080:	9d00      	ldr	r5, [sp, #0]
 8004082:	eb04 0485 	add.w	r4, r4, r5, lsl #2
 8004086:	2803      	cmp	r0, #3
 8004088:	d8e7      	bhi.n	800405a <secondloop_bw_be_r_cmp+0x16>
 800408a:	9801      	ldr	r0, [sp, #4]
 800408c:	2800      	cmp	r0, #0
 800408e:	e01c      	b.n	80040ca <secondloop_bw_be_r_cmp+0x86>
 8004090:	9d01      	ldr	r5, [sp, #4]
 8004092:	9e00      	ldr	r6, [sp, #0]
 8004094:	181f      	adds	r7, r3, r0
 8004096:	1a2d      	subs	r5, r5, r0
 8004098:	f817 cc01 	ldrb.w	ip, [r7, #-1]
 800409c:	1cd7      	adds	r7, r2, #3
 800409e:	ea4f 0e97 	mov.w	lr, r7, lsr #2
 80040a2:	eb01 078e 	add.w	r7, r1, lr, lsl #2
 80040a6:	00ed      	lsls	r5, r5, #3
 80040a8:	f857 7c04 	ldr.w	r7, [r7, #-4]
 80040ac:	fa27 f505 	lsr.w	r5, r7, r5
 80040b0:	ea85 050c 	eor.w	r5, r5, ip
 80040b4:	b2ed      	uxtb	r5, r5
 80040b6:	43ed      	mvns	r5, r5
 80040b8:	1c6d      	adds	r5, r5, #1
 80040ba:	0fed      	lsrs	r5, r5, #31
 80040bc:	f085 0501 	eor.w	r5, r5, #1
 80040c0:	402e      	ands	r6, r5
 80040c2:	9600      	str	r6, [sp, #0]
 80040c4:	9d00      	ldr	r5, [sp, #0]
 80040c6:	192c      	adds	r4, r5, r4
 80040c8:	1e40      	subs	r0, r0, #1
 80040ca:	d1e1      	bne.n	8004090 <secondloop_bw_be_r_cmp+0x4c>
 80040cc:	4620      	mov	r0, r4
 80040ce:	bdf6      	pop	{r1, r2, r4, r5, r6, r7, pc}

080040d0 <bufType_bb>:
 80040d0:	3f49 0800 3f79 0800 0001 0000               I?..y?......

080040dc <cmox_utils_robustCmp>:
 80040dc:	e92d 4ff8 	stmdb	sp!, {r3, r4, r5, r6, r7, r8, r9, sl, fp, lr}
 80040e0:	461d      	mov	r5, r3
 80040e2:	f8dd 9028 	ldr.w	r9, [sp, #40]	@ 0x28
 80040e6:	9f0b      	ldr	r7, [sp, #44]	@ 0x2c
 80040e8:	9c0d      	ldr	r4, [sp, #52]	@ 0x34
 80040ea:	f04f 33ff 	mov.w	r3, #4294967295
 80040ee:	9300      	str	r3, [sp, #0]
 80040f0:	460e      	mov	r6, r1
 80040f2:	4692      	mov	sl, r2
 80040f4:	f8d9 b000 	ldr.w	fp, [r9]
 80040f8:	4680      	mov	r8, r0
 80040fa:	4632      	mov	r2, r6
 80040fc:	4651      	mov	r1, sl
 80040fe:	47d8      	blx	fp
 8004100:	4683      	mov	fp, r0
 8004102:	b364      	cbz	r4, 800415e <cmox_utils_robustCmp+0x82>
 8004104:	f8d9 3004 	ldr.w	r3, [r9, #4]
 8004108:	4632      	mov	r2, r6
 800410a:	4651      	mov	r1, sl
 800410c:	4640      	mov	r0, r8
 800410e:	4798      	blx	r3
 8004110:	ea6f 020b 	mvn.w	r2, fp
 8004114:	1c52      	adds	r2, r2, #1
 8004116:	ea42 020b 	orr.w	r2, r2, fp
 800411a:	9900      	ldr	r1, [sp, #0]
 800411c:	ea6f 73d2 	mvn.w	r3, r2, lsr #31
 8004120:	1c5b      	adds	r3, r3, #1
 8004122:	4019      	ands	r1, r3
 8004124:	43c2      	mvns	r2, r0
 8004126:	9100      	str	r1, [sp, #0]
 8004128:	1c52      	adds	r2, r2, #1
 800412a:	4302      	orrs	r2, r0
 800412c:	9900      	ldr	r1, [sp, #0]
 800412e:	ea6f 73d2 	mvn.w	r3, r2, lsr #31
 8004132:	1c5b      	adds	r3, r3, #1
 8004134:	4019      	ands	r1, r3
 8004136:	9100      	str	r1, [sp, #0]
 8004138:	f086 3155 	eor.w	r1, r6, #1431655765	@ 0x55555555
 800413c:	4048      	eors	r0, r1
 800413e:	ea87 0100 	eor.w	r1, r7, r0
 8004142:	f081 3155 	eor.w	r1, r1, #1431655765	@ 0x55555555
 8004146:	6021      	str	r1, [r4, #0]
 8004148:	f080 3155 	eor.w	r1, r0, #1431655765	@ 0x55555555
 800414c:	43c9      	mvns	r1, r1
 800414e:	1c49      	adds	r1, r1, #1
 8004150:	4308      	orrs	r0, r1
 8004152:	9a00      	ldr	r2, [sp, #0]
 8004154:	ea6f 70d0 	mvn.w	r0, r0, lsr #31
 8004158:	1c40      	adds	r0, r0, #1
 800415a:	4382      	bics	r2, r0
 800415c:	9200      	str	r2, [sp, #0]
 800415e:	f8d9 0008 	ldr.w	r0, [r9, #8]
 8004162:	2801      	cmp	r0, #1
 8004164:	d109      	bne.n	800417a <cmox_utils_robustCmp+0x9e>
 8004166:	4075      	eors	r5, r6
 8004168:	43e9      	mvns	r1, r5
 800416a:	1c49      	adds	r1, r1, #1
 800416c:	430d      	orrs	r5, r1
 800416e:	9800      	ldr	r0, [sp, #0]
 8004170:	ea6f 72d5 	mvn.w	r2, r5, lsr #31
 8004174:	1c52      	adds	r2, r2, #1
 8004176:	4390      	bics	r0, r2
 8004178:	e00a      	b.n	8004190 <cmox_utils_robustCmp+0xb4>
 800417a:	1cf1      	adds	r1, r6, #3
 800417c:	ea85 0291 	eor.w	r2, r5, r1, lsr #2
 8004180:	43d2      	mvns	r2, r2
 8004182:	1c52      	adds	r2, r2, #1
 8004184:	4315      	orrs	r5, r2
 8004186:	9800      	ldr	r0, [sp, #0]
 8004188:	ea6f 73d5 	mvn.w	r3, r5, lsr #31
 800418c:	1c5b      	adds	r3, r3, #1
 800418e:	4398      	bics	r0, r3
 8004190:	f086 36aa 	eor.w	r6, r6, #2863311530	@ 0xaaaaaaaa
 8004194:	9000      	str	r0, [sp, #0]
 8004196:	ea86 060b 	eor.w	r6, r6, fp
 800419a:	f086 33aa 	eor.w	r3, r6, #2863311530	@ 0xaaaaaaaa
 800419e:	43f2      	mvns	r2, r6
 80041a0:	43db      	mvns	r3, r3
 80041a2:	980c      	ldr	r0, [sp, #48]	@ 0x30
 80041a4:	f3c2 72c0 	ubfx	r2, r2, #31, #1
 80041a8:	1c5b      	adds	r3, r3, #1
 80041aa:	ea42 72d3 	orr.w	r2, r2, r3, lsr #31
 80041ae:	9900      	ldr	r1, [sp, #0]
 80041b0:	43d2      	mvns	r2, r2
 80041b2:	1c52      	adds	r2, r2, #1
 80041b4:	4391      	bics	r1, r2
 80041b6:	9100      	str	r1, [sp, #0]
 80041b8:	4077      	eors	r7, r6
 80041ba:	9900      	ldr	r1, [sp, #0]
 80041bc:	4388      	bics	r0, r1
 80041be:	9900      	ldr	r1, [sp, #0]
 80041c0:	f087 37aa 	eor.w	r7, r7, #2863311530	@ 0xaaaaaaaa
 80041c4:	400f      	ands	r7, r1
 80041c6:	4338      	orrs	r0, r7
 80041c8:	e8bd 8ff2 	ldmia.w	sp!, {r1, r4, r5, r6, r7, r8, r9, sl, fp, pc}

080041cc <cmox_bn_alloc>:
 80041cc:	b538      	push	{r3, r4, r5, lr}
 80041ce:	4615      	mov	r5, r2
 80041d0:	00aa      	lsls	r2, r5, #2
 80041d2:	460c      	mov	r4, r1
 80041d4:	1d12      	adds	r2, r2, #4
 80041d6:	f7fe fc56 	bl	8002a86 <cmox_membuf_alloc>
 80041da:	b908      	cbnz	r0, 80041e0 <cmox_bn_alloc+0x14>
 80041dc:	6821      	ldr	r1, [r4, #0]
 80041de:	600d      	str	r5, [r1, #0]
 80041e0:	bd32      	pop	{r1, r4, r5, pc}

080041e2 <cmox_bn_free>:
 80041e2:	b510      	push	{r4, lr}
 80041e4:	460c      	mov	r4, r1
 80041e6:	6823      	ldr	r3, [r4, #0]
 80041e8:	681a      	ldr	r2, [r3, #0]
 80041ea:	0092      	lsls	r2, r2, #2
 80041ec:	1d12      	adds	r2, r2, #4
 80041ee:	f7fe fc69 	bl	8002ac4 <cmox_membuf_free>
 80041f2:	2300      	movs	r3, #0
 80041f4:	6023      	str	r3, [r4, #0]
 80041f6:	bd10      	pop	{r4, pc}

080041f8 <cmox_bn_import>:
 80041f8:	b570      	push	{r4, r5, r6, lr}
 80041fa:	4603      	mov	r3, r0
 80041fc:	2000      	movs	r0, #0
 80041fe:	2b00      	cmp	r3, #0
 8004200:	bf18      	it	ne
 8004202:	2900      	cmpne	r1, #0
 8004204:	d000      	beq.n	8004208 <cmox_bn_import+0x10>
 8004206:	b90a      	cbnz	r2, 800420c <cmox_bn_import+0x14>
 8004208:	2001      	movs	r0, #1
 800420a:	bd70      	pop	{r4, r5, r6, pc}
 800420c:	681c      	ldr	r4, [r3, #0]
 800420e:	42a2      	cmp	r2, r4
 8004210:	bf28      	it	cs
 8004212:	4622      	movcs	r2, r4
 8004214:	2401      	movs	r4, #1
 8004216:	e006      	b.n	8004226 <cmox_bn_import+0x2e>
 8004218:	eb01 0584 	add.w	r5, r1, r4, lsl #2
 800421c:	f855 6c04 	ldr.w	r6, [r5, #-4]
 8004220:	f843 6024 	str.w	r6, [r3, r4, lsl #2]
 8004224:	1c64      	adds	r4, r4, #1
 8004226:	42a2      	cmp	r2, r4
 8004228:	d2f6      	bcs.n	8004218 <cmox_bn_import+0x20>
 800422a:	6819      	ldr	r1, [r3, #0]
 800422c:	42a1      	cmp	r1, r4
 800422e:	bf24      	itt	cs
 8004230:	f843 0024 	strcs.w	r0, [r3, r4, lsl #2]
 8004234:	1c64      	addcs	r4, r4, #1
 8004236:	d2f8      	bcs.n	800422a <cmox_bn_import+0x32>
 8004238:	bd70      	pop	{r4, r5, r6, pc}

0800423a <cmox_bn_init>:
 800423a:	4602      	mov	r2, r0
 800423c:	2000      	movs	r0, #0
 800423e:	b90a      	cbnz	r2, 8004244 <cmox_bn_init+0xa>
 8004240:	2001      	movs	r0, #1
 8004242:	4770      	bx	lr
 8004244:	6051      	str	r1, [r2, #4]
 8004246:	2102      	movs	r1, #2
 8004248:	e002      	b.n	8004250 <cmox_bn_init+0x16>
 800424a:	f842 0021 	str.w	r0, [r2, r1, lsl #2]
 800424e:	1c49      	adds	r1, r1, #1
 8004250:	6813      	ldr	r3, [r2, #0]
 8004252:	428b      	cmp	r3, r1
 8004254:	d2f9      	bcs.n	800424a <cmox_bn_init+0x10>
 8004256:	4770      	bx	lr

08004258 <cmox_bn_cCopy>:
 8004258:	e92d 43f8 	stmdb	sp!, {r3, r4, r5, r6, r7, r8, r9, lr}
 800425c:	4616      	mov	r6, r2
 800425e:	4607      	mov	r7, r0
 8004260:	4688      	mov	r8, r1
 8004262:	6830      	ldr	r0, [r6, #0]
 8004264:	f8d8 4000 	ldr.w	r4, [r8]
 8004268:	2500      	movs	r5, #0
 800426a:	1c40      	adds	r0, r0, #1
 800426c:	427a      	negs	r2, r7
 800426e:	e004      	b.n	800427a <cmox_bn_cCopy+0x22>
 8004270:	f858 1020 	ldr.w	r1, [r8, r0, lsl #2]
 8004274:	4011      	ands	r1, r2
 8004276:	430d      	orrs	r5, r1
 8004278:	1c40      	adds	r0, r0, #1
 800427a:	4284      	cmp	r4, r0
 800427c:	d2f8      	bcs.n	8004270 <cmox_bn_cCopy+0x18>
 800427e:	6830      	ldr	r0, [r6, #0]
 8004280:	42a0      	cmp	r0, r4
 8004282:	bf38      	it	cc
 8004284:	4604      	movcc	r4, r0
 8004286:	ea5f 0904 	movs.w	r9, r4
 800428a:	e00a      	b.n	80042a2 <cmox_bn_cCopy+0x4a>
 800428c:	f856 2029 	ldr.w	r2, [r6, r9, lsl #2]
 8004290:	f858 1029 	ldr.w	r1, [r8, r9, lsl #2]
 8004294:	4638      	mov	r0, r7
 8004296:	f7fe fbb8 	bl	8002a0a <cmox_mathUtils_mux>
 800429a:	f846 0029 	str.w	r0, [r6, r9, lsl #2]
 800429e:	f1b9 0901 	subs.w	r9, r9, #1
 80042a2:	d1f3      	bne.n	800428c <cmox_bn_cCopy+0x34>
 80042a4:	1c64      	adds	r4, r4, #1
 80042a6:	1e79      	subs	r1, r7, #1
 80042a8:	e005      	b.n	80042b6 <cmox_bn_cCopy+0x5e>
 80042aa:	f856 0024 	ldr.w	r0, [r6, r4, lsl #2]
 80042ae:	4008      	ands	r0, r1
 80042b0:	f846 0024 	str.w	r0, [r6, r4, lsl #2]
 80042b4:	1c64      	adds	r4, r4, #1
 80042b6:	6830      	ldr	r0, [r6, #0]
 80042b8:	42a0      	cmp	r0, r4
 80042ba:	d2f6      	bcs.n	80042aa <cmox_bn_cCopy+0x52>
 80042bc:	2d00      	cmp	r5, #0
 80042be:	bf14      	ite	ne
 80042c0:	2003      	movne	r0, #3
 80042c2:	2000      	moveq	r0, #0
 80042c4:	e8bd 83f2 	ldmia.w	sp!, {r1, r4, r5, r6, r7, r8, r9, pc}

080042c8 <cmox_bn_mux>:
 80042c8:	4240      	negs	r0, r0
 80042ca:	4051      	eors	r1, r2
 80042cc:	4008      	ands	r0, r1
 80042ce:	4050      	eors	r0, r2
 80042d0:	4770      	bx	lr

080042d2 <cmox_bn_cmp>:
 80042d2:	e92d 47f0 	stmdb	sp!, {r4, r5, r6, r7, r8, r9, sl, lr}
 80042d6:	4684      	mov	ip, r0
 80042d8:	468e      	mov	lr, r1
 80042da:	f8dc 1000 	ldr.w	r1, [ip]
 80042de:	f8de 5000 	ldr.w	r5, [lr]
 80042e2:	2601      	movs	r6, #1
 80042e4:	2700      	movs	r7, #0
 80042e6:	42a9      	cmp	r1, r5
 80042e8:	46ba      	mov	sl, r7
 80042ea:	d30f      	bcc.n	800430c <cmox_bn_cmp+0x3a>
 80042ec:	4608      	mov	r0, r1
 80042ee:	4664      	mov	r4, ip
 80042f0:	2101      	movs	r1, #1
 80042f2:	4285      	cmp	r5, r0
 80042f4:	d224      	bcs.n	8004340 <cmox_bn_cmp+0x6e>
 80042f6:	f854 2020 	ldr.w	r2, [r4, r0, lsl #2]
 80042fa:	2300      	movs	r3, #0
 80042fc:	4252      	negs	r2, r2
 80042fe:	eb63 0343 	sbc.w	r3, r3, r3, lsl #1
 8004302:	f003 0301 	and.w	r3, r3, #1
 8004306:	431f      	orrs	r7, r3
 8004308:	1e40      	subs	r0, r0, #1
 800430a:	e7f2      	b.n	80042f2 <cmox_bn_cmp+0x20>
 800430c:	4628      	mov	r0, r5
 800430e:	460d      	mov	r5, r1
 8004310:	4674      	mov	r4, lr
 8004312:	f04f 31ff 	mov.w	r1, #4294967295
 8004316:	e7ee      	b.n	80042f6 <cmox_bn_cmp+0x24>
 8004318:	f85c 2020 	ldr.w	r2, [ip, r0, lsl #2]
 800431c:	f85e 4020 	ldr.w	r4, [lr, r0, lsl #2]
 8004320:	2500      	movs	r5, #0
 8004322:	2300      	movs	r3, #0
 8004324:	ebb4 0802 	subs.w	r8, r4, r2
 8004328:	eb65 0903 	sbc.w	r9, r5, r3
 800432c:	4062      	eors	r2, r4
 800432e:	1e52      	subs	r2, r2, #1
 8004330:	ea06 0509 	and.w	r5, r6, r9
 8004334:	f163 0300 	sbc.w	r3, r3, #0
 8004338:	ea45 0a0a 	orr.w	sl, r5, sl
 800433c:	401e      	ands	r6, r3
 800433e:	1e40      	subs	r0, r0, #1
 8004340:	2800      	cmp	r0, #0
 8004342:	d1e9      	bne.n	8004318 <cmox_bn_cmp+0x46>
 8004344:	4638      	mov	r0, r7
 8004346:	eb06 024a 	add.w	r2, r6, sl, lsl #1
 800434a:	e8bd 47f0 	ldmia.w	sp!, {r4, r5, r6, r7, r8, r9, sl, lr}
 800434e:	1e52      	subs	r2, r2, #1
 8004350:	f7fe bb5b 	b.w	8002a0a <cmox_mathUtils_mux>

08004354 <cmox_bn_cmpUint>:
 8004354:	b510      	push	{r4, lr}
 8004356:	460a      	mov	r2, r1
 8004358:	6801      	ldr	r1, [r0, #0]
 800435a:	2300      	movs	r3, #0
 800435c:	e003      	b.n	8004366 <cmox_bn_cmpUint+0x12>
 800435e:	f850 4021 	ldr.w	r4, [r0, r1, lsl #2]
 8004362:	4323      	orrs	r3, r4
 8004364:	1e49      	subs	r1, r1, #1
 8004366:	2902      	cmp	r1, #2
 8004368:	d2f9      	bcs.n	800435e <cmox_bn_cmpUint+0xa>
 800436a:	6840      	ldr	r0, [r0, #4]
 800436c:	4042      	eors	r2, r0
 800436e:	2100      	movs	r1, #0
 8004370:	ea42 0003 	orr.w	r0, r2, r3
 8004374:	f7fe fb51 	bl	8002a1a <cmox_mathUtils_neq>
 8004378:	e8bd 4010 	ldmia.w	sp!, {r4, lr}
 800437c:	f7fe bb4a 	b.w	8002a14 <cmox_mathUtils_not>

08004380 <cmox_bn_countBits>:
 8004380:	b5f8      	push	{r3, r4, r5, r6, r7, lr}
 8004382:	4605      	mov	r5, r0
 8004384:	2200      	movs	r2, #0
 8004386:	682e      	ldr	r6, [r5, #0]
 8004388:	0034      	movs	r4, r6
 800438a:	e00b      	b.n	80043a4 <cmox_bn_countBits+0x24>
 800438c:	4257      	negs	r7, r2
 800438e:	4317      	orrs	r7, r2
 8004390:	43ff      	mvns	r7, r7
 8004392:	f855 1024 	ldr.w	r1, [r5, r4, lsl #2]
 8004396:	0ff8      	lsrs	r0, r7, #31
 8004398:	f7fe fb37 	bl	8002a0a <cmox_mathUtils_mux>
 800439c:	4602      	mov	r2, r0
 800439e:	eba6 76d7 	sub.w	r6, r6, r7, lsr #31
 80043a2:	1e64      	subs	r4, r4, #1
 80043a4:	d1f2      	bne.n	800438c <cmox_bn_countBits+0xc>
 80043a6:	4610      	mov	r0, r2
 80043a8:	f7fe fb43 	bl	8002a32 <cmox_mathUtils_bitLength>
 80043ac:	eb00 1046 	add.w	r0, r0, r6, lsl #5
 80043b0:	bdf2      	pop	{r1, r4, r5, r6, r7, pc}

080043b2 <cmox_bn_getBits>:
 80043b2:	b5f8      	push	{r3, r4, r5, r6, r7, lr}
 80043b4:	4606      	mov	r6, r0
 80043b6:	460c      	mov	r4, r1
 80043b8:	0957      	lsrs	r7, r2, #5
 80043ba:	6830      	ldr	r0, [r6, #0]
 80043bc:	f002 051f 	and.w	r5, r2, #31
 80043c0:	1c79      	adds	r1, r7, #1
 80043c2:	f7fe fb2f 	bl	8002a24 <cmox_mathUtils_gt>
 80043c6:	1cbb      	adds	r3, r7, #2
 80043c8:	4241      	negs	r1, r0
 80043ca:	400b      	ands	r3, r1
 80043cc:	f856 1023 	ldr.w	r1, [r6, r3, lsl #2]
 80043d0:	2200      	movs	r2, #0
 80043d2:	f7fe fb1a 	bl	8002a0a <cmox_mathUtils_mux>
 80043d6:	eb06 0187 	add.w	r1, r6, r7, lsl #2
 80043da:	f004 041f 	and.w	r4, r4, #31
 80043de:	684a      	ldr	r2, [r1, #4]
 80043e0:	40ea      	lsrs	r2, r5
 80043e2:	f1c5 0520 	rsb	r5, r5, #32
 80043e6:	fa00 f505 	lsl.w	r5, r0, r5
 80043ea:	2001      	movs	r0, #1
 80043ec:	fa00 f404 	lsl.w	r4, r0, r4
 80043f0:	4315      	orrs	r5, r2
 80043f2:	1e64      	subs	r4, r4, #1
 80043f4:	ea04 0005 	and.w	r0, r4, r5
 80043f8:	bdf2      	pop	{r1, r4, r5, r6, r7, pc}

080043fa <cmox_bn_setBits>:
 80043fa:	e92d 47f0 	stmdb	sp!, {r4, r5, r6, r7, r8, r9, sl, lr}
 80043fe:	4680      	mov	r8, r0
 8004400:	2001      	movs	r0, #1
 8004402:	f001 061f 	and.w	r6, r1, #31
 8004406:	fa00 f606 	lsl.w	r6, r0, r6
 800440a:	0955      	lsrs	r5, r2, #5
 800440c:	1e76      	subs	r6, r6, #1
 800440e:	1c6d      	adds	r5, r5, #1
 8004410:	f8d8 0000 	ldr.w	r0, [r8]
 8004414:	ea06 0903 	and.w	r9, r6, r3
 8004418:	f002 0a1f 	and.w	sl, r2, #31
 800441c:	f001 071f 	and.w	r7, r1, #31
 8004420:	4629      	mov	r1, r5
 8004422:	f7fe faff 	bl	8002a24 <cmox_mathUtils_gt>
 8004426:	4457      	add	r7, sl
 8004428:	3f20      	subs	r7, #32
 800442a:	4604      	mov	r4, r0
 800442c:	43f8      	mvns	r0, r7
 800442e:	f858 1025 	ldr.w	r1, [r8, r5, lsl #2]
 8004432:	f3c0 70c0 	ubfx	r0, r0, #31, #1
 8004436:	fa06 f60a 	lsl.w	r6, r6, sl
 800443a:	4004      	ands	r4, r0
 800443c:	ea21 0606 	bic.w	r6, r1, r6
 8004440:	4278      	negs	r0, r7
 8004442:	f848 6025 	str.w	r6, [r8, r5, lsl #2]
 8004446:	ea04 74d0 	and.w	r4, r4, r0, lsr #31
 800444a:	fa09 f00a 	lsl.w	r0, r9, sl
 800444e:	4306      	orrs	r6, r0
 8004450:	f848 6025 	str.w	r6, [r8, r5, lsl #2]
 8004454:	f04f 32ff 	mov.w	r2, #4294967295
 8004458:	fa02 f107 	lsl.w	r1, r2, r7
 800445c:	4620      	mov	r0, r4
 800445e:	f7fe fad4 	bl	8002a0a <cmox_mathUtils_mux>
 8004462:	1c6d      	adds	r5, r5, #1
 8004464:	4261      	negs	r1, r4
 8004466:	400d      	ands	r5, r1
 8004468:	f858 2025 	ldr.w	r2, [r8, r5, lsl #2]
 800446c:	4010      	ands	r0, r2
 800446e:	f848 0025 	str.w	r0, [r8, r5, lsl #2]
 8004472:	f1ca 0a20 	rsb	sl, sl, #32
 8004476:	2200      	movs	r2, #0
 8004478:	fa29 f10a 	lsr.w	r1, r9, sl
 800447c:	4620      	mov	r0, r4
 800447e:	f7fe fac4 	bl	8002a0a <cmox_mathUtils_mux>
 8004482:	f858 1025 	ldr.w	r1, [r8, r5, lsl #2]
 8004486:	4308      	orrs	r0, r1
 8004488:	f848 0025 	str.w	r0, [r8, r5, lsl #2]
 800448c:	e8bd 87f0 	ldmia.w	sp!, {r4, r5, r6, r7, r8, r9, sl, pc}

08004490 <cmox_bn_fromU8BE>:
 8004490:	b5f8      	push	{r3, r4, r5, r6, r7, lr}
 8004492:	b10a      	cbz	r2, 8004498 <cmox_bn_fromU8BE+0x8>
 8004494:	b910      	cbnz	r0, 800449c <cmox_bn_fromU8BE+0xc>
 8004496:	b109      	cbz	r1, 800449c <cmox_bn_fromU8BE+0xc>
 8004498:	2001      	movs	r0, #1
 800449a:	bdf2      	pop	{r1, r4, r5, r6, r7, pc}
 800449c:	6813      	ldr	r3, [r2, #0]
 800449e:	1ccc      	adds	r4, r1, #3
 80044a0:	ebb3 0f94 	cmp.w	r3, r4, lsr #2
 80044a4:	d201      	bcs.n	80044aa <cmox_bn_fromU8BE+0x1a>
 80044a6:	2003      	movs	r0, #3
 80044a8:	bdf2      	pop	{r1, r4, r5, r6, r7, pc}
 80044aa:	b379      	cbz	r1, 800450c <cmox_bn_fromU8BE+0x7c>
 80044ac:	088b      	lsrs	r3, r1, #2
 80044ae:	1c5b      	adds	r3, r3, #1
 80044b0:	2401      	movs	r4, #1
 80044b2:	e00f      	b.n	80044d4 <cmox_bn_fromU8BE+0x44>
 80044b4:	eba1 0584 	sub.w	r5, r1, r4, lsl #2
 80044b8:	4405      	add	r5, r0
 80044ba:	786f      	ldrb	r7, [r5, #1]
 80044bc:	782e      	ldrb	r6, [r5, #0]
 80044be:	043f      	lsls	r7, r7, #16
 80044c0:	ea47 6706 	orr.w	r7, r7, r6, lsl #24
 80044c4:	78ae      	ldrb	r6, [r5, #2]
 80044c6:	78ed      	ldrb	r5, [r5, #3]
 80044c8:	ea47 2706 	orr.w	r7, r7, r6, lsl #8
 80044cc:	432f      	orrs	r7, r5
 80044ce:	f842 7024 	str.w	r7, [r2, r4, lsl #2]
 80044d2:	1c64      	adds	r4, r4, #1
 80044d4:	429c      	cmp	r4, r3
 80044d6:	d3ed      	bcc.n	80044b4 <cmox_bn_fromU8BE+0x24>
 80044d8:	6815      	ldr	r5, [r2, #0]
 80044da:	42a5      	cmp	r5, r4
 80044dc:	bf22      	ittt	cs
 80044de:	2600      	movcs	r6, #0
 80044e0:	f842 6024 	strcs.w	r6, [r2, r4, lsl #2]
 80044e4:	1c64      	addcs	r4, r4, #1
 80044e6:	d2f7      	bcs.n	80044d8 <cmox_bn_fromU8BE+0x48>
 80044e8:	f011 0103 	ands.w	r1, r1, #3
 80044ec:	d011      	beq.n	8004512 <cmox_bn_fromU8BE+0x82>
 80044ee:	7804      	ldrb	r4, [r0, #0]
 80044f0:	f842 4023 	str.w	r4, [r2, r3, lsl #2]
 80044f4:	2401      	movs	r4, #1
 80044f6:	428c      	cmp	r4, r1
 80044f8:	d20b      	bcs.n	8004512 <cmox_bn_fromU8BE+0x82>
 80044fa:	f852 5023 	ldr.w	r5, [r2, r3, lsl #2]
 80044fe:	5d06      	ldrb	r6, [r0, r4]
 8004500:	ea46 2605 	orr.w	r6, r6, r5, lsl #8
 8004504:	f842 6023 	str.w	r6, [r2, r3, lsl #2]
 8004508:	1c64      	adds	r4, r4, #1
 800450a:	e7f4      	b.n	80044f6 <cmox_bn_fromU8BE+0x66>
 800450c:	4610      	mov	r0, r2
 800450e:	f7ff fe94 	bl	800423a <cmox_bn_init>
 8004512:	2000      	movs	r0, #0
 8004514:	bdf2      	pop	{r1, r4, r5, r6, r7, pc}

08004516 <cmox_bn_fromU8LE>:
 8004516:	b5f8      	push	{r3, r4, r5, r6, r7, lr}
 8004518:	2300      	movs	r3, #0
 800451a:	b10a      	cbz	r2, 8004520 <cmox_bn_fromU8LE+0xa>
 800451c:	b910      	cbnz	r0, 8004524 <cmox_bn_fromU8LE+0xe>
 800451e:	b109      	cbz	r1, 8004524 <cmox_bn_fromU8LE+0xe>
 8004520:	2001      	movs	r0, #1
 8004522:	bdf2      	pop	{r1, r4, r5, r6, r7, pc}
 8004524:	6814      	ldr	r4, [r2, #0]
 8004526:	1ccd      	adds	r5, r1, #3
 8004528:	ebb4 0f95 	cmp.w	r4, r5, lsr #2
 800452c:	d201      	bcs.n	8004532 <cmox_bn_fromU8LE+0x1c>
 800452e:	2003      	movs	r0, #3
 8004530:	bdf2      	pop	{r1, r4, r5, r6, r7, pc}
 8004532:	b3b9      	cbz	r1, 80045a4 <cmox_bn_fromU8LE+0x8e>
 8004534:	2400      	movs	r4, #0
 8004536:	e010      	b.n	800455a <cmox_bn_fromU8LE+0x44>
 8004538:	1906      	adds	r6, r0, r4
 800453a:	eb02 0585 	add.w	r5, r2, r5, lsl #2
 800453e:	f896 c002 	ldrb.w	ip, [r6, #2]
 8004542:	78f7      	ldrb	r7, [r6, #3]
 8004544:	ea4f 4c0c 	mov.w	ip, ip, lsl #16
 8004548:	ea4c 6c07 	orr.w	ip, ip, r7, lsl #24
 800454c:	7877      	ldrb	r7, [r6, #1]
 800454e:	7836      	ldrb	r6, [r6, #0]
 8004550:	ea4c 2707 	orr.w	r7, ip, r7, lsl #8
 8004554:	433e      	orrs	r6, r7
 8004556:	606e      	str	r6, [r5, #4]
 8004558:	1d24      	adds	r4, r4, #4
 800455a:	08a5      	lsrs	r5, r4, #2
 800455c:	1ece      	subs	r6, r1, #3
 800455e:	42b4      	cmp	r4, r6
 8004560:	d3ea      	bcc.n	8004538 <cmox_bn_fromU8LE+0x22>
 8004562:	f011 0f03 	tst.w	r1, #3
 8004566:	d011      	beq.n	800458c <cmox_bn_fromU8LE+0x76>
 8004568:	1c6d      	adds	r5, r5, #1
 800456a:	f842 3025 	str.w	r3, [r2, r5, lsl #2]
 800456e:	e00b      	b.n	8004588 <cmox_bn_fromU8LE+0x72>
 8004570:	5d07      	ldrb	r7, [r0, r4]
 8004572:	f852 6025 	ldr.w	r6, [r2, r5, lsl #2]
 8004576:	ea4f 0cc3 	mov.w	ip, r3, lsl #3
 800457a:	fa07 f70c 	lsl.w	r7, r7, ip
 800457e:	433e      	orrs	r6, r7
 8004580:	f842 6025 	str.w	r6, [r2, r5, lsl #2]
 8004584:	1c5b      	adds	r3, r3, #1
 8004586:	1c64      	adds	r4, r4, #1
 8004588:	428c      	cmp	r4, r1
 800458a:	d3f1      	bcc.n	8004570 <cmox_bn_fromU8LE+0x5a>
 800458c:	1ce4      	adds	r4, r4, #3
 800458e:	08a4      	lsrs	r4, r4, #2
 8004590:	1c64      	adds	r4, r4, #1
 8004592:	2100      	movs	r1, #0
 8004594:	6810      	ldr	r0, [r2, #0]
 8004596:	42a0      	cmp	r0, r4
 8004598:	bf24      	itt	cs
 800459a:	f842 1024 	strcs.w	r1, [r2, r4, lsl #2]
 800459e:	1c64      	addcs	r4, r4, #1
 80045a0:	d2f8      	bcs.n	8004594 <cmox_bn_fromU8LE+0x7e>
 80045a2:	e002      	b.n	80045aa <cmox_bn_fromU8LE+0x94>
 80045a4:	4610      	mov	r0, r2
 80045a6:	f7ff fe48 	bl	800423a <cmox_bn_init>
 80045aa:	2000      	movs	r0, #0
 80045ac:	bdf2      	pop	{r1, r4, r5, r6, r7, pc}

080045ae <cmox_asm_montymul_x128>:
 80045ae:	e92d 4ff0 	stmdb	sp!, {r4, r5, r6, r7, r8, r9, sl, fp, lr}
 80045b2:	b086      	sub	sp, #24
 80045b4:	f851 4b04 	ldr.w	r4, [r1], #4
 80045b8:	e9cd 0100 	strd	r0, r1, [sp]
 80045bc:	9202      	str	r2, [sp, #8]
 80045be:	e8b0 01e0 	ldmia.w	r0!, {r5, r6, r7, r8}
 80045c2:	fba4 9a05 	umull	r9, sl, r4, r5
 80045c6:	f04f 0e00 	mov.w	lr, #0
 80045ca:	fbae bc0e 	umull	fp, ip, lr, lr
 80045ce:	fbe4 ab66 	umaal	sl, fp, r4, r6
 80045d2:	fbe4 bc67 	umaal	fp, ip, r4, r7
 80045d6:	fbe4 ce68 	umaal	ip, lr, r4, r8
 80045da:	e8a3 1e00 	stmia.w	r3!, {r9, sl, fp, ip}
 80045de:	1f12      	subs	r2, r2, #4
 80045e0:	e8b0 01e0 	ldmia.w	r0!, {r5, r6, r7, r8}
 80045e4:	46f1      	mov	r9, lr
 80045e6:	f04f 0e00 	mov.w	lr, #0
 80045ea:	fbae ab0e 	umull	sl, fp, lr, lr
 80045ee:	46f4      	mov	ip, lr
 80045f0:	fbe4 9a65 	umaal	r9, sl, r4, r5
 80045f4:	fbe4 ab66 	umaal	sl, fp, r4, r6
 80045f8:	fbe4 bc67 	umaal	fp, ip, r4, r7
 80045fc:	fbe4 ce68 	umaal	ip, lr, r4, r8
 8004600:	e8a3 1e00 	stmia.w	r3!, {r9, sl, fp, ip}
 8004604:	1f12      	subs	r2, r2, #4
 8004606:	d1eb      	bne.n	80045e0 <cmox_asm_montymul_x128+0x32>
 8004608:	9a02      	ldr	r2, [sp, #8]
 800460a:	eba3 0382 	sub.w	r3, r3, r2, lsl #2
 800460e:	f8cd e00c 	str.w	lr, [sp, #12]
 8004612:	e9dd 040f 	ldrd	r0, r4, [sp, #60]	@ 0x3c
 8004616:	e8b0 01e0 	ldmia.w	r0!, {r5, r6, r7, r8}
 800461a:	f04f 0900 	mov.w	r9, #0
 800461e:	4619      	mov	r1, r3
 8004620:	e8b3 5c00 	ldmia.w	r3!, {sl, fp, ip, lr}
 8004624:	fb04 f40a 	mul.w	r4, r4, sl
 8004628:	fbe4 9a65 	umaal	r9, sl, r4, r5
 800462c:	fbe4 ab66 	umaal	sl, fp, r4, r6
 8004630:	fbe4 bc67 	umaal	fp, ip, r4, r7
 8004634:	fbe4 ce68 	umaal	ip, lr, r4, r8
 8004638:	e8a1 1c00 	stmia.w	r1!, {sl, fp, ip}
 800463c:	f1b2 0204 	subs.w	r2, r2, #4
 8004640:	e8b0 01e0 	ldmia.w	r0!, {r5, r6, r7, r8}
 8004644:	46f1      	mov	r9, lr
 8004646:	e8b3 5c00 	ldmia.w	r3!, {sl, fp, ip, lr}
 800464a:	fbe4 9a65 	umaal	r9, sl, r4, r5
 800464e:	fbe4 ab66 	umaal	sl, fp, r4, r6
 8004652:	fbe4 bc67 	umaal	fp, ip, r4, r7
 8004656:	fbe4 ce68 	umaal	ip, lr, r4, r8
 800465a:	e8a1 1e00 	stmia.w	r1!, {r9, sl, fp, ip}
 800465e:	1f12      	subs	r2, r2, #4
 8004660:	d1ee      	bne.n	8004640 <cmox_asm_montymul_x128+0x92>
 8004662:	f8dd c00c 	ldr.w	ip, [sp, #12]
 8004666:	f04f 0a00 	mov.w	sl, #0
 800466a:	eb1c 0c0e 	adds.w	ip, ip, lr
 800466e:	f14a 0b00 	adc.w	fp, sl, #0
 8004672:	f8c1 c000 	str.w	ip, [r1]
 8004676:	f8cd b00c 	str.w	fp, [sp, #12]
 800467a:	9a02      	ldr	r2, [sp, #8]
 800467c:	f1a2 0a01 	sub.w	sl, r2, #1
 8004680:	f8cd a014 	str.w	sl, [sp, #20]
 8004684:	e9dd 0100 	ldrd	r0, r1, [sp]
 8004688:	f851 4b04 	ldr.w	r4, [r1], #4
 800468c:	f8cd 1004 	str.w	r1, [sp, #4]
 8004690:	f04f 0e00 	mov.w	lr, #0
 8004694:	eba3 0382 	sub.w	r3, r3, r2, lsl #2
 8004698:	e8b0 01e0 	ldmia.w	r0!, {r5, r6, r7, r8}
 800469c:	46f1      	mov	r9, lr
 800469e:	e893 5c00 	ldmia.w	r3, {sl, fp, ip, lr}
 80046a2:	fbe4 9a65 	umaal	r9, sl, r4, r5
 80046a6:	fbe4 ab66 	umaal	sl, fp, r4, r6
 80046aa:	fbe4 bc67 	umaal	fp, ip, r4, r7
 80046ae:	fbe4 ce68 	umaal	ip, lr, r4, r8
 80046b2:	e8a3 1e00 	stmia.w	r3!, {r9, sl, fp, ip}
 80046b6:	1f12      	subs	r2, r2, #4
 80046b8:	d1ee      	bne.n	8004698 <cmox_asm_montymul_x128+0xea>
 80046ba:	9a02      	ldr	r2, [sp, #8]
 80046bc:	eba3 0382 	sub.w	r3, r3, r2, lsl #2
 80046c0:	9d03      	ldr	r5, [sp, #12]
 80046c2:	f04f 0900 	mov.w	r9, #0
 80046c6:	eb1e 0505 	adds.w	r5, lr, r5
 80046ca:	eb49 0609 	adc.w	r6, r9, r9
 80046ce:	e9cd 5603 	strd	r5, r6, [sp, #12]
 80046d2:	e9dd 040f 	ldrd	r0, r4, [sp, #60]	@ 0x3c
 80046d6:	e8b0 01e0 	ldmia.w	r0!, {r5, r6, r7, r8}
 80046da:	4619      	mov	r1, r3
 80046dc:	e8b3 5c00 	ldmia.w	r3!, {sl, fp, ip, lr}
 80046e0:	fb04 f40a 	mul.w	r4, r4, sl
 80046e4:	fbe4 9a65 	umaal	r9, sl, r4, r5
 80046e8:	fbe4 ab66 	umaal	sl, fp, r4, r6
 80046ec:	fbe4 bc67 	umaal	fp, ip, r4, r7
 80046f0:	fbe4 ce68 	umaal	ip, lr, r4, r8
 80046f4:	e8a1 1c00 	stmia.w	r1!, {sl, fp, ip}
 80046f8:	1f12      	subs	r2, r2, #4
 80046fa:	e8b0 01e0 	ldmia.w	r0!, {r5, r6, r7, r8}
 80046fe:	46f1      	mov	r9, lr
 8004700:	e8b3 5c00 	ldmia.w	r3!, {sl, fp, ip, lr}
 8004704:	fbe4 9a65 	umaal	r9, sl, r4, r5
 8004708:	fbe4 ab66 	umaal	sl, fp, r4, r6
 800470c:	fbe4 bc67 	umaal	fp, ip, r4, r7
 8004710:	fbe4 ce68 	umaal	ip, lr, r4, r8
 8004714:	e8a1 1e00 	stmia.w	r1!, {r9, sl, fp, ip}
 8004718:	1f12      	subs	r2, r2, #4
 800471a:	d1ee      	bne.n	80046fa <cmox_asm_montymul_x128+0x14c>
 800471c:	e9dd bc03 	ldrd	fp, ip, [sp, #12]
 8004720:	eb1b 0b0e 	adds.w	fp, fp, lr
 8004724:	f15c 0c00 	adcs.w	ip, ip, #0
 8004728:	f8c1 b000 	str.w	fp, [r1]
 800472c:	f8cd c00c 	str.w	ip, [sp, #12]
 8004730:	f8dd a014 	ldr.w	sl, [sp, #20]
 8004734:	f1ba 0a01 	subs.w	sl, sl, #1
 8004738:	f8cd a014 	str.w	sl, [sp, #20]
 800473c:	9a02      	ldr	r2, [sp, #8]
 800473e:	d1a1      	bne.n	8004684 <cmox_asm_montymul_x128+0xd6>
 8004740:	eba3 0382 	sub.w	r3, r3, r2, lsl #2
 8004744:	980f      	ldr	r0, [sp, #60]	@ 0x3c
 8004746:	cbf0      	ldmia	r3!, {r4, r5, r6, r7}
 8004748:	e8b0 0f00 	ldmia.w	r0!, {r8, r9, sl, fp}
 800474c:	ebb4 0408 	subs.w	r4, r4, r8
 8004750:	eb75 0509 	sbcs.w	r5, r5, r9
 8004754:	eb76 060a 	sbcs.w	r6, r6, sl
 8004758:	eb77 070b 	sbcs.w	r7, r7, fp
 800475c:	f1a2 0204 	sub.w	r2, r2, #4
 8004760:	b16a      	cbz	r2, 800477e <cmox_asm_montymul_x128+0x1d0>
 8004762:	cbf0      	ldmia	r3!, {r4, r5, r6, r7}
 8004764:	e8b0 0f00 	ldmia.w	r0!, {r8, r9, sl, fp}
 8004768:	eb74 0408 	sbcs.w	r4, r4, r8
 800476c:	eb75 0509 	sbcs.w	r5, r5, r9
 8004770:	eb76 060a 	sbcs.w	r6, r6, sl
 8004774:	eb77 070b 	sbcs.w	r7, r7, fp
 8004778:	f1a2 0204 	sub.w	r2, r2, #4
 800477c:	e7f0      	b.n	8004760 <cmox_asm_montymul_x128+0x1b2>
 800477e:	f17c 0c00 	sbcs.w	ip, ip, #0
 8004782:	ea6f 0c0c 	mvn.w	ip, ip
 8004786:	9a02      	ldr	r2, [sp, #8]
 8004788:	eba3 0382 	sub.w	r3, r3, r2, lsl #2
 800478c:	eba0 0082 	sub.w	r0, r0, r2, lsl #2
 8004790:	e893 00f0 	ldmia.w	r3, {r4, r5, r6, r7}
 8004794:	e8b0 0f00 	ldmia.w	r0!, {r8, r9, sl, fp}
 8004798:	ea08 080c 	and.w	r8, r8, ip
 800479c:	ea09 090c 	and.w	r9, r9, ip
 80047a0:	ea0a 0a0c 	and.w	sl, sl, ip
 80047a4:	ea0b 0b0c 	and.w	fp, fp, ip
 80047a8:	ebb4 0408 	subs.w	r4, r4, r8
 80047ac:	eb75 0509 	sbcs.w	r5, r5, r9
 80047b0:	eb76 060a 	sbcs.w	r6, r6, sl
 80047b4:	eb77 070b 	sbcs.w	r7, r7, fp
 80047b8:	c3f0      	stmia	r3!, {r4, r5, r6, r7}
 80047ba:	f1a2 0204 	sub.w	r2, r2, #4
 80047be:	b1ba      	cbz	r2, 80047f0 <cmox_asm_montymul_x128+0x242>
 80047c0:	e893 00f0 	ldmia.w	r3, {r4, r5, r6, r7}
 80047c4:	e8b0 0f00 	ldmia.w	r0!, {r8, r9, sl, fp}
 80047c8:	ea08 080c 	and.w	r8, r8, ip
 80047cc:	ea09 090c 	and.w	r9, r9, ip
 80047d0:	ea0a 0a0c 	and.w	sl, sl, ip
 80047d4:	ea0b 0b0c 	and.w	fp, fp, ip
 80047d8:	eb74 0408 	sbcs.w	r4, r4, r8
 80047dc:	eb75 0509 	sbcs.w	r5, r5, r9
 80047e0:	eb76 060a 	sbcs.w	r6, r6, sl
 80047e4:	eb77 070b 	sbcs.w	r7, r7, fp
 80047e8:	c3f0      	stmia	r3!, {r4, r5, r6, r7}
 80047ea:	f1a2 0204 	sub.w	r2, r2, #4
 80047ee:	e7e6      	b.n	80047be <cmox_asm_montymul_x128+0x210>
 80047f0:	b006      	add	sp, #24
 80047f2:	e8bd 8ff0 	ldmia.w	sp!, {r4, r5, r6, r7, r8, r9, sl, fp, pc}

080047f6 <cmox_asm_montyred>:
 80047f6:	e92d 4ff0 	stmdb	sp!, {r4, r5, r6, r7, r8, r9, sl, fp, lr}
 80047fa:	f8dd 4024 	ldr.w	r4, [sp, #36]	@ 0x24
 80047fe:	9209      	str	r2, [sp, #36]	@ 0x24
 8004800:	ea4f 0181 	mov.w	r1, r1, lsl #2
 8004804:	f04f 0b00 	mov.w	fp, #0
 8004808:	fbab a50b 	umull	sl, r5, fp, fp
 800480c:	468c      	mov	ip, r1
 800480e:	f1bc 0c04 	subs.w	ip, ip, #4
 8004812:	f850 e00c 	ldr.w	lr, [r0, ip]
 8004816:	f843 e00c 	str.w	lr, [r3, ip]
 800481a:	d000      	beq.n	800481e <cmox_asm_montyred+0x28>
 800481c:	e7f7      	b.n	800480e <cmox_asm_montyred+0x18>
 800481e:	4408      	add	r0, r1
 8004820:	f8d3 9000 	ldr.w	r9, [r3]
 8004824:	fbab 780b 	umull	r7, r8, fp, fp
 8004828:	fb09 f904 	mul.w	r9, r9, r4
 800482c:	460e      	mov	r6, r1
 800482e:	469e      	mov	lr, r3
 8004830:	f8de 7000 	ldr.w	r7, [lr]
 8004834:	f852 cb04 	ldr.w	ip, [r2], #4
 8004838:	f1a6 0604 	sub.w	r6, r6, #4
 800483c:	fbe9 786c 	umaal	r7, r8, r9, ip
 8004840:	b156      	cbz	r6, 8004858 <cmox_asm_montyred+0x62>
 8004842:	f8de 7004 	ldr.w	r7, [lr, #4]
 8004846:	f852 cb04 	ldr.w	ip, [r2], #4
 800484a:	f1a6 0604 	sub.w	r6, r6, #4
 800484e:	fbe9 786c 	umaal	r7, r8, r9, ip
 8004852:	f84e 7b04 	str.w	r7, [lr], #4
 8004856:	e7f3      	b.n	8004840 <cmox_asm_montyred+0x4a>
 8004858:	9a09      	ldr	r2, [sp, #36]	@ 0x24
 800485a:	c880      	ldmia	r0!, {r7}
 800485c:	f04f 0c01 	mov.w	ip, #1
 8004860:	fbea 786c 	umaal	r7, r8, sl, ip
 8004864:	f8ce 7000 	str.w	r7, [lr]
 8004868:	46c2      	mov	sl, r8
 800486a:	f105 0504 	add.w	r5, r5, #4
 800486e:	428d      	cmp	r5, r1
 8004870:	dbd6      	blt.n	8004820 <cmox_asm_montyred+0x2a>
 8004872:	469c      	mov	ip, r3
 8004874:	4693      	mov	fp, r2
 8004876:	1e0d      	subs	r5, r1, #0
 8004878:	b135      	cbz	r5, 8004888 <cmox_asm_montyred+0x92>
 800487a:	f85c 6b04 	ldr.w	r6, [ip], #4
 800487e:	ca80      	ldmia	r2!, {r7}
 8004880:	41be      	sbcs	r6, r7
 8004882:	f1a5 0504 	sub.w	r5, r5, #4
 8004886:	e7f7      	b.n	8004878 <cmox_asm_montyred+0x82>
 8004888:	eb66 0606 	sbc.w	r6, r6, r6
 800488c:	eb0a 0c06 	add.w	ip, sl, r6
 8004890:	ea6f 0c0c 	mvn.w	ip, ip
 8004894:	469a      	mov	sl, r3
 8004896:	465a      	mov	r2, fp
 8004898:	1e0d      	subs	r5, r1, #0
 800489a:	b14d      	cbz	r5, 80048b0 <cmox_asm_montyred+0xba>
 800489c:	ca80      	ldmia	r2!, {r7}
 800489e:	f85a 6b04 	ldr.w	r6, [sl], #4
 80048a2:	ea07 070c 	and.w	r7, r7, ip
 80048a6:	41be      	sbcs	r6, r7
 80048a8:	c340      	stmia	r3!, {r6}
 80048aa:	f1a5 0504 	sub.w	r5, r5, #4
 80048ae:	e7f4      	b.n	800489a <cmox_asm_montyred+0xa4>
 80048b0:	e8bd 8ff0 	ldmia.w	sp!, {r4, r5, r6, r7, r8, r9, sl, fp, pc}

080048b4 <cmox_asm_mul>:
 80048b4:	e92d 4f70 	stmdb	sp!, {r4, r5, r6, r8, r9, sl, fp, lr}
 80048b8:	0092      	lsls	r2, r2, #2
 80048ba:	f05f 0900 	movs.w	r9, #0
 80048be:	ea5f 0b42 	movs.w	fp, r2, lsl #1
 80048c2:	f1ab 0b04 	sub.w	fp, fp, #4
 80048c6:	d004      	beq.n	80048d2 <cmox_asm_mul+0x1e>
 80048c8:	f1bb 0b04 	subs.w	fp, fp, #4
 80048cc:	f843 900b 	str.w	r9, [r3, fp]
 80048d0:	d1fa      	bne.n	80048c8 <cmox_asm_mul+0x14>
 80048d2:	ea5f 0b02 	movs.w	fp, r2
 80048d6:	d017      	beq.n	8004908 <cmox_asm_mul+0x54>
 80048d8:	2400      	movs	r4, #0
 80048da:	f850 cb04 	ldr.w	ip, [r0], #4
 80048de:	469e      	mov	lr, r3
 80048e0:	4692      	mov	sl, r2
 80048e2:	460e      	mov	r6, r1
 80048e4:	f8de 5000 	ldr.w	r5, [lr]
 80048e8:	f856 8b04 	ldr.w	r8, [r6], #4
 80048ec:	fbec 5468 	umaal	r5, r4, ip, r8
 80048f0:	f84e 5b04 	str.w	r5, [lr], #4
 80048f4:	f1ba 0a04 	subs.w	sl, sl, #4
 80048f8:	d1f4      	bne.n	80048e4 <cmox_asm_mul+0x30>
 80048fa:	f8ce 4000 	str.w	r4, [lr]
 80048fe:	f103 0304 	add.w	r3, r3, #4
 8004902:	f1bb 0b04 	subs.w	fp, fp, #4
 8004906:	d1e7      	bne.n	80048d8 <cmox_asm_mul+0x24>
 8004908:	e8bd 8f70 	ldmia.w	sp!, {r4, r5, r6, r8, r9, sl, fp, pc}

0800490c <cmox_md_updateState_small>:
 800490c:	2220      	movs	r2, #32
 800490e:	305c      	adds	r0, #92	@ 0x5c
 8004910:	f003 bf22 	b.w	8008758 <__aeabi_memcpy>

08004914 <cmox_md_copyLastState_small>:
 8004914:	b5f0      	push	{r4, r5, r6, r7, lr}
 8004916:	6884      	ldr	r4, [r0, #8]
 8004918:	08a3      	lsrs	r3, r4, #2
 800491a:	2200      	movs	r2, #0
 800491c:	f004 0403 	and.w	r4, r4, #3
 8004920:	e007      	b.n	8004932 <cmox_md_copyLastState_small+0x1e>
 8004922:	f100 055c 	add.w	r5, r0, #92	@ 0x5c
 8004926:	f855 6022 	ldr.w	r6, [r5, r2, lsl #2]
 800492a:	ba35      	rev	r5, r6
 800492c:	f841 5022 	str.w	r5, [r1, r2, lsl #2]
 8004930:	1c52      	adds	r2, r2, #1
 8004932:	429a      	cmp	r2, r3
 8004934:	d3f5      	bcc.n	8004922 <cmox_md_copyLastState_small+0xe>
 8004936:	2200      	movs	r2, #0
 8004938:	e00b      	b.n	8004952 <cmox_md_copyLastState_small+0x3e>
 800493a:	f100 055c 	add.w	r5, r0, #92	@ 0x5c
 800493e:	eb02 0783 	add.w	r7, r2, r3, lsl #2
 8004942:	f855 6023 	ldr.w	r6, [r5, r3, lsl #2]
 8004946:	00d5      	lsls	r5, r2, #3
 8004948:	f1c5 0518 	rsb	r5, r5, #24
 800494c:	40ee      	lsrs	r6, r5
 800494e:	55ce      	strb	r6, [r1, r7]
 8004950:	1c52      	adds	r2, r2, #1
 8004952:	42a2      	cmp	r2, r4
 8004954:	d3f1      	bcc.n	800493a <cmox_md_copyLastState_small+0x26>
 8004956:	bdf0      	pop	{r4, r5, r6, r7, pc}

08004958 <cmox_md_padMsgLen_small>:
 8004958:	b530      	push	{r4, r5, lr}
 800495a:	68c4      	ldr	r4, [r0, #12]
 800495c:	6903      	ldr	r3, [r0, #16]
 800495e:	2200      	movs	r2, #0
 8004960:	1ae3      	subs	r3, r4, r3
 8004962:	18d5      	adds	r5, r2, r3
 8004964:	5c8c      	ldrb	r4, [r1, r2]
 8004966:	4405      	add	r5, r0
 8004968:	1c52      	adds	r2, r2, #1
 800496a:	2a08      	cmp	r2, #8
 800496c:	772c      	strb	r4, [r5, #28]
 800496e:	d3f8      	bcc.n	8004962 <cmox_md_padMsgLen_small+0xa>
 8004970:	bd30      	pop	{r4, r5, pc}

08004972 <cmox_md_construct>:
 8004972:	6003      	str	r3, [r0, #0]
 8004974:	60c1      	str	r1, [r0, #12]
 8004976:	6102      	str	r2, [r0, #16]
 8004978:	4770      	bx	lr

0800497a <cmox_md_init>:
 800497a:	b538      	push	{r3, r4, r5, lr}
 800497c:	4604      	mov	r4, r0
 800497e:	4615      	mov	r5, r2
 8004980:	2200      	movs	r2, #0
 8004982:	6062      	str	r2, [r4, #4]
 8004984:	6823      	ldr	r3, [r4, #0]
 8004986:	685a      	ldr	r2, [r3, #4]
 8004988:	4790      	blx	r2
 800498a:	2000      	movs	r0, #0
 800498c:	6160      	str	r0, [r4, #20]
 800498e:	61a0      	str	r0, [r4, #24]
 8004990:	60a5      	str	r5, [r4, #8]
 8004992:	f44f 3000 	mov.w	r0, #131072	@ 0x20000
 8004996:	bd32      	pop	{r1, r4, r5, pc}

08004998 <cmox_md_setTagSize>:
 8004998:	6081      	str	r1, [r0, #8]
 800499a:	f44f 3000 	mov.w	r0, #131072	@ 0x20000
 800499e:	4770      	bx	lr

080049a0 <cmox_md_append>:
 80049a0:	e92d 43f8 	stmdb	sp!, {r3, r4, r5, r6, r7, r8, r9, lr}
 80049a4:	4604      	mov	r4, r0
 80049a6:	7920      	ldrb	r0, [r4, #4]
 80049a8:	f8d4 800c 	ldr.w	r8, [r4, #12]
 80049ac:	0745      	lsls	r5, r0, #29
 80049ae:	bf48      	it	mi
 80049b0:	4824      	ldrmi	r0, [pc, #144]	@ (8004a44 <cmox_md_append+0xa4>)
 80049b2:	d445      	bmi.n	8004a40 <cmox_md_append+0xa0>
 80049b4:	6966      	ldr	r6, [r4, #20]
 80049b6:	461d      	mov	r5, r3
 80049b8:	f1a8 0001 	sub.w	r0, r8, #1
 80049bc:	ea00 03d6 	and.w	r3, r0, r6, lsr #3
 80049c0:	eb06 06c5 	add.w	r6, r6, r5, lsl #3
 80049c4:	ebb6 0fc5 	cmp.w	r6, r5, lsl #3
 80049c8:	6166      	str	r6, [r4, #20]
 80049ca:	d202      	bcs.n	80049d2 <cmox_md_append+0x32>
 80049cc:	69a6      	ldr	r6, [r4, #24]
 80049ce:	1c76      	adds	r6, r6, #1
 80049d0:	61a6      	str	r6, [r4, #24]
 80049d2:	4617      	mov	r7, r2
 80049d4:	69a6      	ldr	r6, [r4, #24]
 80049d6:	eb06 7655 	add.w	r6, r6, r5, lsr #29
 80049da:	61a6      	str	r6, [r4, #24]
 80049dc:	460e      	mov	r6, r1
 80049de:	18e9      	adds	r1, r5, r3
 80049e0:	4288      	cmp	r0, r1
 80049e2:	d225      	bcs.n	8004a30 <cmox_md_append+0x90>
 80049e4:	eba8 0903 	sub.w	r9, r8, r3
 80049e8:	464a      	mov	r2, r9
 80049ea:	4631      	mov	r1, r6
 80049ec:	18f8      	adds	r0, r7, r3
 80049ee:	f003 feb3 	bl	8008758 <__aeabi_memcpy>
 80049f2:	6822      	ldr	r2, [r4, #0]
 80049f4:	6813      	ldr	r3, [r2, #0]
 80049f6:	4639      	mov	r1, r7
 80049f8:	e00f      	b.n	8004a1a <cmox_md_append+0x7a>
 80049fa:	4642      	mov	r2, r8
 80049fc:	4638      	mov	r0, r7
 80049fe:	f003 feab 	bl	8008758 <__aeabi_memcpy>
 8004a02:	6823      	ldr	r3, [r4, #0]
 8004a04:	681a      	ldr	r2, [r3, #0]
 8004a06:	4639      	mov	r1, r7
 8004a08:	4620      	mov	r0, r4
 8004a0a:	4790      	blx	r2
 8004a0c:	e007      	b.n	8004a1e <cmox_md_append+0x7e>
 8004a0e:	1831      	adds	r1, r6, r0
 8004a10:	f011 0003 	ands.w	r0, r1, #3
 8004a14:	d1f1      	bne.n	80049fa <cmox_md_append+0x5a>
 8004a16:	6822      	ldr	r2, [r4, #0]
 8004a18:	6813      	ldr	r3, [r2, #0]
 8004a1a:	4620      	mov	r0, r4
 8004a1c:	4798      	blx	r3
 8004a1e:	4648      	mov	r0, r9
 8004a20:	eb00 0908 	add.w	r9, r0, r8
 8004a24:	f1a9 0101 	sub.w	r1, r9, #1
 8004a28:	42a9      	cmp	r1, r5
 8004a2a:	d3f0      	bcc.n	8004a0e <cmox_md_append+0x6e>
 8004a2c:	2300      	movs	r3, #0
 8004a2e:	e000      	b.n	8004a32 <cmox_md_append+0x92>
 8004a30:	2000      	movs	r0, #0
 8004a32:	1a2a      	subs	r2, r5, r0
 8004a34:	1831      	adds	r1, r6, r0
 8004a36:	18f8      	adds	r0, r7, r3
 8004a38:	f003 fe8e 	bl	8008758 <__aeabi_memcpy>
 8004a3c:	f44f 3000 	mov.w	r0, #131072	@ 0x20000
 8004a40:	e8bd 83f2 	ldmia.w	sp!, {r1, r4, r5, r6, r7, r8, r9, pc}
 8004a44:	00020004 	.word	0x00020004

08004a48 <cmox_md_generateTag>:
 8004a48:	e92d 4ffc 	stmdb	sp!, {r2, r3, r4, r5, r6, r7, r8, r9, sl, fp, lr}
 8004a4c:	4602      	mov	r2, r0
 8004a4e:	b085      	sub	sp, #20
 8004a50:	68d0      	ldr	r0, [r2, #12]
 8004a52:	6913      	ldr	r3, [r2, #16]
 8004a54:	f8df c16c 	ldr.w	ip, [pc, #364]	@ 8004bc4 <cmox_md_generateTag+0x17c>
 8004a58:	f8df 816c 	ldr.w	r8, [pc, #364]	@ 8004bc8 <cmox_md_generateTag+0x180>
 8004a5c:	eba0 0a03 	sub.w	sl, r0, r3
 8004a60:	6850      	ldr	r0, [r2, #4]
 8004a62:	f040 0004 	orr.w	r0, r0, #4
 8004a66:	6050      	str	r0, [r2, #4]
 8004a68:	2700      	movs	r7, #0
 8004a6a:	a803      	add	r0, sp, #12
 8004a6c:	9002      	str	r0, [sp, #8]
 8004a6e:	f10d 0e0c 	add.w	lr, sp, #12
 8004a72:	e9d8 3400 	ldrd	r3, r4, [r8]
 8004a76:	a803      	add	r0, sp, #12
 8004a78:	4d54      	ldr	r5, [pc, #336]	@ (8004bcc <cmox_md_generateTag+0x184>)
 8004a7a:	e9c0 3400 	strd	r3, r4, [r0]
 8004a7e:	7828      	ldrb	r0, [r5, #0]
 8004a80:	4d53      	ldr	r5, [pc, #332]	@ (8004bd0 <cmox_md_generateTag+0x188>)
 8004a82:	2800      	cmp	r0, #0
 8004a84:	bf0c      	ite	eq
 8004a86:	2300      	moveq	r3, #0
 8004a88:	2304      	movne	r3, #4
 8004a8a:	4699      	mov	r9, r3
 8004a8c:	f85c 3003 	ldr.w	r3, [ip, r3]
 8004a90:	f85e 4009 	ldr.w	r4, [lr, r9]
 8004a94:	4423      	add	r3, r4
 8004a96:	2601      	movs	r6, #1
 8004a98:	601d      	str	r5, [r3, #0]
 8004a9a:	681c      	ldr	r4, [r3, #0]
 8004a9c:	609e      	str	r6, [r3, #8]
 8004a9e:	f8dc 3004 	ldr.w	r3, [ip, #4]
 8004aa2:	9d03      	ldr	r5, [sp, #12]
 8004aa4:	f8dc 9000 	ldr.w	r9, [ip]
 8004aa8:	f8de 6004 	ldr.w	r6, [lr, #4]
 8004aac:	405d      	eors	r5, r3
 8004aae:	4065      	eors	r5, r4
 8004ab0:	4c48      	ldr	r4, [pc, #288]	@ (8004bd4 <cmox_md_generateTag+0x18c>)
 8004ab2:	4065      	eors	r5, r4
 8004ab4:	ea89 0606 	eor.w	r6, r9, r6
 8004ab8:	4c47      	ldr	r4, [pc, #284]	@ (8004bd8 <cmox_md_generateTag+0x190>)
 8004aba:	4066      	eors	r6, r4
 8004abc:	1975      	adds	r5, r6, r5
 8004abe:	4c47      	ldr	r4, [pc, #284]	@ (8004bdc <cmox_md_generateTag+0x194>)
 8004ac0:	4065      	eors	r5, r4
 8004ac2:	e9d8 6b00 	ldrd	r6, fp, [r8]
 8004ac6:	ac03      	add	r4, sp, #12
 8004ac8:	2800      	cmp	r0, #0
 8004aca:	e9c4 6b00 	strd	r6, fp, [r4]
 8004ace:	bf0e      	itee	eq
 8004ad0:	2400      	moveq	r4, #0
 8004ad2:	2004      	movne	r0, #4
 8004ad4:	2404      	movne	r4, #4
 8004ad6:	9e02      	ldr	r6, [sp, #8]
 8004ad8:	f85c 0000 	ldr.w	r0, [ip, r0]
 8004adc:	5934      	ldr	r4, [r6, r4]
 8004ade:	1820      	adds	r0, r4, r0
 8004ae0:	4c3f      	ldr	r4, [pc, #252]	@ (8004be0 <cmox_md_generateTag+0x198>)
 8004ae2:	6004      	str	r4, [r0, #0]
 8004ae4:	2601      	movs	r6, #1
 8004ae6:	6804      	ldr	r4, [r0, #0]
 8004ae8:	6086      	str	r6, [r0, #8]
 8004aea:	9803      	ldr	r0, [sp, #12]
 8004aec:	9e02      	ldr	r6, [sp, #8]
 8004aee:	4043      	eors	r3, r0
 8004af0:	4063      	eors	r3, r4
 8004af2:	4c38      	ldr	r4, [pc, #224]	@ (8004bd4 <cmox_md_generateTag+0x18c>)
 8004af4:	6870      	ldr	r0, [r6, #4]
 8004af6:	4063      	eors	r3, r4
 8004af8:	ea89 0000 	eor.w	r0, r9, r0
 8004afc:	4c36      	ldr	r4, [pc, #216]	@ (8004bd8 <cmox_md_generateTag+0x190>)
 8004afe:	4060      	eors	r0, r4
 8004b00:	4403      	add	r3, r0
 8004b02:	4838      	ldr	r0, [pc, #224]	@ (8004be4 <cmox_md_generateTag+0x19c>)
 8004b04:	4043      	eors	r3, r0
 8004b06:	0028      	movs	r0, r5
 8004b08:	bf18      	it	ne
 8004b0a:	2001      	movne	r0, #1
 8004b0c:	1e5b      	subs	r3, r3, #1
 8004b0e:	419b      	sbcs	r3, r3
 8004b10:	2f04      	cmp	r7, #4
 8004b12:	bf2c      	ite	cs
 8004b14:	b2c0      	uxtbcs	r0, r0
 8004b16:	0fd8      	lsrcc	r0, r3, #31
 8004b18:	f102 0314 	add.w	r3, r2, #20
 8004b1c:	f853 0020 	ldr.w	r0, [r3, r0, lsl #2]
 8004b20:	f007 0303 	and.w	r3, r7, #3
 8004b24:	f1c3 0303 	rsb	r3, r3, #3
 8004b28:	00db      	lsls	r3, r3, #3
 8004b2a:	40d8      	lsrs	r0, r3
 8004b2c:	f80d 0007 	strb.w	r0, [sp, r7]
 8004b30:	1c7f      	adds	r7, r7, #1
 8004b32:	2f08      	cmp	r7, #8
 8004b34:	d39d      	bcc.n	8004a72 <cmox_md_generateTag+0x2a>
 8004b36:	4615      	mov	r5, r2
 8004b38:	460c      	mov	r4, r1
 8004b3a:	696a      	ldr	r2, [r5, #20]
 8004b3c:	69ab      	ldr	r3, [r5, #24]
 8004b3e:	68e8      	ldr	r0, [r5, #12]
 8004b40:	08d2      	lsrs	r2, r2, #3
 8004b42:	ea42 7243 	orr.w	r2, r2, r3, lsl #29
 8004b46:	1e40      	subs	r0, r0, #1
 8004b48:	ea00 0702 	and.w	r7, r0, r2
 8004b4c:	2300      	movs	r3, #0
 8004b4e:	4002      	ands	r2, r0
 8004b50:	429b      	cmp	r3, r3
 8004b52:	d80a      	bhi.n	8004b6a <cmox_md_generateTag+0x122>
 8004b54:	4552      	cmp	r2, sl
 8004b56:	d208      	bcs.n	8004b6a <cmox_md_generateTag+0x122>
 8004b58:	2080      	movs	r0, #128	@ 0x80
 8004b5a:	55e0      	strb	r0, [r4, r7]
 8004b5c:	1c7f      	adds	r7, r7, #1
 8004b5e:	4557      	cmp	r7, sl
 8004b60:	d216      	bcs.n	8004b90 <cmox_md_generateTag+0x148>
 8004b62:	ebaa 0107 	sub.w	r1, sl, r7
 8004b66:	19e0      	adds	r0, r4, r7
 8004b68:	e010      	b.n	8004b8c <cmox_md_generateTag+0x144>
 8004b6a:	2080      	movs	r0, #128	@ 0x80
 8004b6c:	55e0      	strb	r0, [r4, r7]
 8004b6e:	e000      	b.n	8004b72 <cmox_md_generateTag+0x12a>
 8004b70:	55e3      	strb	r3, [r4, r7]
 8004b72:	68e8      	ldr	r0, [r5, #12]
 8004b74:	1c7f      	adds	r7, r7, #1
 8004b76:	4287      	cmp	r7, r0
 8004b78:	d3fa      	bcc.n	8004b70 <cmox_md_generateTag+0x128>
 8004b7a:	682a      	ldr	r2, [r5, #0]
 8004b7c:	6813      	ldr	r3, [r2, #0]
 8004b7e:	4628      	mov	r0, r5
 8004b80:	4798      	blx	r3
 8004b82:	f1ba 0f00 	cmp.w	sl, #0
 8004b86:	d003      	beq.n	8004b90 <cmox_md_generateTag+0x148>
 8004b88:	4651      	mov	r1, sl
 8004b8a:	4620      	mov	r0, r4
 8004b8c:	f003 fde6 	bl	800875c <__aeabi_memclr>
 8004b90:	682a      	ldr	r2, [r5, #0]
 8004b92:	9e06      	ldr	r6, [sp, #24]
 8004b94:	9f05      	ldr	r7, [sp, #20]
 8004b96:	6893      	ldr	r3, [r2, #8]
 8004b98:	4669      	mov	r1, sp
 8004b9a:	4628      	mov	r0, r5
 8004b9c:	4798      	blx	r3
 8004b9e:	682a      	ldr	r2, [r5, #0]
 8004ba0:	f8d2 9000 	ldr.w	r9, [r2]
 8004ba4:	4621      	mov	r1, r4
 8004ba6:	4628      	mov	r0, r5
 8004ba8:	47c8      	blx	r9
 8004baa:	682b      	ldr	r3, [r5, #0]
 8004bac:	68da      	ldr	r2, [r3, #12]
 8004bae:	4639      	mov	r1, r7
 8004bb0:	4628      	mov	r0, r5
 8004bb2:	4790      	blx	r2
 8004bb4:	b10e      	cbz	r6, 8004bba <cmox_md_generateTag+0x172>
 8004bb6:	68a8      	ldr	r0, [r5, #8]
 8004bb8:	6030      	str	r0, [r6, #0]
 8004bba:	f44f 3000 	mov.w	r0, #131072	@ 0x20000
 8004bbe:	b007      	add	sp, #28
 8004bc0:	e8bd 8ff0 	ldmia.w	sp!, {r4, r5, r6, r7, r8, r9, sl, fp, pc}
 8004bc4:	080094a4 	.word	0x080094a4
 8004bc8:	08004be8 	.word	0x08004be8
 8004bcc:	200000bc 	.word	0x200000bc
 8004bd0:	9310c55f 	.word	0x9310c55f
 8004bd4:	12008504 	.word	0x12008504
 8004bd8:	7a0168fc 	.word	0x7a0168fc
 8004bdc:	ff24f5c0 	.word	0xff24f5c0
 8004be0:	d433af24 	.word	0xd433af24
 8004be4:	8b69af26 	.word	0x8b69af26
 8004be8:	0101b004 	.word	0x0101b004
 8004bec:	45011700 	.word	0x45011700

08004bf0 <strlen>:
 8004bf0:	4603      	mov	r3, r0
 8004bf2:	f813 2b01 	ldrb.w	r2, [r3], #1
 8004bf6:	2a00      	cmp	r2, #0
 8004bf8:	d1fb      	bne.n	8004bf2 <strlen+0x2>
 8004bfa:	1a18      	subs	r0, r3, r0
 8004bfc:	3801      	subs	r0, #1
 8004bfe:	4770      	bx	lr

08004c00 <memchr>:
 8004c00:	f001 01ff 	and.w	r1, r1, #255	@ 0xff
 8004c04:	2a10      	cmp	r2, #16
 8004c06:	db2b      	blt.n	8004c60 <memchr+0x60>
 8004c08:	f010 0f07 	tst.w	r0, #7
 8004c0c:	d008      	beq.n	8004c20 <memchr+0x20>
 8004c0e:	f810 3b01 	ldrb.w	r3, [r0], #1
 8004c12:	3a01      	subs	r2, #1
 8004c14:	428b      	cmp	r3, r1
 8004c16:	d02d      	beq.n	8004c74 <memchr+0x74>
 8004c18:	f010 0f07 	tst.w	r0, #7
 8004c1c:	b342      	cbz	r2, 8004c70 <memchr+0x70>
 8004c1e:	d1f6      	bne.n	8004c0e <memchr+0xe>
 8004c20:	b4f0      	push	{r4, r5, r6, r7}
 8004c22:	ea41 2101 	orr.w	r1, r1, r1, lsl #8
 8004c26:	ea41 4101 	orr.w	r1, r1, r1, lsl #16
 8004c2a:	f022 0407 	bic.w	r4, r2, #7
 8004c2e:	f07f 0700 	mvns.w	r7, #0
 8004c32:	2300      	movs	r3, #0
 8004c34:	e8f0 5602 	ldrd	r5, r6, [r0], #8
 8004c38:	3c08      	subs	r4, #8
 8004c3a:	ea85 0501 	eor.w	r5, r5, r1
 8004c3e:	ea86 0601 	eor.w	r6, r6, r1
 8004c42:	fa85 f547 	uadd8	r5, r5, r7
 8004c46:	faa3 f587 	sel	r5, r3, r7
 8004c4a:	fa86 f647 	uadd8	r6, r6, r7
 8004c4e:	faa5 f687 	sel	r6, r5, r7
 8004c52:	b98e      	cbnz	r6, 8004c78 <memchr+0x78>
 8004c54:	d1ee      	bne.n	8004c34 <memchr+0x34>
 8004c56:	bcf0      	pop	{r4, r5, r6, r7}
 8004c58:	f001 01ff 	and.w	r1, r1, #255	@ 0xff
 8004c5c:	f002 0207 	and.w	r2, r2, #7
 8004c60:	b132      	cbz	r2, 8004c70 <memchr+0x70>
 8004c62:	f810 3b01 	ldrb.w	r3, [r0], #1
 8004c66:	3a01      	subs	r2, #1
 8004c68:	ea83 0301 	eor.w	r3, r3, r1
 8004c6c:	b113      	cbz	r3, 8004c74 <memchr+0x74>
 8004c6e:	d1f8      	bne.n	8004c62 <memchr+0x62>
 8004c70:	2000      	movs	r0, #0
 8004c72:	4770      	bx	lr
 8004c74:	3801      	subs	r0, #1
 8004c76:	4770      	bx	lr
 8004c78:	2d00      	cmp	r5, #0
 8004c7a:	bf06      	itte	eq
 8004c7c:	4635      	moveq	r5, r6
 8004c7e:	3803      	subeq	r0, #3
 8004c80:	3807      	subne	r0, #7
 8004c82:	f015 0f01 	tst.w	r5, #1
 8004c86:	d107      	bne.n	8004c98 <memchr+0x98>
 8004c88:	3001      	adds	r0, #1
 8004c8a:	f415 7f80 	tst.w	r5, #256	@ 0x100
 8004c8e:	bf02      	ittt	eq
 8004c90:	3001      	addeq	r0, #1
 8004c92:	f415 3fc0 	tsteq.w	r5, #98304	@ 0x18000
 8004c96:	3001      	addeq	r0, #1
 8004c98:	bcf0      	pop	{r4, r5, r6, r7}
 8004c9a:	3801      	subs	r0, #1
 8004c9c:	4770      	bx	lr
 8004c9e:	bf00      	nop

08004ca0 <cmox_ll_init>:
  * @brief          CMOX library low level initialization
  * @param          pArg User defined parameter that is transmitted from initialize service
  * @retval         Initialization status: @ref CMOX_INIT_SUCCESS / @ref CMOX_INIT_FAIL
  */
cmox_init_retval_t cmox_ll_init(void *pArg)
{
 8004ca0:	b480      	push	{r7}
 8004ca2:	b085      	sub	sp, #20
 8004ca4:	af00      	add	r7, sp, #0
 8004ca6:	6078      	str	r0, [r7, #4]
  (void)pArg;
  /* Ensure CRC is enabled for cryptographic processing */
//  __HAL_RCC_CRC_RELEASE_RESET();
  __HAL_RCC_CRC_CLK_ENABLE();
 8004ca8:	4b08      	ldr	r3, [pc, #32]	@ (8004ccc <cmox_ll_init+0x2c>)
 8004caa:	695b      	ldr	r3, [r3, #20]
 8004cac:	4a07      	ldr	r2, [pc, #28]	@ (8004ccc <cmox_ll_init+0x2c>)
 8004cae:	f043 0340 	orr.w	r3, r3, #64	@ 0x40
 8004cb2:	6153      	str	r3, [r2, #20]
 8004cb4:	4b05      	ldr	r3, [pc, #20]	@ (8004ccc <cmox_ll_init+0x2c>)
 8004cb6:	695b      	ldr	r3, [r3, #20]
 8004cb8:	f003 0340 	and.w	r3, r3, #64	@ 0x40
 8004cbc:	60fb      	str	r3, [r7, #12]
 8004cbe:	68fb      	ldr	r3, [r7, #12]
  return CMOX_INIT_SUCCESS;
 8004cc0:	2300      	movs	r3, #0
}
 8004cc2:	4618      	mov	r0, r3
 8004cc4:	3714      	adds	r7, #20
 8004cc6:	46bd      	mov	sp, r7
 8004cc8:	bc80      	pop	{r7}
 8004cca:	4770      	bx	lr
 8004ccc:	40021000 	.word	0x40021000

08004cd0 <main>:
/**
  * @brief  The application entry point.
  * @retval int
  */
int main(void)
{
 8004cd0:	b580      	push	{r7, lr}
 8004cd2:	af00      	add	r7, sp, #0
  /* USER CODE END 1 */

  /* MCU Configuration--------------------------------------------------------*/

  /* Reset of all peripherals, Initializes the Flash interface and the Systick. */
  HAL_Init();
 8004cd4:	f000 fd46 	bl	8005764 <HAL_Init>
  /* USER CODE BEGIN Init */

  /* USER CODE END Init */

  /* Configure the system clock */
  SystemClock_Config();
 8004cd8:	f000 f832 	bl	8004d40 <SystemClock_Config>
  /* USER CODE BEGIN SysInit */

  /* USER CODE END SysInit */

  /* Initialize all configured peripherals */
  MX_GPIO_Init();
 8004cdc:	f000 f912 	bl	8004f04 <MX_GPIO_Init>
  MX_USART2_UART_Init();
 8004ce0:	f000 f8b0 	bl	8004e44 <MX_USART2_UART_Init>
  MX_CRC_Init();
 8004ce4:	f000 f88c 	bl	8004e00 <MX_CRC_Init>
  MX_USART3_UART_Init();
 8004ce8:	f000 f8dc 	bl	8004ea4 <MX_USART3_UART_Init>
  /* USER CODE BEGIN 2 */

  if (cmox_initialize(NULL) != CMOX_INIT_SUCCESS)
 8004cec:	2000      	movs	r0, #0
 8004cee:	f7fd fb19 	bl	8002324 <cmox_initialize>
 8004cf2:	4603      	mov	r3, r0
 8004cf4:	2b00      	cmp	r3, #0
 8004cf6:	d004      	beq.n	8004d02 <main+0x32>
    {
        printmsg("Crypto Init Failed! System Halted.\r\n");
 8004cf8:	480e      	ldr	r0, [pc, #56]	@ (8004d34 <main+0x64>)
 8004cfa:	f000 f969 	bl	8004fd0 <printmsg>
        Error_Handler();
 8004cfe:	f000 f9f9 	bl	80050f4 <Error_Handler>
    }

  init_ecc_system();
 8004d02:	f000 fb8b 	bl	800541c <init_ecc_system>

  /* USER CODE END 2 */

  if(HAL_GPIO_ReadPin(B1_GPIO_Port, B1_Pin) == GPIO_PIN_RESET)
 8004d06:	f44f 5100 	mov.w	r1, #8192	@ 0x2000
 8004d0a:	480b      	ldr	r0, [pc, #44]	@ (8004d38 <main+0x68>)
 8004d0c:	f001 fac4 	bl	8006298 <HAL_GPIO_ReadPin>
 8004d10:	4603      	mov	r3, r0
 8004d12:	2b00      	cmp	r3, #0
 8004d14:	d105      	bne.n	8004d22 <main+0x52>
  {
	  printmsg("BL_DEBUG_MSG : Button is pressed, stay in Bootloader Mode\n\r");
 8004d16:	4809      	ldr	r0, [pc, #36]	@ (8004d3c <main+0x6c>)
 8004d18:	f000 f95a 	bl	8004fd0 <printmsg>
	  bootloader_uart_read_data();
 8004d1c:	f000 f97e 	bl	800501c <bootloader_uart_read_data>
 8004d20:	e004      	b.n	8004d2c <main+0x5c>
  }
  else
  {
	  printmsg("BL_DEBUG_MSG : Button is pressed, stay in Bootloader Mode\n\r");
 8004d22:	4806      	ldr	r0, [pc, #24]	@ (8004d3c <main+0x6c>)
 8004d24:	f000 f954 	bl	8004fd0 <printmsg>
	  bootloader_jump_to_user_app();
 8004d28:	f000 f9c2 	bl	80050b0 <bootloader_jump_to_user_app>
 8004d2c:	2300      	movs	r3, #0
  }
}
 8004d2e:	4618      	mov	r0, r3
 8004d30:	bd80      	pop	{r7, pc}
 8004d32:	bf00      	nop
 8004d34:	0800901c 	.word	0x0800901c
 8004d38:	48000800 	.word	0x48000800
 8004d3c:	08009044 	.word	0x08009044

08004d40 <SystemClock_Config>:
/**
  * @brief System Clock Configuration
  * @retval None
  */
void SystemClock_Config(void)
{
 8004d40:	b580      	push	{r7, lr}
 8004d42:	b0a6      	sub	sp, #152	@ 0x98
 8004d44:	af00      	add	r7, sp, #0
  RCC_OscInitTypeDef RCC_OscInitStruct = {0};
 8004d46:	f107 0370 	add.w	r3, r7, #112	@ 0x70
 8004d4a:	2228      	movs	r2, #40	@ 0x28
 8004d4c:	2100      	movs	r1, #0
 8004d4e:	4618      	mov	r0, r3
 8004d50:	f003 fcce 	bl	80086f0 <memset>
  RCC_ClkInitTypeDef RCC_ClkInitStruct = {0};
 8004d54:	f107 035c 	add.w	r3, r7, #92	@ 0x5c
 8004d58:	2200      	movs	r2, #0
 8004d5a:	601a      	str	r2, [r3, #0]
 8004d5c:	605a      	str	r2, [r3, #4]
 8004d5e:	609a      	str	r2, [r3, #8]
 8004d60:	60da      	str	r2, [r3, #12]
 8004d62:	611a      	str	r2, [r3, #16]
  RCC_PeriphCLKInitTypeDef PeriphClkInit = {0};
 8004d64:	1d3b      	adds	r3, r7, #4
 8004d66:	2258      	movs	r2, #88	@ 0x58
 8004d68:	2100      	movs	r1, #0
 8004d6a:	4618      	mov	r0, r3
 8004d6c:	f003 fcc0 	bl	80086f0 <memset>

  /** Initializes the RCC Oscillators according to the specified parameters
  * in the RCC_OscInitTypeDef structure.
  */
  RCC_OscInitStruct.OscillatorType = RCC_OSCILLATORTYPE_HSI;
 8004d70:	2302      	movs	r3, #2
 8004d72:	673b      	str	r3, [r7, #112]	@ 0x70
  RCC_OscInitStruct.HSIState = RCC_HSI_ON;
 8004d74:	2301      	movs	r3, #1
 8004d76:	67fb      	str	r3, [r7, #124]	@ 0x7c
  RCC_OscInitStruct.HSICalibrationValue = RCC_HSICALIBRATION_DEFAULT;
 8004d78:	2310      	movs	r3, #16
 8004d7a:	f8c7 3080 	str.w	r3, [r7, #128]	@ 0x80
  RCC_OscInitStruct.PLL.PLLState = RCC_PLL_ON;
 8004d7e:	2302      	movs	r3, #2
 8004d80:	f8c7 3088 	str.w	r3, [r7, #136]	@ 0x88
  RCC_OscInitStruct.PLL.PLLSource = RCC_PLLSOURCE_HSI;
 8004d84:	f44f 4300 	mov.w	r3, #32768	@ 0x8000
 8004d88:	f8c7 308c 	str.w	r3, [r7, #140]	@ 0x8c
  RCC_OscInitStruct.PLL.PLLMUL = RCC_PLL_MUL9;
 8004d8c:	f44f 13e0 	mov.w	r3, #1835008	@ 0x1c0000
 8004d90:	f8c7 3090 	str.w	r3, [r7, #144]	@ 0x90
  RCC_OscInitStruct.PLL.PREDIV = RCC_PREDIV_DIV1;
 8004d94:	2300      	movs	r3, #0
 8004d96:	f8c7 3094 	str.w	r3, [r7, #148]	@ 0x94
  if (HAL_RCC_OscConfig(&RCC_OscInitStruct) != HAL_OK)
 8004d9a:	f107 0370 	add.w	r3, r7, #112	@ 0x70
 8004d9e:	4618      	mov	r0, r3
 8004da0:	f001 faa8 	bl	80062f4 <HAL_RCC_OscConfig>
 8004da4:	4603      	mov	r3, r0
 8004da6:	2b00      	cmp	r3, #0
 8004da8:	d001      	beq.n	8004dae <SystemClock_Config+0x6e>
  {
    Error_Handler();
 8004daa:	f000 f9a3 	bl	80050f4 <Error_Handler>
  }

  /** Initializes the CPU, AHB and APB buses clocks
  */
  RCC_ClkInitStruct.ClockType = RCC_CLOCKTYPE_HCLK|RCC_CLOCKTYPE_SYSCLK
 8004dae:	230f      	movs	r3, #15
 8004db0:	65fb      	str	r3, [r7, #92]	@ 0x5c
                              |RCC_CLOCKTYPE_PCLK1|RCC_CLOCKTYPE_PCLK2;
  RCC_ClkInitStruct.SYSCLKSource = RCC_SYSCLKSOURCE_PLLCLK;
 8004db2:	2302      	movs	r3, #2
 8004db4:	663b      	str	r3, [r7, #96]	@ 0x60
  RCC_ClkInitStruct.AHBCLKDivider = RCC_SYSCLK_DIV1;
 8004db6:	2300      	movs	r3, #0
 8004db8:	667b      	str	r3, [r7, #100]	@ 0x64
  RCC_ClkInitStruct.APB1CLKDivider = RCC_HCLK_DIV2;
 8004dba:	f44f 6380 	mov.w	r3, #1024	@ 0x400
 8004dbe:	66bb      	str	r3, [r7, #104]	@ 0x68
  RCC_ClkInitStruct.APB2CLKDivider = RCC_HCLK_DIV1;
 8004dc0:	2300      	movs	r3, #0
 8004dc2:	66fb      	str	r3, [r7, #108]	@ 0x6c

  if (HAL_RCC_ClockConfig(&RCC_ClkInitStruct, FLASH_LATENCY_2) != HAL_OK)
 8004dc4:	f107 035c 	add.w	r3, r7, #92	@ 0x5c
 8004dc8:	2102      	movs	r1, #2
 8004dca:	4618      	mov	r0, r3
 8004dcc:	f002 fab6 	bl	800733c <HAL_RCC_ClockConfig>
 8004dd0:	4603      	mov	r3, r0
 8004dd2:	2b00      	cmp	r3, #0
 8004dd4:	d001      	beq.n	8004dda <SystemClock_Config+0x9a>
  {
    Error_Handler();
 8004dd6:	f000 f98d 	bl	80050f4 <Error_Handler>
  }
  PeriphClkInit.PeriphClockSelection = RCC_PERIPHCLK_USART2|RCC_PERIPHCLK_USART3;
 8004dda:	2306      	movs	r3, #6
 8004ddc:	607b      	str	r3, [r7, #4]
  PeriphClkInit.Usart2ClockSelection = RCC_USART2CLKSOURCE_PCLK1;
 8004dde:	2300      	movs	r3, #0
 8004de0:	613b      	str	r3, [r7, #16]
  PeriphClkInit.Usart3ClockSelection = RCC_USART3CLKSOURCE_PCLK1;
 8004de2:	2300      	movs	r3, #0
 8004de4:	617b      	str	r3, [r7, #20]
  if (HAL_RCCEx_PeriphCLKConfig(&PeriphClkInit) != HAL_OK)
 8004de6:	1d3b      	adds	r3, r7, #4
 8004de8:	4618      	mov	r0, r3
 8004dea:	f002 fcb7 	bl	800775c <HAL_RCCEx_PeriphCLKConfig>
 8004dee:	4603      	mov	r3, r0
 8004df0:	2b00      	cmp	r3, #0
 8004df2:	d001      	beq.n	8004df8 <SystemClock_Config+0xb8>
  {
    Error_Handler();
 8004df4:	f000 f97e 	bl	80050f4 <Error_Handler>
  }
}
 8004df8:	bf00      	nop
 8004dfa:	3798      	adds	r7, #152	@ 0x98
 8004dfc:	46bd      	mov	sp, r7
 8004dfe:	bd80      	pop	{r7, pc}

08004e00 <MX_CRC_Init>:
  * @brief CRC Initialization Function
  * @param None
  * @retval None
  */
static void MX_CRC_Init(void)
{
 8004e00:	b580      	push	{r7, lr}
 8004e02:	af00      	add	r7, sp, #0
  /* USER CODE END CRC_Init 0 */

  /* USER CODE BEGIN CRC_Init 1 */

  /* USER CODE END CRC_Init 1 */
  hcrc.Instance = CRC;
 8004e04:	4b0d      	ldr	r3, [pc, #52]	@ (8004e3c <MX_CRC_Init+0x3c>)
 8004e06:	4a0e      	ldr	r2, [pc, #56]	@ (8004e40 <MX_CRC_Init+0x40>)
 8004e08:	601a      	str	r2, [r3, #0]
  hcrc.Init.DefaultPolynomialUse = DEFAULT_POLYNOMIAL_ENABLE;
 8004e0a:	4b0c      	ldr	r3, [pc, #48]	@ (8004e3c <MX_CRC_Init+0x3c>)
 8004e0c:	2200      	movs	r2, #0
 8004e0e:	711a      	strb	r2, [r3, #4]
  hcrc.Init.DefaultInitValueUse = DEFAULT_INIT_VALUE_ENABLE;
 8004e10:	4b0a      	ldr	r3, [pc, #40]	@ (8004e3c <MX_CRC_Init+0x3c>)
 8004e12:	2200      	movs	r2, #0
 8004e14:	715a      	strb	r2, [r3, #5]
  hcrc.Init.InputDataInversionMode = CRC_INPUTDATA_INVERSION_NONE;
 8004e16:	4b09      	ldr	r3, [pc, #36]	@ (8004e3c <MX_CRC_Init+0x3c>)
 8004e18:	2200      	movs	r2, #0
 8004e1a:	615a      	str	r2, [r3, #20]
  hcrc.Init.OutputDataInversionMode = CRC_OUTPUTDATA_INVERSION_DISABLE;
 8004e1c:	4b07      	ldr	r3, [pc, #28]	@ (8004e3c <MX_CRC_Init+0x3c>)
 8004e1e:	2200      	movs	r2, #0
 8004e20:	619a      	str	r2, [r3, #24]
  hcrc.InputDataFormat = CRC_INPUTDATA_FORMAT_BYTES;
 8004e22:	4b06      	ldr	r3, [pc, #24]	@ (8004e3c <MX_CRC_Init+0x3c>)
 8004e24:	2201      	movs	r2, #1
 8004e26:	621a      	str	r2, [r3, #32]
  if (HAL_CRC_Init(&hcrc) != HAL_OK)
 8004e28:	4804      	ldr	r0, [pc, #16]	@ (8004e3c <MX_CRC_Init+0x3c>)
 8004e2a:	f000 fde1 	bl	80059f0 <HAL_CRC_Init>
 8004e2e:	4603      	mov	r3, r0
 8004e30:	2b00      	cmp	r3, #0
 8004e32:	d001      	beq.n	8004e38 <MX_CRC_Init+0x38>
  {
    Error_Handler();
 8004e34:	f000 f95e 	bl	80050f4 <Error_Handler>
  }
  /* USER CODE BEGIN CRC_Init 2 */

  /* USER CODE END CRC_Init 2 */

}
 8004e38:	bf00      	nop
 8004e3a:	bd80      	pop	{r7, pc}
 8004e3c:	200000c0 	.word	0x200000c0
 8004e40:	40023000 	.word	0x40023000

08004e44 <MX_USART2_UART_Init>:
  * @brief USART2 Initialization Function
  * @param None
  * @retval None
  */
static void MX_USART2_UART_Init(void)
{
 8004e44:	b580      	push	{r7, lr}
 8004e46:	af00      	add	r7, sp, #0
  /* USER CODE END USART2_Init 0 */

  /* USER CODE BEGIN USART2_Init 1 */

  /* USER CODE END USART2_Init 1 */
  huart2.Instance = USART2;
 8004e48:	4b14      	ldr	r3, [pc, #80]	@ (8004e9c <MX_USART2_UART_Init+0x58>)
 8004e4a:	4a15      	ldr	r2, [pc, #84]	@ (8004ea0 <MX_USART2_UART_Init+0x5c>)
 8004e4c:	601a      	str	r2, [r3, #0]
  huart2.Init.BaudRate = 115200;
 8004e4e:	4b13      	ldr	r3, [pc, #76]	@ (8004e9c <MX_USART2_UART_Init+0x58>)
 8004e50:	f44f 32e1 	mov.w	r2, #115200	@ 0x1c200
 8004e54:	605a      	str	r2, [r3, #4]
  huart2.Init.WordLength = UART_WORDLENGTH_8B;
 8004e56:	4b11      	ldr	r3, [pc, #68]	@ (8004e9c <MX_USART2_UART_Init+0x58>)
 8004e58:	2200      	movs	r2, #0
 8004e5a:	609a      	str	r2, [r3, #8]
  huart2.Init.StopBits = UART_STOPBITS_1;
 8004e5c:	4b0f      	ldr	r3, [pc, #60]	@ (8004e9c <MX_USART2_UART_Init+0x58>)
 8004e5e:	2200      	movs	r2, #0
 8004e60:	60da      	str	r2, [r3, #12]
  huart2.Init.Parity = UART_PARITY_NONE;
 8004e62:	4b0e      	ldr	r3, [pc, #56]	@ (8004e9c <MX_USART2_UART_Init+0x58>)
 8004e64:	2200      	movs	r2, #0
 8004e66:	611a      	str	r2, [r3, #16]
  huart2.Init.Mode = UART_MODE_TX_RX;
 8004e68:	4b0c      	ldr	r3, [pc, #48]	@ (8004e9c <MX_USART2_UART_Init+0x58>)
 8004e6a:	220c      	movs	r2, #12
 8004e6c:	615a      	str	r2, [r3, #20]
  huart2.Init.HwFlowCtl = UART_HWCONTROL_NONE;
 8004e6e:	4b0b      	ldr	r3, [pc, #44]	@ (8004e9c <MX_USART2_UART_Init+0x58>)
 8004e70:	2200      	movs	r2, #0
 8004e72:	619a      	str	r2, [r3, #24]
  huart2.Init.OverSampling = UART_OVERSAMPLING_16;
 8004e74:	4b09      	ldr	r3, [pc, #36]	@ (8004e9c <MX_USART2_UART_Init+0x58>)
 8004e76:	2200      	movs	r2, #0
 8004e78:	61da      	str	r2, [r3, #28]
  huart2.Init.OneBitSampling = UART_ONE_BIT_SAMPLE_DISABLE;
 8004e7a:	4b08      	ldr	r3, [pc, #32]	@ (8004e9c <MX_USART2_UART_Init+0x58>)
 8004e7c:	2200      	movs	r2, #0
 8004e7e:	621a      	str	r2, [r3, #32]
  huart2.AdvancedInit.AdvFeatureInit = UART_ADVFEATURE_NO_INIT;
 8004e80:	4b06      	ldr	r3, [pc, #24]	@ (8004e9c <MX_USART2_UART_Init+0x58>)
 8004e82:	2200      	movs	r2, #0
 8004e84:	625a      	str	r2, [r3, #36]	@ 0x24
  if (HAL_UART_Init(&huart2) != HAL_OK)
 8004e86:	4805      	ldr	r0, [pc, #20]	@ (8004e9c <MX_USART2_UART_Init+0x58>)
 8004e88:	f002 fe84 	bl	8007b94 <HAL_UART_Init>
 8004e8c:	4603      	mov	r3, r0
 8004e8e:	2b00      	cmp	r3, #0
 8004e90:	d001      	beq.n	8004e96 <MX_USART2_UART_Init+0x52>
  {
    Error_Handler();
 8004e92:	f000 f92f 	bl	80050f4 <Error_Handler>
  }
  /* USER CODE BEGIN USART2_Init 2 */

  /* USER CODE END USART2_Init 2 */

}
 8004e96:	bf00      	nop
 8004e98:	bd80      	pop	{r7, pc}
 8004e9a:	bf00      	nop
 8004e9c:	200000e4 	.word	0x200000e4
 8004ea0:	40004400 	.word	0x40004400

08004ea4 <MX_USART3_UART_Init>:
  * @brief USART3 Initialization Function
  * @param None
  * @retval None
  */
static void MX_USART3_UART_Init(void)
{
 8004ea4:	b580      	push	{r7, lr}
 8004ea6:	af00      	add	r7, sp, #0
  /* USER CODE END USART3_Init 0 */

  /* USER CODE BEGIN USART3_Init 1 */

  /* USER CODE END USART3_Init 1 */
  huart3.Instance = USART3;
 8004ea8:	4b14      	ldr	r3, [pc, #80]	@ (8004efc <MX_USART3_UART_Init+0x58>)
 8004eaa:	4a15      	ldr	r2, [pc, #84]	@ (8004f00 <MX_USART3_UART_Init+0x5c>)
 8004eac:	601a      	str	r2, [r3, #0]
  huart3.Init.BaudRate = 38400;
 8004eae:	4b13      	ldr	r3, [pc, #76]	@ (8004efc <MX_USART3_UART_Init+0x58>)
 8004eb0:	f44f 4216 	mov.w	r2, #38400	@ 0x9600
 8004eb4:	605a      	str	r2, [r3, #4]
  huart3.Init.WordLength = UART_WORDLENGTH_8B;
 8004eb6:	4b11      	ldr	r3, [pc, #68]	@ (8004efc <MX_USART3_UART_Init+0x58>)
 8004eb8:	2200      	movs	r2, #0
 8004eba:	609a      	str	r2, [r3, #8]
  huart3.Init.StopBits = UART_STOPBITS_1;
 8004ebc:	4b0f      	ldr	r3, [pc, #60]	@ (8004efc <MX_USART3_UART_Init+0x58>)
 8004ebe:	2200      	movs	r2, #0
 8004ec0:	60da      	str	r2, [r3, #12]
  huart3.Init.Parity = UART_PARITY_NONE;
 8004ec2:	4b0e      	ldr	r3, [pc, #56]	@ (8004efc <MX_USART3_UART_Init+0x58>)
 8004ec4:	2200      	movs	r2, #0
 8004ec6:	611a      	str	r2, [r3, #16]
  huart3.Init.Mode = UART_MODE_TX_RX;
 8004ec8:	4b0c      	ldr	r3, [pc, #48]	@ (8004efc <MX_USART3_UART_Init+0x58>)
 8004eca:	220c      	movs	r2, #12
 8004ecc:	615a      	str	r2, [r3, #20]
  huart3.Init.HwFlowCtl = UART_HWCONTROL_NONE;
 8004ece:	4b0b      	ldr	r3, [pc, #44]	@ (8004efc <MX_USART3_UART_Init+0x58>)
 8004ed0:	2200      	movs	r2, #0
 8004ed2:	619a      	str	r2, [r3, #24]
  huart3.Init.OverSampling = UART_OVERSAMPLING_16;
 8004ed4:	4b09      	ldr	r3, [pc, #36]	@ (8004efc <MX_USART3_UART_Init+0x58>)
 8004ed6:	2200      	movs	r2, #0
 8004ed8:	61da      	str	r2, [r3, #28]
  huart3.Init.OneBitSampling = UART_ONE_BIT_SAMPLE_DISABLE;
 8004eda:	4b08      	ldr	r3, [pc, #32]	@ (8004efc <MX_USART3_UART_Init+0x58>)
 8004edc:	2200      	movs	r2, #0
 8004ede:	621a      	str	r2, [r3, #32]
  huart3.AdvancedInit.AdvFeatureInit = UART_ADVFEATURE_NO_INIT;
 8004ee0:	4b06      	ldr	r3, [pc, #24]	@ (8004efc <MX_USART3_UART_Init+0x58>)
 8004ee2:	2200      	movs	r2, #0
 8004ee4:	625a      	str	r2, [r3, #36]	@ 0x24
  if (HAL_UART_Init(&huart3) != HAL_OK)
 8004ee6:	4805      	ldr	r0, [pc, #20]	@ (8004efc <MX_USART3_UART_Init+0x58>)
 8004ee8:	f002 fe54 	bl	8007b94 <HAL_UART_Init>
 8004eec:	4603      	mov	r3, r0
 8004eee:	2b00      	cmp	r3, #0
 8004ef0:	d001      	beq.n	8004ef6 <MX_USART3_UART_Init+0x52>
  {
    Error_Handler();
 8004ef2:	f000 f8ff 	bl	80050f4 <Error_Handler>
  }
  /* USER CODE BEGIN USART3_Init 2 */

  /* USER CODE END USART3_Init 2 */

}
 8004ef6:	bf00      	nop
 8004ef8:	bd80      	pop	{r7, pc}
 8004efa:	bf00      	nop
 8004efc:	2000016c 	.word	0x2000016c
 8004f00:	40004800 	.word	0x40004800

08004f04 <MX_GPIO_Init>:
  * @brief GPIO Initialization Function
  * @param None
  * @retval None
  */
static void MX_GPIO_Init(void)
{
 8004f04:	b580      	push	{r7, lr}
 8004f06:	b08a      	sub	sp, #40	@ 0x28
 8004f08:	af00      	add	r7, sp, #0
  GPIO_InitTypeDef GPIO_InitStruct = {0};
 8004f0a:	f107 0314 	add.w	r3, r7, #20
 8004f0e:	2200      	movs	r2, #0
 8004f10:	601a      	str	r2, [r3, #0]
 8004f12:	605a      	str	r2, [r3, #4]
 8004f14:	609a      	str	r2, [r3, #8]
 8004f16:	60da      	str	r2, [r3, #12]
 8004f18:	611a      	str	r2, [r3, #16]
  /* USER CODE BEGIN MX_GPIO_Init_1 */

  /* USER CODE END MX_GPIO_Init_1 */

  /* GPIO Ports Clock Enable */
  __HAL_RCC_GPIOC_CLK_ENABLE();
 8004f1a:	4b2b      	ldr	r3, [pc, #172]	@ (8004fc8 <MX_GPIO_Init+0xc4>)
 8004f1c:	695b      	ldr	r3, [r3, #20]
 8004f1e:	4a2a      	ldr	r2, [pc, #168]	@ (8004fc8 <MX_GPIO_Init+0xc4>)
 8004f20:	f443 2300 	orr.w	r3, r3, #524288	@ 0x80000
 8004f24:	6153      	str	r3, [r2, #20]
 8004f26:	4b28      	ldr	r3, [pc, #160]	@ (8004fc8 <MX_GPIO_Init+0xc4>)
 8004f28:	695b      	ldr	r3, [r3, #20]
 8004f2a:	f403 2300 	and.w	r3, r3, #524288	@ 0x80000
 8004f2e:	613b      	str	r3, [r7, #16]
 8004f30:	693b      	ldr	r3, [r7, #16]
  __HAL_RCC_GPIOF_CLK_ENABLE();
 8004f32:	4b25      	ldr	r3, [pc, #148]	@ (8004fc8 <MX_GPIO_Init+0xc4>)
 8004f34:	695b      	ldr	r3, [r3, #20]
 8004f36:	4a24      	ldr	r2, [pc, #144]	@ (8004fc8 <MX_GPIO_Init+0xc4>)
 8004f38:	f443 0380 	orr.w	r3, r3, #4194304	@ 0x400000
 8004f3c:	6153      	str	r3, [r2, #20]
 8004f3e:	4b22      	ldr	r3, [pc, #136]	@ (8004fc8 <MX_GPIO_Init+0xc4>)
 8004f40:	695b      	ldr	r3, [r3, #20]
 8004f42:	f403 0380 	and.w	r3, r3, #4194304	@ 0x400000
 8004f46:	60fb      	str	r3, [r7, #12]
 8004f48:	68fb      	ldr	r3, [r7, #12]
  __HAL_RCC_GPIOA_CLK_ENABLE();
 8004f4a:	4b1f      	ldr	r3, [pc, #124]	@ (8004fc8 <MX_GPIO_Init+0xc4>)
 8004f4c:	695b      	ldr	r3, [r3, #20]
 8004f4e:	4a1e      	ldr	r2, [pc, #120]	@ (8004fc8 <MX_GPIO_Init+0xc4>)
 8004f50:	f443 3300 	orr.w	r3, r3, #131072	@ 0x20000
 8004f54:	6153      	str	r3, [r2, #20]
 8004f56:	4b1c      	ldr	r3, [pc, #112]	@ (8004fc8 <MX_GPIO_Init+0xc4>)
 8004f58:	695b      	ldr	r3, [r3, #20]
 8004f5a:	f403 3300 	and.w	r3, r3, #131072	@ 0x20000
 8004f5e:	60bb      	str	r3, [r7, #8]
 8004f60:	68bb      	ldr	r3, [r7, #8]
  __HAL_RCC_GPIOB_CLK_ENABLE();
 8004f62:	4b19      	ldr	r3, [pc, #100]	@ (8004fc8 <MX_GPIO_Init+0xc4>)
 8004f64:	695b      	ldr	r3, [r3, #20]
 8004f66:	4a18      	ldr	r2, [pc, #96]	@ (8004fc8 <MX_GPIO_Init+0xc4>)
 8004f68:	f443 2380 	orr.w	r3, r3, #262144	@ 0x40000
 8004f6c:	6153      	str	r3, [r2, #20]
 8004f6e:	4b16      	ldr	r3, [pc, #88]	@ (8004fc8 <MX_GPIO_Init+0xc4>)
 8004f70:	695b      	ldr	r3, [r3, #20]
 8004f72:	f403 2380 	and.w	r3, r3, #262144	@ 0x40000
 8004f76:	607b      	str	r3, [r7, #4]
 8004f78:	687b      	ldr	r3, [r7, #4]

  /*Configure GPIO pin Output Level */
  HAL_GPIO_WritePin(LD2_GPIO_Port, LD2_Pin, GPIO_PIN_RESET);
 8004f7a:	2200      	movs	r2, #0
 8004f7c:	2120      	movs	r1, #32
 8004f7e:	f04f 4090 	mov.w	r0, #1207959552	@ 0x48000000
 8004f82:	f001 f9a0 	bl	80062c6 <HAL_GPIO_WritePin>

  /*Configure GPIO pin : B1_Pin */
  GPIO_InitStruct.Pin = B1_Pin;
 8004f86:	f44f 5300 	mov.w	r3, #8192	@ 0x2000
 8004f8a:	617b      	str	r3, [r7, #20]
  GPIO_InitStruct.Mode = GPIO_MODE_IT_FALLING;
 8004f8c:	f44f 1304 	mov.w	r3, #2162688	@ 0x210000
 8004f90:	61bb      	str	r3, [r7, #24]
  GPIO_InitStruct.Pull = GPIO_NOPULL;
 8004f92:	2300      	movs	r3, #0
 8004f94:	61fb      	str	r3, [r7, #28]
  HAL_GPIO_Init(B1_GPIO_Port, &GPIO_InitStruct);
 8004f96:	f107 0314 	add.w	r3, r7, #20
 8004f9a:	4619      	mov	r1, r3
 8004f9c:	480b      	ldr	r0, [pc, #44]	@ (8004fcc <MX_GPIO_Init+0xc8>)
 8004f9e:	f000 fff1 	bl	8005f84 <HAL_GPIO_Init>

  /*Configure GPIO pin : LD2_Pin */
  GPIO_InitStruct.Pin = LD2_Pin;
 8004fa2:	2320      	movs	r3, #32
 8004fa4:	617b      	str	r3, [r7, #20]
  GPIO_InitStruct.Mode = GPIO_MODE_OUTPUT_PP;
 8004fa6:	2301      	movs	r3, #1
 8004fa8:	61bb      	str	r3, [r7, #24]
  GPIO_InitStruct.Pull = GPIO_NOPULL;
 8004faa:	2300      	movs	r3, #0
 8004fac:	61fb      	str	r3, [r7, #28]
  GPIO_InitStruct.Speed = GPIO_SPEED_FREQ_LOW;
 8004fae:	2300      	movs	r3, #0
 8004fb0:	623b      	str	r3, [r7, #32]
  HAL_GPIO_Init(LD2_GPIO_Port, &GPIO_InitStruct);
 8004fb2:	f107 0314 	add.w	r3, r7, #20
 8004fb6:	4619      	mov	r1, r3
 8004fb8:	f04f 4090 	mov.w	r0, #1207959552	@ 0x48000000
 8004fbc:	f000 ffe2 	bl	8005f84 <HAL_GPIO_Init>

  /* USER CODE BEGIN MX_GPIO_Init_2 */

  /* USER CODE END MX_GPIO_Init_2 */
}
 8004fc0:	bf00      	nop
 8004fc2:	3728      	adds	r7, #40	@ 0x28
 8004fc4:	46bd      	mov	sp, r7
 8004fc6:	bd80      	pop	{r7, pc}
 8004fc8:	40021000 	.word	0x40021000
 8004fcc:	48000800 	.word	0x48000800

08004fd0 <printmsg>:

/* USER CODE BEGIN 4 */

void printmsg(char *format,...)
{
 8004fd0:	b40f      	push	{r0, r1, r2, r3}
 8004fd2:	b580      	push	{r7, lr}
 8004fd4:	b096      	sub	sp, #88	@ 0x58
 8004fd6:	af00      	add	r7, sp, #0
#ifdef BL_DEBUG_MSG_EN
	char str[80];

	/* Extract the argument list using VA apis */
	va_list args;
	va_start(args, format);
 8004fd8:	f107 0364 	add.w	r3, r7, #100	@ 0x64
 8004fdc:	607b      	str	r3, [r7, #4]
	vsprintf(str, format, args);
 8004fde:	f107 0308 	add.w	r3, r7, #8
 8004fe2:	687a      	ldr	r2, [r7, #4]
 8004fe4:	6e39      	ldr	r1, [r7, #96]	@ 0x60
 8004fe6:	4618      	mov	r0, r3
 8004fe8:	f003 fb78 	bl	80086dc <vsiprintf>
	HAL_UART_Transmit(D_UART, (uint8_t*)str, strlen(str), HAL_MAX_DELAY);
 8004fec:	f107 0308 	add.w	r3, r7, #8
 8004ff0:	4618      	mov	r0, r3
 8004ff2:	f7ff fdfd 	bl	8004bf0 <strlen>
 8004ff6:	4603      	mov	r3, r0
 8004ff8:	b29a      	uxth	r2, r3
 8004ffa:	f107 0108 	add.w	r1, r7, #8
 8004ffe:	f04f 33ff 	mov.w	r3, #4294967295
 8005002:	4805      	ldr	r0, [pc, #20]	@ (8005018 <printmsg+0x48>)
 8005004:	f002 fe14 	bl	8007c30 <HAL_UART_Transmit>
	va_end(args);
#endif

}
 8005008:	bf00      	nop
 800500a:	3758      	adds	r7, #88	@ 0x58
 800500c:	46bd      	mov	sp, r7
 800500e:	e8bd 4080 	ldmia.w	sp!, {r7, lr}
 8005012:	b004      	add	sp, #16
 8005014:	4770      	bx	lr
 8005016:	bf00      	nop
 8005018:	2000016c 	.word	0x2000016c

0800501c <bootloader_uart_read_data>:

void bootloader_uart_read_data(void)
{
 800501c:	b580      	push	{r7, lr}
 800501e:	af00      	add	r7, sp, #0

	while(1)
	{
		memset(bl_rx_buffer, 0, 10);
 8005020:	220a      	movs	r2, #10
 8005022:	2100      	movs	r1, #0
 8005024:	481e      	ldr	r0, [pc, #120]	@ (80050a0 <bootloader_uart_read_data+0x84>)
 8005026:	f003 fb63 	bl	80086f0 <memset>
		/* Read only one byte from the UART, which will tell about how many bytes are there after*/
		HAL_UART_Receive(C_UART, &bl_rx_buffer[0], 1, HAL_MAX_DELAY);
 800502a:	f04f 33ff 	mov.w	r3, #4294967295
 800502e:	2201      	movs	r2, #1
 8005030:	491b      	ldr	r1, [pc, #108]	@ (80050a0 <bootloader_uart_read_data+0x84>)
 8005032:	481c      	ldr	r0, [pc, #112]	@ (80050a4 <bootloader_uart_read_data+0x88>)
 8005034:	f002 fe85 	bl	8007d42 <HAL_UART_Receive>

		/* Switch to cases based on command*/
		switch ( bl_rx_buffer[0] )
 8005038:	4b19      	ldr	r3, [pc, #100]	@ (80050a0 <bootloader_uart_read_data+0x84>)
 800503a:	781b      	ldrb	r3, [r3, #0]
 800503c:	3b80      	subs	r3, #128	@ 0x80
 800503e:	2b03      	cmp	r3, #3
 8005040:	d828      	bhi.n	8005094 <bootloader_uart_read_data+0x78>
 8005042:	a201      	add	r2, pc, #4	@ (adr r2, 8005048 <bootloader_uart_read_data+0x2c>)
 8005044:	f852 f023 	ldr.w	pc, [r2, r3, lsl #2]
 8005048:	08005059 	.word	0x08005059
 800504c:	08005061 	.word	0x08005061
 8005050:	08005077 	.word	0x08005077
 8005054:	0800508d 	.word	0x0800508d
		{
		      case BL_GET_VER:
		      {
		          bootloader_handle_getver_cmd(bl_rx_buffer);
 8005058:	4811      	ldr	r0, [pc, #68]	@ (80050a0 <bootloader_uart_read_data+0x84>)
 800505a:	f000 f851 	bl	8005100 <bootloader_handle_getver_cmd>
		          break;
 800505e:	e01d      	b.n	800509c <bootloader_uart_read_data+0x80>
		      }

		      case BL_FLASH_ERASE:
		      {
		    	  HAL_UART_Receive(C_UART, &bl_rx_buffer[1], 5, HAL_MAX_DELAY);
 8005060:	f04f 33ff 	mov.w	r3, #4294967295
 8005064:	2205      	movs	r2, #5
 8005066:	4910      	ldr	r1, [pc, #64]	@ (80050a8 <bootloader_uart_read_data+0x8c>)
 8005068:	480e      	ldr	r0, [pc, #56]	@ (80050a4 <bootloader_uart_read_data+0x88>)
 800506a:	f002 fe6a 	bl	8007d42 <HAL_UART_Receive>
		          bootloader_handle_flash_erase_cmd(bl_rx_buffer);
 800506e:	480c      	ldr	r0, [pc, #48]	@ (80050a0 <bootloader_uart_read_data+0x84>)
 8005070:	f000 f86a 	bl	8005148 <bootloader_handle_flash_erase_cmd>
		          break;
 8005074:	e012      	b.n	800509c <bootloader_uart_read_data+0x80>
		      }

		      case BL_MEM_WRITE_PREPARE:
		      {
		    	  HAL_UART_Receive(C_UART, &bl_rx_buffer[1], 5, HAL_MAX_DELAY);
 8005076:	f04f 33ff 	mov.w	r3, #4294967295
 800507a:	2205      	movs	r2, #5
 800507c:	490a      	ldr	r1, [pc, #40]	@ (80050a8 <bootloader_uart_read_data+0x8c>)
 800507e:	4809      	ldr	r0, [pc, #36]	@ (80050a4 <bootloader_uart_read_data+0x88>)
 8005080:	f002 fe5f 	bl	8007d42 <HAL_UART_Receive>
		    	  bootloder_handle_mem_write_prepare(bl_rx_buffer);
 8005084:	4806      	ldr	r0, [pc, #24]	@ (80050a0 <bootloader_uart_read_data+0x84>)
 8005086:	f000 f983 	bl	8005390 <bootloder_handle_mem_write_prepare>
		    	  break;
 800508a:	e007      	b.n	800509c <bootloader_uart_read_data+0x80>
		      }

		      case BL_MEM_WRITE:
		      {
		          bootloader_handle_mem_write_cmd(bl_rx_buffer);
 800508c:	4804      	ldr	r0, [pc, #16]	@ (80050a0 <bootloader_uart_read_data+0x84>)
 800508e:	f000 f88b 	bl	80051a8 <bootloader_handle_mem_write_cmd>
		          break;
 8005092:	e003      	b.n	800509c <bootloader_uart_read_data+0x80>
		      }

		      default:
		      {
		          printmsg("BL_DEBUG_MSG:Invalid command code received from host \n");
 8005094:	4805      	ldr	r0, [pc, #20]	@ (80050ac <bootloader_uart_read_data+0x90>)
 8005096:	f7ff ff9b 	bl	8004fd0 <printmsg>
		          break;
 800509a:	bf00      	nop
		memset(bl_rx_buffer, 0, 10);
 800509c:	e7c0      	b.n	8005020 <bootloader_uart_read_data+0x4>
 800509e:	bf00      	nop
 80050a0:	200001f4 	.word	0x200001f4
 80050a4:	200000e4 	.word	0x200000e4
 80050a8:	200001f5 	.word	0x200001f5
 80050ac:	08009080 	.word	0x08009080

080050b0 <bootloader_jump_to_user_app>:
	}

}

void bootloader_jump_to_user_app(void)
{
 80050b0:	b580      	push	{r7, lr}
 80050b2:	b084      	sub	sp, #16
 80050b4:	af00      	add	r7, sp, #0
	/* Create a function pointer to hold the reset handler*/
	void(*app_reset_handler)(void);

	printmsg("DBG_MSG : Running jump to application function\r\n");
 80050b6:	480c      	ldr	r0, [pc, #48]	@ (80050e8 <bootloader_jump_to_user_app+0x38>)
 80050b8:	f7ff ff8a 	bl	8004fd0 <printmsg>

	/* Configure the MSP */
	uint32_t msp_value = *((volatile uint32_t*)APPLICATION_START_ADDRESS);
 80050bc:	4b0b      	ldr	r3, [pc, #44]	@ (80050ec <bootloader_jump_to_user_app+0x3c>)
 80050be:	681b      	ldr	r3, [r3, #0]
 80050c0:	60fb      	str	r3, [r7, #12]
 80050c2:	68fb      	ldr	r3, [r7, #12]
 80050c4:	603b      	str	r3, [r7, #0]
  \details Assigns the given value to the Main Stack Pointer (MSP).
  \param [in]    topOfMainStack  Main Stack Pointer value to set
 */
__STATIC_FORCEINLINE void __set_MSP(uint32_t topOfMainStack)
{
  __ASM volatile ("MSR msp, %0" : : "r" (topOfMainStack) : );
 80050c6:	683b      	ldr	r3, [r7, #0]
 80050c8:	f383 8808 	msr	MSP, r3
}
 80050cc:	bf00      	nop

	__set_MSP(msp_value);

	/* Fetch the reset handler and store that in Function pointer, Reset handler present at Flash start address + 4 */
	uint32_t reset_handler_address = *((volatile uint32_t*)APPLICATION_RESET_HANDLER_ADDRESS);
 80050ce:	4b08      	ldr	r3, [pc, #32]	@ (80050f0 <bootloader_jump_to_user_app+0x40>)
 80050d0:	681b      	ldr	r3, [r3, #0]
 80050d2:	60bb      	str	r3, [r7, #8]

	app_reset_handler = (void*)reset_handler_address;
 80050d4:	68bb      	ldr	r3, [r7, #8]
 80050d6:	607b      	str	r3, [r7, #4]
  __ASM volatile ("cpsid i" : : : "memory");
 80050d8:	b672      	cpsid	i
}
 80050da:	bf00      	nop

	__disable_irq();
	/* Jump to reset handler of Application*/
	app_reset_handler();
 80050dc:	687b      	ldr	r3, [r7, #4]
 80050de:	4798      	blx	r3

}
 80050e0:	bf00      	nop
 80050e2:	3710      	adds	r7, #16
 80050e4:	46bd      	mov	sp, r7
 80050e6:	bd80      	pop	{r7, pc}
 80050e8:	080090b8 	.word	0x080090b8
 80050ec:	08020000 	.word	0x08020000
 80050f0:	08020004 	.word	0x08020004

080050f4 <Error_Handler>:
/**
  * @brief  This function is executed in case of error occurrence.
  * @retval None
  */
void Error_Handler(void)
{
 80050f4:	b480      	push	{r7}
 80050f6:	af00      	add	r7, sp, #0
  __ASM volatile ("cpsid i" : : : "memory");
 80050f8:	b672      	cpsid	i
}
 80050fa:	bf00      	nop
  /* USER CODE BEGIN Error_Handler_Debug */
  /* User can add his own implementation to report the HAL error return state */
  __disable_irq();
  while (1)
 80050fc:	bf00      	nop
 80050fe:	e7fd      	b.n	80050fc <Error_Handler+0x8>

08005100 <bootloader_handle_getver_cmd>:
  /* USER CODE END 6 */
}
#endif /* USE_FULL_ASSERT */

void bootloader_handle_getver_cmd(uint8_t *bl_rx_buffer)
{
 8005100:	b580      	push	{r7, lr}
 8005102:	b084      	sub	sp, #16
 8005104:	af00      	add	r7, sp, #0
 8005106:	6078      	str	r0, [r7, #4]
	uint8_t bl_version;
	uint8_t response_buffer[2];
	printmsg("BL_DEBUG_MSG:bootloader_handle_getver_cmd\n");
 8005108:	480d      	ldr	r0, [pc, #52]	@ (8005140 <bootloader_handle_getver_cmd+0x40>)
 800510a:	f7ff ff61 	bl	8004fd0 <printmsg>
    bl_version=get_bootloader_version();
 800510e:	f000 f8f5 	bl	80052fc <get_bootloader_version>
 8005112:	4603      	mov	r3, r0
 8005114:	73fb      	strb	r3, [r7, #15]
    response_buffer[0] = BL_ACK;
 8005116:	2300      	movs	r3, #0
 8005118:	733b      	strb	r3, [r7, #12]
    response_buffer[1] = bl_version;
 800511a:	7bfb      	ldrb	r3, [r7, #15]
 800511c:	737b      	strb	r3, [r7, #13]
    printmsg("BL_DEBUG_MSG:BL_VER : %d %#x\n",bl_version,bl_version);
 800511e:	7bfb      	ldrb	r3, [r7, #15]
 8005120:	7bfa      	ldrb	r2, [r7, #15]
 8005122:	4619      	mov	r1, r3
 8005124:	4807      	ldr	r0, [pc, #28]	@ (8005144 <bootloader_handle_getver_cmd+0x44>)
 8005126:	f7ff ff53 	bl	8004fd0 <printmsg>
    bootloader_uart_response_data(&response_buffer[0], 2);
 800512a:	f107 030c 	add.w	r3, r7, #12
 800512e:	2102      	movs	r1, #2
 8005130:	4618      	mov	r0, r3
 8005132:	f000 f8eb 	bl	800530c <bootloader_uart_response_data>
}
 8005136:	bf00      	nop
 8005138:	3710      	adds	r7, #16
 800513a:	46bd      	mov	sp, r7
 800513c:	bd80      	pop	{r7, pc}
 800513e:	bf00      	nop
 8005140:	080090ec 	.word	0x080090ec
 8005144:	08009118 	.word	0x08009118

08005148 <bootloader_handle_flash_erase_cmd>:

void bootloader_handle_flash_erase_cmd(uint8_t *pBuffer)
{
 8005148:	b580      	push	{r7, lr}
 800514a:	b088      	sub	sp, #32
 800514c:	af00      	add	r7, sp, #0
 800514e:	6078      	str	r0, [r7, #4]
	FLASH_EraseInitTypeDef decoded_value;
	uint32_t pageError;
	uint8_t response_buffer[2];
	HAL_StatusTypeDef Erase_Status;

	decode__erase_command(pBuffer, &decoded_value);
 8005150:	f107 0310 	add.w	r3, r7, #16
 8005154:	4619      	mov	r1, r3
 8005156:	6878      	ldr	r0, [r7, #4]
 8005158:	f000 f8ec 	bl	8005334 <decode__erase_command>
	HAL_FLASH_Unlock();
 800515c:	f000 fdaa 	bl	8005cb4 <HAL_FLASH_Unlock>
	Erase_Status = HAL_FLASHEx_Erase(&decoded_value, &pageError);
 8005160:	f107 020c 	add.w	r2, r7, #12
 8005164:	f107 0310 	add.w	r3, r7, #16
 8005168:	4611      	mov	r1, r2
 800516a:	4618      	mov	r0, r3
 800516c:	f000 fe66 	bl	8005e3c <HAL_FLASHEx_Erase>
 8005170:	4603      	mov	r3, r0
 8005172:	77fb      	strb	r3, [r7, #31]
	HAL_FLASH_Lock();
 8005174:	f000 fdc4 	bl	8005d00 <HAL_FLASH_Lock>

	if(Erase_Status == HAL_OK)
 8005178:	7ffb      	ldrb	r3, [r7, #31]
 800517a:	2b00      	cmp	r3, #0
 800517c:	d105      	bne.n	800518a <bootloader_handle_flash_erase_cmd+0x42>
	{
		response_buffer[0] = pBuffer[0];
 800517e:	687b      	ldr	r3, [r7, #4]
 8005180:	781b      	ldrb	r3, [r3, #0]
 8005182:	723b      	strb	r3, [r7, #8]
		response_buffer[1] = Erase_Status;
 8005184:	7ffb      	ldrb	r3, [r7, #31]
 8005186:	727b      	strb	r3, [r7, #9]
 8005188:	e004      	b.n	8005194 <bootloader_handle_flash_erase_cmd+0x4c>
	}
	else
	{
		response_buffer[0] = pBuffer[0];
 800518a:	687b      	ldr	r3, [r7, #4]
 800518c:	781b      	ldrb	r3, [r3, #0]
 800518e:	723b      	strb	r3, [r7, #8]
		response_buffer[1] = Erase_Status;
 8005190:	7ffb      	ldrb	r3, [r7, #31]
 8005192:	727b      	strb	r3, [r7, #9]
	}

	bootloader_uart_response_data(&response_buffer[0], 2);
 8005194:	f107 0308 	add.w	r3, r7, #8
 8005198:	2102      	movs	r1, #2
 800519a:	4618      	mov	r0, r3
 800519c:	f000 f8b6 	bl	800530c <bootloader_uart_response_data>
}
 80051a0:	bf00      	nop
 80051a2:	3720      	adds	r7, #32
 80051a4:	46bd      	mov	sp, r7
 80051a6:	bd80      	pop	{r7, pc}

080051a8 <bootloader_handle_mem_write_cmd>:

void bootloader_handle_mem_write_cmd(uint8_t *pBuffer)
{
 80051a8:	b5b0      	push	{r4, r5, r7, lr}
 80051aa:	b0d6      	sub	sp, #344	@ 0x158
 80051ac:	af00      	add	r7, sp, #0
 80051ae:	f507 73ac 	add.w	r3, r7, #344	@ 0x158
 80051b2:	f5a3 73aa 	sub.w	r3, r3, #340	@ 0x154
 80051b6:	6018      	str	r0, [r3, #0]
	uint8_t response_buffer[3];
	HAL_StatusTypeDef returnStatus;
	uint8_t flash_data_receive[256];
	uint8_t signatureRec[64] __attribute__((aligned(4)));

	HAL_FLASH_Unlock();
 80051b8:	f000 fd7c 	bl	8005cb4 <HAL_FLASH_Unlock>
	/* Receive the Frame Number */
	HAL_UART_Receive(C_UART, &pBuffer[1], 1, HAL_MAX_DELAY);
 80051bc:	f507 73ac 	add.w	r3, r7, #344	@ 0x158
 80051c0:	f5a3 73aa 	sub.w	r3, r3, #340	@ 0x154
 80051c4:	681b      	ldr	r3, [r3, #0]
 80051c6:	1c59      	adds	r1, r3, #1
 80051c8:	f04f 33ff 	mov.w	r3, #4294967295
 80051cc:	2201      	movs	r2, #1
 80051ce:	4845      	ldr	r0, [pc, #276]	@ (80052e4 <bootloader_handle_mem_write_cmd+0x13c>)
 80051d0:	f002 fdb7 	bl	8007d42 <HAL_UART_Receive>

	HAL_UART_Receive(C_UART, &flash_data_receive[0], BL_MESSAGE_CHUNK_LENGTH, HAL_MAX_DELAY);
 80051d4:	f107 014c 	add.w	r1, r7, #76	@ 0x4c
 80051d8:	f04f 33ff 	mov.w	r3, #4294967295
 80051dc:	f44f 7280 	mov.w	r2, #256	@ 0x100
 80051e0:	4840      	ldr	r0, [pc, #256]	@ (80052e4 <bootloader_handle_mem_write_cmd+0x13c>)
 80051e2:	f002 fdae 	bl	8007d42 <HAL_UART_Receive>

	uint32_t *pData = (uint32_t *)&flash_data_receive[0];
 80051e6:	f107 034c 	add.w	r3, r7, #76	@ 0x4c
 80051ea:	f8c7 3150 	str.w	r3, [r7, #336]	@ 0x150

	for(int j = 0; j< TOTAL_NO_WORDS; j++)
 80051ee:	2300      	movs	r3, #0
 80051f0:	f8c7 3154 	str.w	r3, [r7, #340]	@ 0x154
 80051f4:	e02b      	b.n	800524e <bootloader_handle_mem_write_cmd+0xa6>
	{
		returnStatus = HAL_FLASH_Program(FLASH_TYPEPROGRAM_WORD, currentAddress , pData[j] );
 80051f6:	4b3c      	ldr	r3, [pc, #240]	@ (80052e8 <bootloader_handle_mem_write_cmd+0x140>)
 80051f8:	6819      	ldr	r1, [r3, #0]
 80051fa:	f8d7 3154 	ldr.w	r3, [r7, #340]	@ 0x154
 80051fe:	009b      	lsls	r3, r3, #2
 8005200:	f8d7 2150 	ldr.w	r2, [r7, #336]	@ 0x150
 8005204:	4413      	add	r3, r2
 8005206:	681b      	ldr	r3, [r3, #0]
 8005208:	2200      	movs	r2, #0
 800520a:	461c      	mov	r4, r3
 800520c:	4615      	mov	r5, r2
 800520e:	4622      	mov	r2, r4
 8005210:	462b      	mov	r3, r5
 8005212:	2002      	movs	r0, #2
 8005214:	f000 fcde 	bl	8005bd4 <HAL_FLASH_Program>
 8005218:	4603      	mov	r3, r0
 800521a:	f887 314f 	strb.w	r3, [r7, #335]	@ 0x14f
		if(returnStatus == HAL_OK)
 800521e:	f897 314f 	ldrb.w	r3, [r7, #335]	@ 0x14f
 8005222:	2b00      	cmp	r3, #0
 8005224:	d109      	bne.n	800523a <bootloader_handle_mem_write_cmd+0x92>
		{
			currentAddress += 4;
 8005226:	4b30      	ldr	r3, [pc, #192]	@ (80052e8 <bootloader_handle_mem_write_cmd+0x140>)
 8005228:	681b      	ldr	r3, [r3, #0]
 800522a:	3304      	adds	r3, #4
 800522c:	4a2e      	ldr	r2, [pc, #184]	@ (80052e8 <bootloader_handle_mem_write_cmd+0x140>)
 800522e:	6013      	str	r3, [r2, #0]
			response_buffer[2] = returnStatus;
 8005230:	f897 314f 	ldrb.w	r3, [r7, #335]	@ 0x14f
 8005234:	f887 314e 	strb.w	r3, [r7, #334]	@ 0x14e
 8005238:	e004      	b.n	8005244 <bootloader_handle_mem_write_cmd+0x9c>
		}
		else
		{
			response_buffer[2] = returnStatus;
 800523a:	f897 314f 	ldrb.w	r3, [r7, #335]	@ 0x14f
 800523e:	f887 314e 	strb.w	r3, [r7, #334]	@ 0x14e
			break;
 8005242:	e008      	b.n	8005256 <bootloader_handle_mem_write_cmd+0xae>
	for(int j = 0; j< TOTAL_NO_WORDS; j++)
 8005244:	f8d7 3154 	ldr.w	r3, [r7, #340]	@ 0x154
 8005248:	3301      	adds	r3, #1
 800524a:	f8c7 3154 	str.w	r3, [r7, #340]	@ 0x154
 800524e:	f8d7 3154 	ldr.w	r3, [r7, #340]	@ 0x154
 8005252:	2b3f      	cmp	r3, #63	@ 0x3f
 8005254:	d9cf      	bls.n	80051f6 <bootloader_handle_mem_write_cmd+0x4e>
		}

	}
	memset(flash_data_receive, 0, sizeof(flash_data_receive));
 8005256:	f107 034c 	add.w	r3, r7, #76	@ 0x4c
 800525a:	f44f 7280 	mov.w	r2, #256	@ 0x100
 800525e:	2100      	movs	r1, #0
 8005260:	4618      	mov	r0, r3
 8005262:	f003 fa45 	bl	80086f0 <memset>

	curr_Falshed_length += BL_MESSAGE_CHUNK_LENGTH;
 8005266:	4b21      	ldr	r3, [pc, #132]	@ (80052ec <bootloader_handle_mem_write_cmd+0x144>)
 8005268:	881b      	ldrh	r3, [r3, #0]
 800526a:	f503 7380 	add.w	r3, r3, #256	@ 0x100
 800526e:	b29a      	uxth	r2, r3
 8005270:	4b1e      	ldr	r3, [pc, #120]	@ (80052ec <bootloader_handle_mem_write_cmd+0x144>)
 8005272:	801a      	strh	r2, [r3, #0]
	response_buffer[0] = pBuffer[0];
 8005274:	f507 73ac 	add.w	r3, r7, #344	@ 0x158
 8005278:	f5a3 73aa 	sub.w	r3, r3, #340	@ 0x154
 800527c:	681b      	ldr	r3, [r3, #0]
 800527e:	781b      	ldrb	r3, [r3, #0]
 8005280:	f887 314c 	strb.w	r3, [r7, #332]	@ 0x14c
	response_buffer[1] = pBuffer[1];
 8005284:	f507 73ac 	add.w	r3, r7, #344	@ 0x158
 8005288:	f5a3 73aa 	sub.w	r3, r3, #340	@ 0x154
 800528c:	681b      	ldr	r3, [r3, #0]
 800528e:	785b      	ldrb	r3, [r3, #1]
 8005290:	f887 314d 	strb.w	r3, [r7, #333]	@ 0x14d
	bootloader_uart_response_data(&response_buffer[0], 3);
 8005294:	f507 73a6 	add.w	r3, r7, #332	@ 0x14c
 8005298:	2103      	movs	r1, #3
 800529a:	4618      	mov	r0, r3
 800529c:	f000 f836 	bl	800530c <bootloader_uart_response_data>
	HAL_FLASH_Lock();
 80052a0:	f000 fd2e 	bl	8005d00 <HAL_FLASH_Lock>


	if(curr_Falshed_length == FlashingLength)
 80052a4:	4b11      	ldr	r3, [pc, #68]	@ (80052ec <bootloader_handle_mem_write_cmd+0x144>)
 80052a6:	881a      	ldrh	r2, [r3, #0]
 80052a8:	4b11      	ldr	r3, [pc, #68]	@ (80052f0 <bootloader_handle_mem_write_cmd+0x148>)
 80052aa:	881b      	ldrh	r3, [r3, #0]
 80052ac:	429a      	cmp	r2, r3
 80052ae:	d114      	bne.n	80052da <bootloader_handle_mem_write_cmd+0x132>
	{
		HAL_UART_Receive(C_UART, &signatureRec[0], SIGNATURE_SIZE, HAL_MAX_DELAY);
 80052b0:	f107 010c 	add.w	r1, r7, #12
 80052b4:	f04f 33ff 	mov.w	r3, #4294967295
 80052b8:	2240      	movs	r2, #64	@ 0x40
 80052ba:	480a      	ldr	r0, [pc, #40]	@ (80052e4 <bootloader_handle_mem_write_cmd+0x13c>)
 80052bc:	f002 fd41 	bl	8007d42 <HAL_UART_Receive>

		Calculate_Firmware_Hash(&outputDigest[0], APPLICATION_START_ADDRESS, (uint16_t)FlashingLength);
 80052c0:	4b0b      	ldr	r3, [pc, #44]	@ (80052f0 <bootloader_handle_mem_write_cmd+0x148>)
 80052c2:	881b      	ldrh	r3, [r3, #0]
 80052c4:	461a      	mov	r2, r3
 80052c6:	490b      	ldr	r1, [pc, #44]	@ (80052f4 <bootloader_handle_mem_write_cmd+0x14c>)
 80052c8:	480b      	ldr	r0, [pc, #44]	@ (80052f8 <bootloader_handle_mem_write_cmd+0x150>)
 80052ca:	f000 f8b9 	bl	8005440 <Calculate_Firmware_Hash>

		Calculate_Signature(&outputDigest[0], &signatureRec[0]);
 80052ce:	f107 030c 	add.w	r3, r7, #12
 80052d2:	4619      	mov	r1, r3
 80052d4:	4808      	ldr	r0, [pc, #32]	@ (80052f8 <bootloader_handle_mem_write_cmd+0x150>)
 80052d6:	f000 f8d1 	bl	800547c <Calculate_Signature>

	}

}
 80052da:	bf00      	nop
 80052dc:	f507 77ac 	add.w	r7, r7, #344	@ 0x158
 80052e0:	46bd      	mov	sp, r7
 80052e2:	bdb0      	pop	{r4, r5, r7, pc}
 80052e4:	200000e4 	.word	0x200000e4
 80052e8:	2000020c 	.word	0x2000020c
 80052ec:	20000206 	.word	0x20000206
 80052f0:	20000204 	.word	0x20000204
 80052f4:	08020000 	.word	0x08020000
 80052f8:	20000210 	.word	0x20000210

080052fc <get_bootloader_version>:

uint8_t get_bootloader_version(void)
{
 80052fc:	b480      	push	{r7}
 80052fe:	af00      	add	r7, sp, #0
	return BL_VERSION;
 8005300:	2310      	movs	r3, #16
}
 8005302:	4618      	mov	r0, r3
 8005304:	46bd      	mov	sp, r7
 8005306:	bc80      	pop	{r7}
 8005308:	4770      	bx	lr
	...

0800530c <bootloader_uart_response_data>:

void bootloader_uart_response_data(uint8_t *pBuffer,uint32_t len)
{
 800530c:	b580      	push	{r7, lr}
 800530e:	b082      	sub	sp, #8
 8005310:	af00      	add	r7, sp, #0
 8005312:	6078      	str	r0, [r7, #4]
 8005314:	6039      	str	r1, [r7, #0]
	/*you can replace the below ST's USART driver API call with your MCUs driver API call */
	HAL_UART_Transmit(C_UART,pBuffer,len,HAL_MAX_DELAY);
 8005316:	683b      	ldr	r3, [r7, #0]
 8005318:	b29a      	uxth	r2, r3
 800531a:	f04f 33ff 	mov.w	r3, #4294967295
 800531e:	6879      	ldr	r1, [r7, #4]
 8005320:	4803      	ldr	r0, [pc, #12]	@ (8005330 <bootloader_uart_response_data+0x24>)
 8005322:	f002 fc85 	bl	8007c30 <HAL_UART_Transmit>
}
 8005326:	bf00      	nop
 8005328:	3708      	adds	r7, #8
 800532a:	46bd      	mov	sp, r7
 800532c:	bd80      	pop	{r7, pc}
 800532e:	bf00      	nop
 8005330:	200000e4 	.word	0x200000e4

08005334 <decode__erase_command>:

void decode__erase_command(uint8_t* pBuffer, FLASH_EraseInitTypeDef* decoded_value)
{
 8005334:	b480      	push	{r7}
 8005336:	b085      	sub	sp, #20
 8005338:	af00      	add	r7, sp, #0
 800533a:	6078      	str	r0, [r7, #4]
 800533c:	6039      	str	r1, [r7, #0]
	uint32_t startingAddress = 0x00000000;
 800533e:	2300      	movs	r3, #0
 8005340:	60fb      	str	r3, [r7, #12]
	uint32_t no_of_page = 0;
 8005342:	2300      	movs	r3, #0
 8005344:	60bb      	str	r3, [r7, #8]

	startingAddress = (((uint32_t)pBuffer[1] << 24) |
 8005346:	687b      	ldr	r3, [r7, #4]
 8005348:	3301      	adds	r3, #1
 800534a:	781b      	ldrb	r3, [r3, #0]
 800534c:	061a      	lsls	r2, r3, #24
	                  ((uint32_t)pBuffer[2] << 16) |
 800534e:	687b      	ldr	r3, [r7, #4]
 8005350:	3302      	adds	r3, #2
 8005352:	781b      	ldrb	r3, [r3, #0]
 8005354:	041b      	lsls	r3, r3, #16
	startingAddress = (((uint32_t)pBuffer[1] << 24) |
 8005356:	431a      	orrs	r2, r3
	                  ((uint32_t)pBuffer[3] << 8)  |
 8005358:	687b      	ldr	r3, [r7, #4]
 800535a:	3303      	adds	r3, #3
 800535c:	781b      	ldrb	r3, [r3, #0]
 800535e:	021b      	lsls	r3, r3, #8
	                  ((uint32_t)pBuffer[2] << 16) |
 8005360:	4313      	orrs	r3, r2
	                  ((uint32_t)pBuffer[4]));
 8005362:	687a      	ldr	r2, [r7, #4]
 8005364:	3204      	adds	r2, #4
 8005366:	7812      	ldrb	r2, [r2, #0]
	startingAddress = (((uint32_t)pBuffer[1] << 24) |
 8005368:	4313      	orrs	r3, r2
 800536a:	60fb      	str	r3, [r7, #12]

	no_of_page = (uint32_t)pBuffer[5];
 800536c:	687b      	ldr	r3, [r7, #4]
 800536e:	3305      	adds	r3, #5
 8005370:	781b      	ldrb	r3, [r3, #0]
 8005372:	60bb      	str	r3, [r7, #8]

	decoded_value->TypeErase = FLASH_TYPEERASE_PAGES;
 8005374:	683b      	ldr	r3, [r7, #0]
 8005376:	2200      	movs	r2, #0
 8005378:	601a      	str	r2, [r3, #0]
	decoded_value->PageAddress = startingAddress;
 800537a:	683b      	ldr	r3, [r7, #0]
 800537c:	68fa      	ldr	r2, [r7, #12]
 800537e:	605a      	str	r2, [r3, #4]
	decoded_value->NbPages = no_of_page;
 8005380:	683b      	ldr	r3, [r7, #0]
 8005382:	68ba      	ldr	r2, [r7, #8]
 8005384:	609a      	str	r2, [r3, #8]
}
 8005386:	bf00      	nop
 8005388:	3714      	adds	r7, #20
 800538a:	46bd      	mov	sp, r7
 800538c:	bc80      	pop	{r7}
 800538e:	4770      	bx	lr

08005390 <bootloder_handle_mem_write_prepare>:

void bootloder_handle_mem_write_prepare(uint8_t *pBuffer)
{
 8005390:	b580      	push	{r7, lr}
 8005392:	b084      	sub	sp, #16
 8005394:	af00      	add	r7, sp, #0
 8005396:	6078      	str	r0, [r7, #4]
	uint8_t response_buffer[2];
	FlashingStart = (((uint32_t)pBuffer[1] << 24) |
 8005398:	687b      	ldr	r3, [r7, #4]
 800539a:	3301      	adds	r3, #1
 800539c:	781b      	ldrb	r3, [r3, #0]
 800539e:	061a      	lsls	r2, r3, #24
	                  ((uint32_t)pBuffer[2] << 16) |
 80053a0:	687b      	ldr	r3, [r7, #4]
 80053a2:	3302      	adds	r3, #2
 80053a4:	781b      	ldrb	r3, [r3, #0]
 80053a6:	041b      	lsls	r3, r3, #16
	FlashingStart = (((uint32_t)pBuffer[1] << 24) |
 80053a8:	431a      	orrs	r2, r3
	                  ((uint32_t)pBuffer[3] << 8)  |
 80053aa:	687b      	ldr	r3, [r7, #4]
 80053ac:	3303      	adds	r3, #3
 80053ae:	781b      	ldrb	r3, [r3, #0]
 80053b0:	021b      	lsls	r3, r3, #8
	                  ((uint32_t)pBuffer[2] << 16) |
 80053b2:	4313      	orrs	r3, r2
	                  ((uint32_t)pBuffer[4]));
 80053b4:	687a      	ldr	r2, [r7, #4]
 80053b6:	3204      	adds	r2, #4
 80053b8:	7812      	ldrb	r2, [r2, #0]
	                  ((uint32_t)pBuffer[3] << 8)  |
 80053ba:	4313      	orrs	r3, r2
	FlashingStart = (((uint32_t)pBuffer[1] << 24) |
 80053bc:	4a13      	ldr	r2, [pc, #76]	@ (800540c <bootloder_handle_mem_write_prepare+0x7c>)
 80053be:	6013      	str	r3, [r2, #0]

	FlashingLength = (((uint32_t)pBuffer[5] << 8)  |
 80053c0:	687b      	ldr	r3, [r7, #4]
 80053c2:	3305      	adds	r3, #5
 80053c4:	781b      	ldrb	r3, [r3, #0]
 80053c6:	021b      	lsls	r3, r3, #8
 80053c8:	b29b      	uxth	r3, r3
            			((uint32_t)pBuffer[6]));
 80053ca:	687a      	ldr	r2, [r7, #4]
 80053cc:	3206      	adds	r2, #6
 80053ce:	7812      	ldrb	r2, [r2, #0]
	FlashingLength = (((uint32_t)pBuffer[5] << 8)  |
 80053d0:	4313      	orrs	r3, r2
 80053d2:	b29a      	uxth	r2, r3
 80053d4:	4b0e      	ldr	r3, [pc, #56]	@ (8005410 <bootloder_handle_mem_write_prepare+0x80>)
 80053d6:	801a      	strh	r2, [r3, #0]

	total_no_of_frames = FlashingLength/256;
 80053d8:	4b0d      	ldr	r3, [pc, #52]	@ (8005410 <bootloder_handle_mem_write_prepare+0x80>)
 80053da:	881b      	ldrh	r3, [r3, #0]
 80053dc:	0a1b      	lsrs	r3, r3, #8
 80053de:	b29a      	uxth	r2, r3
 80053e0:	4b0c      	ldr	r3, [pc, #48]	@ (8005414 <bootloder_handle_mem_write_prepare+0x84>)
 80053e2:	801a      	strh	r2, [r3, #0]

	currentAddress = FlashingStart;
 80053e4:	4b09      	ldr	r3, [pc, #36]	@ (800540c <bootloder_handle_mem_write_prepare+0x7c>)
 80053e6:	681b      	ldr	r3, [r3, #0]
 80053e8:	4a0b      	ldr	r2, [pc, #44]	@ (8005418 <bootloder_handle_mem_write_prepare+0x88>)
 80053ea:	6013      	str	r3, [r2, #0]

	response_buffer[0] = pBuffer[0];
 80053ec:	687b      	ldr	r3, [r7, #4]
 80053ee:	781b      	ldrb	r3, [r3, #0]
 80053f0:	733b      	strb	r3, [r7, #12]
	response_buffer[1] = 0x00;
 80053f2:	2300      	movs	r3, #0
 80053f4:	737b      	strb	r3, [r7, #13]

	bootloader_uart_response_data(&response_buffer[0], 2);
 80053f6:	f107 030c 	add.w	r3, r7, #12
 80053fa:	2102      	movs	r1, #2
 80053fc:	4618      	mov	r0, r3
 80053fe:	f7ff ff85 	bl	800530c <bootloader_uart_response_data>
}
 8005402:	bf00      	nop
 8005404:	3710      	adds	r7, #16
 8005406:	46bd      	mov	sp, r7
 8005408:	bd80      	pop	{r7, pc}
 800540a:	bf00      	nop
 800540c:	20000200 	.word	0x20000200
 8005410:	20000204 	.word	0x20000204
 8005414:	20000208 	.word	0x20000208
 8005418:	2000020c 	.word	0x2000020c

0800541c <init_ecc_system>:
// The size depends on the curve. For SECP256R1, 2KB is usually plenty.
#define ECC_WORKING_AREA_SIZE 2048
//uint32_t WorkingArea[ECC_WORKING_AREA_SIZE / sizeof(uint32_t)];
uint8_t WorkingArea[ECC_WORKING_AREA_SIZE / sizeof(uint8_t)] __attribute__((aligned(4)));

void init_ecc_system(void) {
 800541c:	b580      	push	{r7, lr}
 800541e:	af00      	add	r7, sp, #0

    // Construct the ECC handle
    cmox_ecc_construct(&EccCtx,                  // The handle
 8005420:	4b04      	ldr	r3, [pc, #16]	@ (8005434 <init_ecc_system+0x18>)
 8005422:	6819      	ldr	r1, [r3, #0]
 8005424:	f44f 6300 	mov.w	r3, #2048	@ 0x800
 8005428:	4a03      	ldr	r2, [pc, #12]	@ (8005438 <init_ecc_system+0x1c>)
 800542a:	4804      	ldr	r0, [pc, #16]	@ (800543c <init_ecc_system+0x20>)
 800542c:	f7fa fed8 	bl	80001e0 <cmox_ecc_construct>
    					CMOX_MATH_FUNCS_FAST, // Math engine
                        WorkingArea,              // Buffer
                        sizeof(WorkingArea));     // Buffer size
}
 8005430:	bf00      	nop
 8005432:	bd80      	pop	{r7, pc}
 8005434:	080094cc 	.word	0x080094cc
 8005438:	20000248 	.word	0x20000248
 800543c:	20000230 	.word	0x20000230

08005440 <Calculate_Firmware_Hash>:

void Calculate_Firmware_Hash(uint8_t *output_digest, uint32_t startAddress, uint16_t size)
{
 8005440:	b580      	push	{r7, lr}
 8005442:	b08a      	sub	sp, #40	@ 0x28
 8005444:	af02      	add	r7, sp, #8
 8005446:	60f8      	str	r0, [r7, #12]
 8005448:	60b9      	str	r1, [r7, #8]
 800544a:	4613      	mov	r3, r2
 800544c:	80fb      	strh	r3, [r7, #6]
    cmox_hash_retval_t retval;
    size_t generated_length = 0;
 800544e:	2300      	movs	r3, #0
 8005450:	617b      	str	r3, [r7, #20]

    /* 1. Create a pointer that looks directly at the Flash memory */
    const uint8_t *firmware_in_flash = (const uint8_t *)startAddress;
 8005452:	68bb      	ldr	r3, [r7, #8]
 8005454:	61fb      	str	r3, [r7, #28]

    /* 2. Execute the Single-Shot API */
    retval = cmox_hash_compute(
 8005456:	4b08      	ldr	r3, [pc, #32]	@ (8005478 <Calculate_Firmware_Hash+0x38>)
 8005458:	6818      	ldr	r0, [r3, #0]
 800545a:	88fa      	ldrh	r2, [r7, #6]
 800545c:	f107 0314 	add.w	r3, r7, #20
 8005460:	9301      	str	r3, [sp, #4]
 8005462:	2320      	movs	r3, #32
 8005464:	9300      	str	r3, [sp, #0]
 8005466:	68fb      	ldr	r3, [r7, #12]
 8005468:	69f9      	ldr	r1, [r7, #28]
 800546a:	f7fc ff13 	bl	8002294 <cmox_hash_compute>
 800546e:	61b8      	str	r0, [r7, #24]
    /* 3. Check for success */
    if (retval != CMOX_HASH_SUCCESS)
    {
    	// Status Return
    }
}
 8005470:	bf00      	nop
 8005472:	3720      	adds	r7, #32
 8005474:	46bd      	mov	sp, r7
 8005476:	bd80      	pop	{r7, pc}
 8005478:	080094f0 	.word	0x080094f0

0800547c <Calculate_Signature>:

void Calculate_Signature(uint8_t* outputDigest, uint8_t* signatureRec)
{
 800547c:	b580      	push	{r7, lr}
 800547e:	b08a      	sub	sp, #40	@ 0x28
 8005480:	af06      	add	r7, sp, #24
 8005482:	6078      	str	r0, [r7, #4]
 8005484:	6039      	str	r1, [r7, #0]
	uint32_t fault_check = 0;
 8005486:	2300      	movs	r3, #0
 8005488:	60bb      	str	r3, [r7, #8]
	cmox_ecc_retval_t status;

	status = cmox_ecdsa_verify(
 800548a:	4b0d      	ldr	r3, [pc, #52]	@ (80054c0 <Calculate_Signature+0x44>)
 800548c:	6819      	ldr	r1, [r3, #0]
 800548e:	f107 0308 	add.w	r3, r7, #8
 8005492:	9304      	str	r3, [sp, #16]
 8005494:	2340      	movs	r3, #64	@ 0x40
 8005496:	9303      	str	r3, [sp, #12]
 8005498:	683b      	ldr	r3, [r7, #0]
 800549a:	9302      	str	r3, [sp, #8]
 800549c:	2320      	movs	r3, #32
 800549e:	9301      	str	r3, [sp, #4]
 80054a0:	687b      	ldr	r3, [r7, #4]
 80054a2:	9300      	str	r3, [sp, #0]
 80054a4:	2340      	movs	r3, #64	@ 0x40
 80054a6:	4a07      	ldr	r2, [pc, #28]	@ (80054c4 <Calculate_Signature+0x48>)
 80054a8:	4807      	ldr	r0, [pc, #28]	@ (80054c8 <Calculate_Signature+0x4c>)
 80054aa:	f7fc fd7f 	bl	8001fac <cmox_ecdsa_verify>
 80054ae:	60f8      	str	r0, [r7, #12]
	    64,                             // Signature length
	    &fault_check                    // Fault check variable
	);

	// Strict check as per the library @note
	if ((status == CMOX_ECC_AUTH_SUCCESS) && (fault_check == CMOX_ECC_AUTH_SUCCESS)) {
 80054b0:	68fb      	ldr	r3, [r7, #12]
 80054b2:	4a06      	ldr	r2, [pc, #24]	@ (80054cc <Calculate_Signature+0x50>)
 80054b4:	4293      	cmp	r3, r2
	    // Signature is valid
	} else {
	    // Verification failed or fault detected
	}
}
 80054b6:	bf00      	nop
 80054b8:	3710      	adds	r7, #16
 80054ba:	46bd      	mov	sp, r7
 80054bc:	bd80      	pop	{r7, pc}
 80054be:	bf00      	nop
 80054c0:	08009480 	.word	0x08009480
 80054c4:	20000000 	.word	0x20000000
 80054c8:	20000230 	.word	0x20000230
 80054cc:	0006c726 	.word	0x0006c726

080054d0 <HAL_MspInit>:
/* USER CODE END 0 */
/**
  * Initializes the Global MSP.
  */
void HAL_MspInit(void)
{
 80054d0:	b580      	push	{r7, lr}
 80054d2:	b082      	sub	sp, #8
 80054d4:	af00      	add	r7, sp, #0

  /* USER CODE BEGIN MspInit 0 */

  /* USER CODE END MspInit 0 */

  __HAL_RCC_SYSCFG_CLK_ENABLE();
 80054d6:	4b0f      	ldr	r3, [pc, #60]	@ (8005514 <HAL_MspInit+0x44>)
 80054d8:	699b      	ldr	r3, [r3, #24]
 80054da:	4a0e      	ldr	r2, [pc, #56]	@ (8005514 <HAL_MspInit+0x44>)
 80054dc:	f043 0301 	orr.w	r3, r3, #1
 80054e0:	6193      	str	r3, [r2, #24]
 80054e2:	4b0c      	ldr	r3, [pc, #48]	@ (8005514 <HAL_MspInit+0x44>)
 80054e4:	699b      	ldr	r3, [r3, #24]
 80054e6:	f003 0301 	and.w	r3, r3, #1
 80054ea:	607b      	str	r3, [r7, #4]
 80054ec:	687b      	ldr	r3, [r7, #4]
  __HAL_RCC_PWR_CLK_ENABLE();
 80054ee:	4b09      	ldr	r3, [pc, #36]	@ (8005514 <HAL_MspInit+0x44>)
 80054f0:	69db      	ldr	r3, [r3, #28]
 80054f2:	4a08      	ldr	r2, [pc, #32]	@ (8005514 <HAL_MspInit+0x44>)
 80054f4:	f043 5380 	orr.w	r3, r3, #268435456	@ 0x10000000
 80054f8:	61d3      	str	r3, [r2, #28]
 80054fa:	4b06      	ldr	r3, [pc, #24]	@ (8005514 <HAL_MspInit+0x44>)
 80054fc:	69db      	ldr	r3, [r3, #28]
 80054fe:	f003 5380 	and.w	r3, r3, #268435456	@ 0x10000000
 8005502:	603b      	str	r3, [r7, #0]
 8005504:	683b      	ldr	r3, [r7, #0]

  HAL_NVIC_SetPriorityGrouping(NVIC_PRIORITYGROUP_0);
 8005506:	2007      	movs	r0, #7
 8005508:	f000 fa3e 	bl	8005988 <HAL_NVIC_SetPriorityGrouping>
  /* System interrupt init*/

  /* USER CODE BEGIN MspInit 1 */

  /* USER CODE END MspInit 1 */
}
 800550c:	bf00      	nop
 800550e:	3708      	adds	r7, #8
 8005510:	46bd      	mov	sp, r7
 8005512:	bd80      	pop	{r7, pc}
 8005514:	40021000 	.word	0x40021000

08005518 <HAL_CRC_MspInit>:
  * This function configures the hardware resources used in this example
  * @param hcrc: CRC handle pointer
  * @retval None
  */
void HAL_CRC_MspInit(CRC_HandleTypeDef* hcrc)
{
 8005518:	b480      	push	{r7}
 800551a:	b085      	sub	sp, #20
 800551c:	af00      	add	r7, sp, #0
 800551e:	6078      	str	r0, [r7, #4]
  if(hcrc->Instance==CRC)
 8005520:	687b      	ldr	r3, [r7, #4]
 8005522:	681b      	ldr	r3, [r3, #0]
 8005524:	4a09      	ldr	r2, [pc, #36]	@ (800554c <HAL_CRC_MspInit+0x34>)
 8005526:	4293      	cmp	r3, r2
 8005528:	d10b      	bne.n	8005542 <HAL_CRC_MspInit+0x2a>
  {
    /* USER CODE BEGIN CRC_MspInit 0 */

    /* USER CODE END CRC_MspInit 0 */
    /* Peripheral clock enable */
    __HAL_RCC_CRC_CLK_ENABLE();
 800552a:	4b09      	ldr	r3, [pc, #36]	@ (8005550 <HAL_CRC_MspInit+0x38>)
 800552c:	695b      	ldr	r3, [r3, #20]
 800552e:	4a08      	ldr	r2, [pc, #32]	@ (8005550 <HAL_CRC_MspInit+0x38>)
 8005530:	f043 0340 	orr.w	r3, r3, #64	@ 0x40
 8005534:	6153      	str	r3, [r2, #20]
 8005536:	4b06      	ldr	r3, [pc, #24]	@ (8005550 <HAL_CRC_MspInit+0x38>)
 8005538:	695b      	ldr	r3, [r3, #20]
 800553a:	f003 0340 	and.w	r3, r3, #64	@ 0x40
 800553e:	60fb      	str	r3, [r7, #12]
 8005540:	68fb      	ldr	r3, [r7, #12]

    /* USER CODE END CRC_MspInit 1 */

  }

}
 8005542:	bf00      	nop
 8005544:	3714      	adds	r7, #20
 8005546:	46bd      	mov	sp, r7
 8005548:	bc80      	pop	{r7}
 800554a:	4770      	bx	lr
 800554c:	40023000 	.word	0x40023000
 8005550:	40021000 	.word	0x40021000

08005554 <HAL_UART_MspInit>:
  * This function configures the hardware resources used in this example
  * @param huart: UART handle pointer
  * @retval None
  */
void HAL_UART_MspInit(UART_HandleTypeDef* huart)
{
 8005554:	b580      	push	{r7, lr}
 8005556:	b08c      	sub	sp, #48	@ 0x30
 8005558:	af00      	add	r7, sp, #0
 800555a:	6078      	str	r0, [r7, #4]
  GPIO_InitTypeDef GPIO_InitStruct = {0};
 800555c:	f107 031c 	add.w	r3, r7, #28
 8005560:	2200      	movs	r2, #0
 8005562:	601a      	str	r2, [r3, #0]
 8005564:	605a      	str	r2, [r3, #4]
 8005566:	609a      	str	r2, [r3, #8]
 8005568:	60da      	str	r2, [r3, #12]
 800556a:	611a      	str	r2, [r3, #16]
  if(huart->Instance==USART2)
 800556c:	687b      	ldr	r3, [r7, #4]
 800556e:	681b      	ldr	r3, [r3, #0]
 8005570:	4a2f      	ldr	r2, [pc, #188]	@ (8005630 <HAL_UART_MspInit+0xdc>)
 8005572:	4293      	cmp	r3, r2
 8005574:	d129      	bne.n	80055ca <HAL_UART_MspInit+0x76>
  {
    /* USER CODE BEGIN USART2_MspInit 0 */

    /* USER CODE END USART2_MspInit 0 */
    /* Peripheral clock enable */
    __HAL_RCC_USART2_CLK_ENABLE();
 8005576:	4b2f      	ldr	r3, [pc, #188]	@ (8005634 <HAL_UART_MspInit+0xe0>)
 8005578:	69db      	ldr	r3, [r3, #28]
 800557a:	4a2e      	ldr	r2, [pc, #184]	@ (8005634 <HAL_UART_MspInit+0xe0>)
 800557c:	f443 3300 	orr.w	r3, r3, #131072	@ 0x20000
 8005580:	61d3      	str	r3, [r2, #28]
 8005582:	4b2c      	ldr	r3, [pc, #176]	@ (8005634 <HAL_UART_MspInit+0xe0>)
 8005584:	69db      	ldr	r3, [r3, #28]
 8005586:	f403 3300 	and.w	r3, r3, #131072	@ 0x20000
 800558a:	61bb      	str	r3, [r7, #24]
 800558c:	69bb      	ldr	r3, [r7, #24]

    __HAL_RCC_GPIOA_CLK_ENABLE();
 800558e:	4b29      	ldr	r3, [pc, #164]	@ (8005634 <HAL_UART_MspInit+0xe0>)
 8005590:	695b      	ldr	r3, [r3, #20]
 8005592:	4a28      	ldr	r2, [pc, #160]	@ (8005634 <HAL_UART_MspInit+0xe0>)
 8005594:	f443 3300 	orr.w	r3, r3, #131072	@ 0x20000
 8005598:	6153      	str	r3, [r2, #20]
 800559a:	4b26      	ldr	r3, [pc, #152]	@ (8005634 <HAL_UART_MspInit+0xe0>)
 800559c:	695b      	ldr	r3, [r3, #20]
 800559e:	f403 3300 	and.w	r3, r3, #131072	@ 0x20000
 80055a2:	617b      	str	r3, [r7, #20]
 80055a4:	697b      	ldr	r3, [r7, #20]
    /**USART2 GPIO Configuration
    PA2     ------> USART2_TX
    PA3     ------> USART2_RX
    */
    GPIO_InitStruct.Pin = USART_TX_Pin|USART_RX_Pin;
 80055a6:	230c      	movs	r3, #12
 80055a8:	61fb      	str	r3, [r7, #28]
    GPIO_InitStruct.Mode = GPIO_MODE_AF_PP;
 80055aa:	2302      	movs	r3, #2
 80055ac:	623b      	str	r3, [r7, #32]
    GPIO_InitStruct.Pull = GPIO_NOPULL;
 80055ae:	2300      	movs	r3, #0
 80055b0:	627b      	str	r3, [r7, #36]	@ 0x24
    GPIO_InitStruct.Speed = GPIO_SPEED_FREQ_LOW;
 80055b2:	2300      	movs	r3, #0
 80055b4:	62bb      	str	r3, [r7, #40]	@ 0x28
    GPIO_InitStruct.Alternate = GPIO_AF7_USART2;
 80055b6:	2307      	movs	r3, #7
 80055b8:	62fb      	str	r3, [r7, #44]	@ 0x2c
    HAL_GPIO_Init(GPIOA, &GPIO_InitStruct);
 80055ba:	f107 031c 	add.w	r3, r7, #28
 80055be:	4619      	mov	r1, r3
 80055c0:	f04f 4090 	mov.w	r0, #1207959552	@ 0x48000000
 80055c4:	f000 fcde 	bl	8005f84 <HAL_GPIO_Init>
    /* USER CODE BEGIN USART3_MspInit 1 */

    /* USER CODE END USART3_MspInit 1 */
  }

}
 80055c8:	e02d      	b.n	8005626 <HAL_UART_MspInit+0xd2>
  else if(huart->Instance==USART3)
 80055ca:	687b      	ldr	r3, [r7, #4]
 80055cc:	681b      	ldr	r3, [r3, #0]
 80055ce:	4a1a      	ldr	r2, [pc, #104]	@ (8005638 <HAL_UART_MspInit+0xe4>)
 80055d0:	4293      	cmp	r3, r2
 80055d2:	d128      	bne.n	8005626 <HAL_UART_MspInit+0xd2>
    __HAL_RCC_USART3_CLK_ENABLE();
 80055d4:	4b17      	ldr	r3, [pc, #92]	@ (8005634 <HAL_UART_MspInit+0xe0>)
 80055d6:	69db      	ldr	r3, [r3, #28]
 80055d8:	4a16      	ldr	r2, [pc, #88]	@ (8005634 <HAL_UART_MspInit+0xe0>)
 80055da:	f443 2380 	orr.w	r3, r3, #262144	@ 0x40000
 80055de:	61d3      	str	r3, [r2, #28]
 80055e0:	4b14      	ldr	r3, [pc, #80]	@ (8005634 <HAL_UART_MspInit+0xe0>)
 80055e2:	69db      	ldr	r3, [r3, #28]
 80055e4:	f403 2380 	and.w	r3, r3, #262144	@ 0x40000
 80055e8:	613b      	str	r3, [r7, #16]
 80055ea:	693b      	ldr	r3, [r7, #16]
    __HAL_RCC_GPIOC_CLK_ENABLE();
 80055ec:	4b11      	ldr	r3, [pc, #68]	@ (8005634 <HAL_UART_MspInit+0xe0>)
 80055ee:	695b      	ldr	r3, [r3, #20]
 80055f0:	4a10      	ldr	r2, [pc, #64]	@ (8005634 <HAL_UART_MspInit+0xe0>)
 80055f2:	f443 2300 	orr.w	r3, r3, #524288	@ 0x80000
 80055f6:	6153      	str	r3, [r2, #20]
 80055f8:	4b0e      	ldr	r3, [pc, #56]	@ (8005634 <HAL_UART_MspInit+0xe0>)
 80055fa:	695b      	ldr	r3, [r3, #20]
 80055fc:	f403 2300 	and.w	r3, r3, #524288	@ 0x80000
 8005600:	60fb      	str	r3, [r7, #12]
 8005602:	68fb      	ldr	r3, [r7, #12]
    GPIO_InitStruct.Pin = GPIO_PIN_10|GPIO_PIN_11;
 8005604:	f44f 6340 	mov.w	r3, #3072	@ 0xc00
 8005608:	61fb      	str	r3, [r7, #28]
    GPIO_InitStruct.Mode = GPIO_MODE_AF_PP;
 800560a:	2302      	movs	r3, #2
 800560c:	623b      	str	r3, [r7, #32]
    GPIO_InitStruct.Pull = GPIO_NOPULL;
 800560e:	2300      	movs	r3, #0
 8005610:	627b      	str	r3, [r7, #36]	@ 0x24
    GPIO_InitStruct.Speed = GPIO_SPEED_FREQ_HIGH;
 8005612:	2303      	movs	r3, #3
 8005614:	62bb      	str	r3, [r7, #40]	@ 0x28
    GPIO_InitStruct.Alternate = GPIO_AF7_USART3;
 8005616:	2307      	movs	r3, #7
 8005618:	62fb      	str	r3, [r7, #44]	@ 0x2c
    HAL_GPIO_Init(GPIOC, &GPIO_InitStruct);
 800561a:	f107 031c 	add.w	r3, r7, #28
 800561e:	4619      	mov	r1, r3
 8005620:	4806      	ldr	r0, [pc, #24]	@ (800563c <HAL_UART_MspInit+0xe8>)
 8005622:	f000 fcaf 	bl	8005f84 <HAL_GPIO_Init>
}
 8005626:	bf00      	nop
 8005628:	3730      	adds	r7, #48	@ 0x30
 800562a:	46bd      	mov	sp, r7
 800562c:	bd80      	pop	{r7, pc}
 800562e:	bf00      	nop
 8005630:	40004400 	.word	0x40004400
 8005634:	40021000 	.word	0x40021000
 8005638:	40004800 	.word	0x40004800
 800563c:	48000800 	.word	0x48000800

08005640 <NMI_Handler>:
/******************************************************************************/
/**
  * @brief This function handles Non maskable interrupt.
  */
void NMI_Handler(void)
{
 8005640:	b480      	push	{r7}
 8005642:	af00      	add	r7, sp, #0
  /* USER CODE BEGIN NonMaskableInt_IRQn 0 */

  /* USER CODE END NonMaskableInt_IRQn 0 */
  /* USER CODE BEGIN NonMaskableInt_IRQn 1 */
   while (1)
 8005644:	bf00      	nop
 8005646:	e7fd      	b.n	8005644 <NMI_Handler+0x4>

08005648 <HardFault_Handler>:

/**
  * @brief This function handles Hard fault interrupt.
  */
void HardFault_Handler(void)
{
 8005648:	b480      	push	{r7}
 800564a:	af00      	add	r7, sp, #0
  /* USER CODE BEGIN HardFault_IRQn 0 */

  /* USER CODE END HardFault_IRQn 0 */
  while (1)
 800564c:	bf00      	nop
 800564e:	e7fd      	b.n	800564c <HardFault_Handler+0x4>

08005650 <MemManage_Handler>:

/**
  * @brief This function handles Memory management fault.
  */
void MemManage_Handler(void)
{
 8005650:	b480      	push	{r7}
 8005652:	af00      	add	r7, sp, #0
  /* USER CODE BEGIN MemoryManagement_IRQn 0 */

  /* USER CODE END MemoryManagement_IRQn 0 */
  while (1)
 8005654:	bf00      	nop
 8005656:	e7fd      	b.n	8005654 <MemManage_Handler+0x4>

08005658 <BusFault_Handler>:

/**
  * @brief This function handles Pre-fetch fault, memory access fault.
  */
void BusFault_Handler(void)
{
 8005658:	b480      	push	{r7}
 800565a:	af00      	add	r7, sp, #0
  /* USER CODE BEGIN BusFault_IRQn 0 */

  /* USER CODE END BusFault_IRQn 0 */
  while (1)
 800565c:	bf00      	nop
 800565e:	e7fd      	b.n	800565c <BusFault_Handler+0x4>

08005660 <UsageFault_Handler>:

/**
  * @brief This function handles Undefined instruction or illegal state.
  */
void UsageFault_Handler(void)
{
 8005660:	b480      	push	{r7}
 8005662:	af00      	add	r7, sp, #0
  /* USER CODE BEGIN UsageFault_IRQn 0 */

  /* USER CODE END UsageFault_IRQn 0 */
  while (1)
 8005664:	bf00      	nop
 8005666:	e7fd      	b.n	8005664 <UsageFault_Handler+0x4>

08005668 <SVC_Handler>:

/**
  * @brief This function handles System service call via SWI instruction.
  */
void SVC_Handler(void)
{
 8005668:	b480      	push	{r7}
 800566a:	af00      	add	r7, sp, #0

  /* USER CODE END SVCall_IRQn 0 */
  /* USER CODE BEGIN SVCall_IRQn 1 */

  /* USER CODE END SVCall_IRQn 1 */
}
 800566c:	bf00      	nop
 800566e:	46bd      	mov	sp, r7
 8005670:	bc80      	pop	{r7}
 8005672:	4770      	bx	lr

08005674 <DebugMon_Handler>:

/**
  * @brief This function handles Debug monitor.
  */
void DebugMon_Handler(void)
{
 8005674:	b480      	push	{r7}
 8005676:	af00      	add	r7, sp, #0

  /* USER CODE END DebugMonitor_IRQn 0 */
  /* USER CODE BEGIN DebugMonitor_IRQn 1 */

  /* USER CODE END DebugMonitor_IRQn 1 */
}
 8005678:	bf00      	nop
 800567a:	46bd      	mov	sp, r7
 800567c:	bc80      	pop	{r7}
 800567e:	4770      	bx	lr

08005680 <PendSV_Handler>:

/**
  * @brief This function handles Pendable request for system service.
  */
void PendSV_Handler(void)
{
 8005680:	b480      	push	{r7}
 8005682:	af00      	add	r7, sp, #0

  /* USER CODE END PendSV_IRQn 0 */
  /* USER CODE BEGIN PendSV_IRQn 1 */

  /* USER CODE END PendSV_IRQn 1 */
}
 8005684:	bf00      	nop
 8005686:	46bd      	mov	sp, r7
 8005688:	bc80      	pop	{r7}
 800568a:	4770      	bx	lr

0800568c <SysTick_Handler>:

/**
  * @brief This function handles System tick timer.
  */
void SysTick_Handler(void)
{
 800568c:	b580      	push	{r7, lr}
 800568e:	af00      	add	r7, sp, #0
  /* USER CODE BEGIN SysTick_IRQn 0 */

  /* USER CODE END SysTick_IRQn 0 */
  HAL_IncTick();
 8005690:	f000 f8ae 	bl	80057f0 <HAL_IncTick>
  /* USER CODE BEGIN SysTick_IRQn 1 */

  /* USER CODE END SysTick_IRQn 1 */
}
 8005694:	bf00      	nop
 8005696:	bd80      	pop	{r7, pc}

08005698 <_sbrk>:
 *
 * @param incr Memory size
 * @return Pointer to allocated memory
 */
void *_sbrk(ptrdiff_t incr)
{
 8005698:	b580      	push	{r7, lr}
 800569a:	b086      	sub	sp, #24
 800569c:	af00      	add	r7, sp, #0
 800569e:	6078      	str	r0, [r7, #4]
  extern uint8_t _end; /* Symbol defined in the linker script */
  extern uint8_t _estack; /* Symbol defined in the linker script */
  extern uint32_t _Min_Stack_Size; /* Symbol defined in the linker script */
  const uint32_t stack_limit = (uint32_t)&_estack - (uint32_t)&_Min_Stack_Size;
 80056a0:	4a14      	ldr	r2, [pc, #80]	@ (80056f4 <_sbrk+0x5c>)
 80056a2:	4b15      	ldr	r3, [pc, #84]	@ (80056f8 <_sbrk+0x60>)
 80056a4:	1ad3      	subs	r3, r2, r3
 80056a6:	617b      	str	r3, [r7, #20]
  const uint8_t *max_heap = (uint8_t *)stack_limit;
 80056a8:	697b      	ldr	r3, [r7, #20]
 80056aa:	613b      	str	r3, [r7, #16]
  uint8_t *prev_heap_end;

  /* Initialize heap end at first call */
  if (NULL == __sbrk_heap_end)
 80056ac:	4b13      	ldr	r3, [pc, #76]	@ (80056fc <_sbrk+0x64>)
 80056ae:	681b      	ldr	r3, [r3, #0]
 80056b0:	2b00      	cmp	r3, #0
 80056b2:	d102      	bne.n	80056ba <_sbrk+0x22>
  {
    __sbrk_heap_end = &_end;
 80056b4:	4b11      	ldr	r3, [pc, #68]	@ (80056fc <_sbrk+0x64>)
 80056b6:	4a12      	ldr	r2, [pc, #72]	@ (8005700 <_sbrk+0x68>)
 80056b8:	601a      	str	r2, [r3, #0]
  }

  /* Protect heap from growing into the reserved MSP stack */
  if (__sbrk_heap_end + incr > max_heap)
 80056ba:	4b10      	ldr	r3, [pc, #64]	@ (80056fc <_sbrk+0x64>)
 80056bc:	681a      	ldr	r2, [r3, #0]
 80056be:	687b      	ldr	r3, [r7, #4]
 80056c0:	4413      	add	r3, r2
 80056c2:	693a      	ldr	r2, [r7, #16]
 80056c4:	429a      	cmp	r2, r3
 80056c6:	d207      	bcs.n	80056d8 <_sbrk+0x40>
  {
    errno = ENOMEM;
 80056c8:	f003 f81a 	bl	8008700 <__errno>
 80056cc:	4603      	mov	r3, r0
 80056ce:	220c      	movs	r2, #12
 80056d0:	601a      	str	r2, [r3, #0]
    return (void *)-1;
 80056d2:	f04f 33ff 	mov.w	r3, #4294967295
 80056d6:	e009      	b.n	80056ec <_sbrk+0x54>
  }

  prev_heap_end = __sbrk_heap_end;
 80056d8:	4b08      	ldr	r3, [pc, #32]	@ (80056fc <_sbrk+0x64>)
 80056da:	681b      	ldr	r3, [r3, #0]
 80056dc:	60fb      	str	r3, [r7, #12]
  __sbrk_heap_end += incr;
 80056de:	4b07      	ldr	r3, [pc, #28]	@ (80056fc <_sbrk+0x64>)
 80056e0:	681a      	ldr	r2, [r3, #0]
 80056e2:	687b      	ldr	r3, [r7, #4]
 80056e4:	4413      	add	r3, r2
 80056e6:	4a05      	ldr	r2, [pc, #20]	@ (80056fc <_sbrk+0x64>)
 80056e8:	6013      	str	r3, [r2, #0]

  return (void *)prev_heap_end;
 80056ea:	68fb      	ldr	r3, [r7, #12]
}
 80056ec:	4618      	mov	r0, r3
 80056ee:	3718      	adds	r7, #24
 80056f0:	46bd      	mov	sp, r7
 80056f2:	bd80      	pop	{r7, pc}
 80056f4:	20010000 	.word	0x20010000
 80056f8:	00001000 	.word	0x00001000
 80056fc:	20000a48 	.word	0x20000a48
 8005700:	20000bb8 	.word	0x20000bb8

08005704 <SystemInit>:
  * @brief  Setup the microcontroller system
  * @param  None
  * @retval None
  */
void SystemInit(void)
{
 8005704:	b480      	push	{r7}
 8005706:	af00      	add	r7, sp, #0

  /* Configure the Vector Table location -------------------------------------*/
#if defined(USER_VECT_TAB_ADDRESS)
  SCB->VTOR = VECT_TAB_BASE_ADDRESS | VECT_TAB_OFFSET; /* Vector Table Relocation in Internal SRAM */
#endif /* USER_VECT_TAB_ADDRESS */
}
 8005708:	bf00      	nop
 800570a:	46bd      	mov	sp, r7
 800570c:	bc80      	pop	{r7}
 800570e:	4770      	bx	lr

08005710 <Reset_Handler>:

    .section	.text.Reset_Handler
	.weak	Reset_Handler
	.type	Reset_Handler, %function
Reset_Handler:
  ldr   sp, =_estack    /* Atollic update: set stack pointer */
 8005710:	f8df d034 	ldr.w	sp, [pc, #52]	@ 8005748 <LoopForever+0x2>
  
/* Call the clock system initialization function.*/
    bl  SystemInit
 8005714:	f7ff fff6 	bl	8005704 <SystemInit>

/* Copy the data segment initializers from flash to SRAM */
  ldr r0, =_sdata
 8005718:	480c      	ldr	r0, [pc, #48]	@ (800574c <LoopForever+0x6>)
  ldr r1, =_edata
 800571a:	490d      	ldr	r1, [pc, #52]	@ (8005750 <LoopForever+0xa>)
  ldr r2, =_sidata
 800571c:	4a0d      	ldr	r2, [pc, #52]	@ (8005754 <LoopForever+0xe>)
  movs r3, #0
 800571e:	2300      	movs	r3, #0
  b LoopCopyDataInit
 8005720:	e002      	b.n	8005728 <LoopCopyDataInit>

08005722 <CopyDataInit>:

CopyDataInit:
  ldr r4, [r2, r3]
 8005722:	58d4      	ldr	r4, [r2, r3]
  str r4, [r0, r3]
 8005724:	50c4      	str	r4, [r0, r3]
  adds r3, r3, #4
 8005726:	3304      	adds	r3, #4

08005728 <LoopCopyDataInit>:

LoopCopyDataInit:
  adds r4, r0, r3
 8005728:	18c4      	adds	r4, r0, r3
  cmp r4, r1
 800572a:	428c      	cmp	r4, r1
  bcc CopyDataInit
 800572c:	d3f9      	bcc.n	8005722 <CopyDataInit>
  
/* Zero fill the bss segment. */
  ldr r2, =_sbss
 800572e:	4a0a      	ldr	r2, [pc, #40]	@ (8005758 <LoopForever+0x12>)
  ldr r4, =_ebss
 8005730:	4c0a      	ldr	r4, [pc, #40]	@ (800575c <LoopForever+0x16>)
  movs r3, #0
 8005732:	2300      	movs	r3, #0
  b LoopFillZerobss
 8005734:	e001      	b.n	800573a <LoopFillZerobss>

08005736 <FillZerobss>:

FillZerobss:
  str  r3, [r2]
 8005736:	6013      	str	r3, [r2, #0]
  adds r2, r2, #4
 8005738:	3204      	adds	r2, #4

0800573a <LoopFillZerobss>:

LoopFillZerobss:
  cmp r2, r4
 800573a:	42a2      	cmp	r2, r4
  bcc FillZerobss
 800573c:	d3fb      	bcc.n	8005736 <FillZerobss>

/* Call static constructors */
    bl __libc_init_array
 800573e:	f002 ffe5 	bl	800870c <__libc_init_array>
/* Call the application's entry point.*/
	bl	main
 8005742:	f7ff fac5 	bl	8004cd0 <main>

08005746 <LoopForever>:

LoopForever:
    b LoopForever
 8005746:	e7fe      	b.n	8005746 <LoopForever>
  ldr   sp, =_estack    /* Atollic update: set stack pointer */
 8005748:	20010000 	.word	0x20010000
  ldr r0, =_sdata
 800574c:	20000000 	.word	0x20000000
  ldr r1, =_edata
 8005750:	2000009c 	.word	0x2000009c
  ldr r2, =_sidata
 8005754:	080098f4 	.word	0x080098f4
  ldr r2, =_sbss
 8005758:	200000a0 	.word	0x200000a0
  ldr r4, =_ebss
 800575c:	20000bb8 	.word	0x20000bb8

08005760 <ADC1_2_IRQHandler>:
 * @retval : None
*/
    .section	.text.Default_Handler,"ax",%progbits
Default_Handler:
Infinite_Loop:
	b	Infinite_Loop
 8005760:	e7fe      	b.n	8005760 <ADC1_2_IRQHandler>
	...

08005764 <HAL_Init>:
  *         In the default implementation,Systick is used as source of time base.
  *       The tick variable is incremented each 1ms in its ISR.
  * @retval HAL status
  */
HAL_StatusTypeDef HAL_Init(void)
{
 8005764:	b580      	push	{r7, lr}
 8005766:	af00      	add	r7, sp, #0
  /* Configure Flash prefetch */
#if (PREFETCH_ENABLE != 0U)
  __HAL_FLASH_PREFETCH_BUFFER_ENABLE();
 8005768:	4b08      	ldr	r3, [pc, #32]	@ (800578c <HAL_Init+0x28>)
 800576a:	681b      	ldr	r3, [r3, #0]
 800576c:	4a07      	ldr	r2, [pc, #28]	@ (800578c <HAL_Init+0x28>)
 800576e:	f043 0310 	orr.w	r3, r3, #16
 8005772:	6013      	str	r3, [r2, #0]
#endif /* PREFETCH_ENABLE */

  /* Set Interrupt Group Priority */
  HAL_NVIC_SetPriorityGrouping(NVIC_PRIORITYGROUP_4);
 8005774:	2003      	movs	r0, #3
 8005776:	f000 f907 	bl	8005988 <HAL_NVIC_SetPriorityGrouping>

  /* Enable systick and configure 1ms tick (default clock after Reset is HSI) */
  HAL_InitTick(TICK_INT_PRIORITY);
 800577a:	2000      	movs	r0, #0
 800577c:	f000 f808 	bl	8005790 <HAL_InitTick>

  /* Init the low level hardware */
  HAL_MspInit();
 8005780:	f7ff fea6 	bl	80054d0 <HAL_MspInit>

  /* Return function status */
  return HAL_OK;
 8005784:	2300      	movs	r3, #0
}
 8005786:	4618      	mov	r0, r3
 8005788:	bd80      	pop	{r7, pc}
 800578a:	bf00      	nop
 800578c:	40022000 	.word	0x40022000

08005790 <HAL_InitTick>:
  *         implementation  in user file.
  * @param TickPriority Tick interrupt priority.
  * @retval HAL status
  */
__weak HAL_StatusTypeDef HAL_InitTick(uint32_t TickPriority)
{
 8005790:	b580      	push	{r7, lr}
 8005792:	b082      	sub	sp, #8
 8005794:	af00      	add	r7, sp, #0
 8005796:	6078      	str	r0, [r7, #4]
  /* Configure the SysTick to have interrupt in 1ms time basis*/
  if (HAL_SYSTICK_Config(SystemCoreClock / (1000U / uwTickFreq)) > 0U)
 8005798:	4b12      	ldr	r3, [pc, #72]	@ (80057e4 <HAL_InitTick+0x54>)
 800579a:	681a      	ldr	r2, [r3, #0]
 800579c:	4b12      	ldr	r3, [pc, #72]	@ (80057e8 <HAL_InitTick+0x58>)
 800579e:	781b      	ldrb	r3, [r3, #0]
 80057a0:	4619      	mov	r1, r3
 80057a2:	f44f 737a 	mov.w	r3, #1000	@ 0x3e8
 80057a6:	fbb3 f3f1 	udiv	r3, r3, r1
 80057aa:	fbb2 f3f3 	udiv	r3, r2, r3
 80057ae:	4618      	mov	r0, r3
 80057b0:	f000 f911 	bl	80059d6 <HAL_SYSTICK_Config>
 80057b4:	4603      	mov	r3, r0
 80057b6:	2b00      	cmp	r3, #0
 80057b8:	d001      	beq.n	80057be <HAL_InitTick+0x2e>
  {
    return HAL_ERROR;
 80057ba:	2301      	movs	r3, #1
 80057bc:	e00e      	b.n	80057dc <HAL_InitTick+0x4c>
  }

  /* Configure the SysTick IRQ priority */
  if (TickPriority < (1UL << __NVIC_PRIO_BITS))
 80057be:	687b      	ldr	r3, [r7, #4]
 80057c0:	2b0f      	cmp	r3, #15
 80057c2:	d80a      	bhi.n	80057da <HAL_InitTick+0x4a>
  {
    HAL_NVIC_SetPriority(SysTick_IRQn, TickPriority, 0U);
 80057c4:	2200      	movs	r2, #0
 80057c6:	6879      	ldr	r1, [r7, #4]
 80057c8:	f04f 30ff 	mov.w	r0, #4294967295
 80057cc:	f000 f8e7 	bl	800599e <HAL_NVIC_SetPriority>
    uwTickPrio = TickPriority;
 80057d0:	4a06      	ldr	r2, [pc, #24]	@ (80057ec <HAL_InitTick+0x5c>)
 80057d2:	687b      	ldr	r3, [r7, #4]
 80057d4:	6013      	str	r3, [r2, #0]
  else
  {
    return HAL_ERROR;
  }
   /* Return function status */
  return HAL_OK;
 80057d6:	2300      	movs	r3, #0
 80057d8:	e000      	b.n	80057dc <HAL_InitTick+0x4c>
    return HAL_ERROR;
 80057da:	2301      	movs	r3, #1
}
 80057dc:	4618      	mov	r0, r3
 80057de:	3708      	adds	r7, #8
 80057e0:	46bd      	mov	sp, r7
 80057e2:	bd80      	pop	{r7, pc}
 80057e4:	20000040 	.word	0x20000040
 80057e8:	20000048 	.word	0x20000048
 80057ec:	20000044 	.word	0x20000044

080057f0 <HAL_IncTick>:
  * @note This function is declared as __weak to be overwritten in case of other 
  *         implementations  in user file.
  * @retval None
  */
__weak void HAL_IncTick(void)
{
 80057f0:	b480      	push	{r7}
 80057f2:	af00      	add	r7, sp, #0
  uwTick += uwTickFreq;
 80057f4:	4b05      	ldr	r3, [pc, #20]	@ (800580c <HAL_IncTick+0x1c>)
 80057f6:	781b      	ldrb	r3, [r3, #0]
 80057f8:	461a      	mov	r2, r3
 80057fa:	4b05      	ldr	r3, [pc, #20]	@ (8005810 <HAL_IncTick+0x20>)
 80057fc:	681b      	ldr	r3, [r3, #0]
 80057fe:	4413      	add	r3, r2
 8005800:	4a03      	ldr	r2, [pc, #12]	@ (8005810 <HAL_IncTick+0x20>)
 8005802:	6013      	str	r3, [r2, #0]
}
 8005804:	bf00      	nop
 8005806:	46bd      	mov	sp, r7
 8005808:	bc80      	pop	{r7}
 800580a:	4770      	bx	lr
 800580c:	20000048 	.word	0x20000048
 8005810:	20000a4c 	.word	0x20000a4c

08005814 <HAL_GetTick>:
  * @note   The function is declared as __Weak  to be overwritten  in case of other 
  *         implementations  in user file.
  * @retval tick value
  */
__weak uint32_t HAL_GetTick(void)
{
 8005814:	b480      	push	{r7}
 8005816:	af00      	add	r7, sp, #0
  return uwTick;  
 8005818:	4b02      	ldr	r3, [pc, #8]	@ (8005824 <HAL_GetTick+0x10>)
 800581a:	681b      	ldr	r3, [r3, #0]
}
 800581c:	4618      	mov	r0, r3
 800581e:	46bd      	mov	sp, r7
 8005820:	bc80      	pop	{r7}
 8005822:	4770      	bx	lr
 8005824:	20000a4c 	.word	0x20000a4c

08005828 <__NVIC_SetPriorityGrouping>:
           In case of a conflict between priority grouping and available
           priority bits (__NVIC_PRIO_BITS), the smallest possible priority group is set.
  \param [in]      PriorityGroup  Priority grouping field.
 */
__STATIC_INLINE void __NVIC_SetPriorityGrouping(uint32_t PriorityGroup)
{
 8005828:	b480      	push	{r7}
 800582a:	b085      	sub	sp, #20
 800582c:	af00      	add	r7, sp, #0
 800582e:	6078      	str	r0, [r7, #4]
  uint32_t reg_value;
  uint32_t PriorityGroupTmp = (PriorityGroup & (uint32_t)0x07UL);             /* only values 0..7 are used          */
 8005830:	687b      	ldr	r3, [r7, #4]
 8005832:	f003 0307 	and.w	r3, r3, #7
 8005836:	60fb      	str	r3, [r7, #12]

  reg_value  =  SCB->AIRCR;                                                   /* read old register configuration    */
 8005838:	4b0c      	ldr	r3, [pc, #48]	@ (800586c <__NVIC_SetPriorityGrouping+0x44>)
 800583a:	68db      	ldr	r3, [r3, #12]
 800583c:	60bb      	str	r3, [r7, #8]
  reg_value &= ~((uint32_t)(SCB_AIRCR_VECTKEY_Msk | SCB_AIRCR_PRIGROUP_Msk)); /* clear bits to change               */
 800583e:	68ba      	ldr	r2, [r7, #8]
 8005840:	f64f 03ff 	movw	r3, #63743	@ 0xf8ff
 8005844:	4013      	ands	r3, r2
 8005846:	60bb      	str	r3, [r7, #8]
  reg_value  =  (reg_value                                   |
                ((uint32_t)0x5FAUL << SCB_AIRCR_VECTKEY_Pos) |
                (PriorityGroupTmp << SCB_AIRCR_PRIGROUP_Pos)  );              /* Insert write key and priority group */
 8005848:	68fb      	ldr	r3, [r7, #12]
 800584a:	021a      	lsls	r2, r3, #8
                ((uint32_t)0x5FAUL << SCB_AIRCR_VECTKEY_Pos) |
 800584c:	68bb      	ldr	r3, [r7, #8]
 800584e:	4313      	orrs	r3, r2
  reg_value  =  (reg_value                                   |
 8005850:	f043 63bf 	orr.w	r3, r3, #100139008	@ 0x5f80000
 8005854:	f443 3300 	orr.w	r3, r3, #131072	@ 0x20000
 8005858:	60bb      	str	r3, [r7, #8]
  SCB->AIRCR =  reg_value;
 800585a:	4a04      	ldr	r2, [pc, #16]	@ (800586c <__NVIC_SetPriorityGrouping+0x44>)
 800585c:	68bb      	ldr	r3, [r7, #8]
 800585e:	60d3      	str	r3, [r2, #12]
}
 8005860:	bf00      	nop
 8005862:	3714      	adds	r7, #20
 8005864:	46bd      	mov	sp, r7
 8005866:	bc80      	pop	{r7}
 8005868:	4770      	bx	lr
 800586a:	bf00      	nop
 800586c:	e000ed00 	.word	0xe000ed00

08005870 <__NVIC_GetPriorityGrouping>:
  \brief   Get Priority Grouping
  \details Reads the priority grouping field from the NVIC Interrupt Controller.
  \return                Priority grouping field (SCB->AIRCR [10:8] PRIGROUP field).
 */
__STATIC_INLINE uint32_t __NVIC_GetPriorityGrouping(void)
{
 8005870:	b480      	push	{r7}
 8005872:	af00      	add	r7, sp, #0
  return ((uint32_t)((SCB->AIRCR & SCB_AIRCR_PRIGROUP_Msk) >> SCB_AIRCR_PRIGROUP_Pos));
 8005874:	4b04      	ldr	r3, [pc, #16]	@ (8005888 <__NVIC_GetPriorityGrouping+0x18>)
 8005876:	68db      	ldr	r3, [r3, #12]
 8005878:	0a1b      	lsrs	r3, r3, #8
 800587a:	f003 0307 	and.w	r3, r3, #7
}
 800587e:	4618      	mov	r0, r3
 8005880:	46bd      	mov	sp, r7
 8005882:	bc80      	pop	{r7}
 8005884:	4770      	bx	lr
 8005886:	bf00      	nop
 8005888:	e000ed00 	.word	0xe000ed00

0800588c <__NVIC_SetPriority>:
  \param [in]      IRQn  Interrupt number.
  \param [in]  priority  Priority to set.
  \note    The priority cannot be set for every processor exception.
 */
__STATIC_INLINE void __NVIC_SetPriority(IRQn_Type IRQn, uint32_t priority)
{
 800588c:	b480      	push	{r7}
 800588e:	b083      	sub	sp, #12
 8005890:	af00      	add	r7, sp, #0
 8005892:	4603      	mov	r3, r0
 8005894:	6039      	str	r1, [r7, #0]
 8005896:	71fb      	strb	r3, [r7, #7]
  if ((int32_t)(IRQn) >= 0)
 8005898:	f997 3007 	ldrsb.w	r3, [r7, #7]
 800589c:	2b00      	cmp	r3, #0
 800589e:	db0a      	blt.n	80058b6 <__NVIC_SetPriority+0x2a>
  {
    NVIC->IP[((uint32_t)IRQn)]               = (uint8_t)((priority << (8U - __NVIC_PRIO_BITS)) & (uint32_t)0xFFUL);
 80058a0:	683b      	ldr	r3, [r7, #0]
 80058a2:	b2da      	uxtb	r2, r3
 80058a4:	490c      	ldr	r1, [pc, #48]	@ (80058d8 <__NVIC_SetPriority+0x4c>)
 80058a6:	f997 3007 	ldrsb.w	r3, [r7, #7]
 80058aa:	0112      	lsls	r2, r2, #4
 80058ac:	b2d2      	uxtb	r2, r2
 80058ae:	440b      	add	r3, r1
 80058b0:	f883 2300 	strb.w	r2, [r3, #768]	@ 0x300
  }
  else
  {
    SCB->SHP[(((uint32_t)IRQn) & 0xFUL)-4UL] = (uint8_t)((priority << (8U - __NVIC_PRIO_BITS)) & (uint32_t)0xFFUL);
  }
}
 80058b4:	e00a      	b.n	80058cc <__NVIC_SetPriority+0x40>
    SCB->SHP[(((uint32_t)IRQn) & 0xFUL)-4UL] = (uint8_t)((priority << (8U - __NVIC_PRIO_BITS)) & (uint32_t)0xFFUL);
 80058b6:	683b      	ldr	r3, [r7, #0]
 80058b8:	b2da      	uxtb	r2, r3
 80058ba:	4908      	ldr	r1, [pc, #32]	@ (80058dc <__NVIC_SetPriority+0x50>)
 80058bc:	79fb      	ldrb	r3, [r7, #7]
 80058be:	f003 030f 	and.w	r3, r3, #15
 80058c2:	3b04      	subs	r3, #4
 80058c4:	0112      	lsls	r2, r2, #4
 80058c6:	b2d2      	uxtb	r2, r2
 80058c8:	440b      	add	r3, r1
 80058ca:	761a      	strb	r2, [r3, #24]
}
 80058cc:	bf00      	nop
 80058ce:	370c      	adds	r7, #12
 80058d0:	46bd      	mov	sp, r7
 80058d2:	bc80      	pop	{r7}
 80058d4:	4770      	bx	lr
 80058d6:	bf00      	nop
 80058d8:	e000e100 	.word	0xe000e100
 80058dc:	e000ed00 	.word	0xe000ed00

080058e0 <NVIC_EncodePriority>:
  \param [in]   PreemptPriority  Preemptive priority value (starting from 0).
  \param [in]       SubPriority  Subpriority value (starting from 0).
  \return                        Encoded priority. Value can be used in the function \ref NVIC_SetPriority().
 */
__STATIC_INLINE uint32_t NVIC_EncodePriority (uint32_t PriorityGroup, uint32_t PreemptPriority, uint32_t SubPriority)
{
 80058e0:	b480      	push	{r7}
 80058e2:	b089      	sub	sp, #36	@ 0x24
 80058e4:	af00      	add	r7, sp, #0
 80058e6:	60f8      	str	r0, [r7, #12]
 80058e8:	60b9      	str	r1, [r7, #8]
 80058ea:	607a      	str	r2, [r7, #4]
  uint32_t PriorityGroupTmp = (PriorityGroup & (uint32_t)0x07UL);   /* only values 0..7 are used          */
 80058ec:	68fb      	ldr	r3, [r7, #12]
 80058ee:	f003 0307 	and.w	r3, r3, #7
 80058f2:	61fb      	str	r3, [r7, #28]
  uint32_t PreemptPriorityBits;
  uint32_t SubPriorityBits;

  PreemptPriorityBits = ((7UL - PriorityGroupTmp) > (uint32_t)(__NVIC_PRIO_BITS)) ? (uint32_t)(__NVIC_PRIO_BITS) : (uint32_t)(7UL - PriorityGroupTmp);
 80058f4:	69fb      	ldr	r3, [r7, #28]
 80058f6:	f1c3 0307 	rsb	r3, r3, #7
 80058fa:	2b04      	cmp	r3, #4
 80058fc:	bf28      	it	cs
 80058fe:	2304      	movcs	r3, #4
 8005900:	61bb      	str	r3, [r7, #24]
  SubPriorityBits     = ((PriorityGroupTmp + (uint32_t)(__NVIC_PRIO_BITS)) < (uint32_t)7UL) ? (uint32_t)0UL : (uint32_t)((PriorityGroupTmp - 7UL) + (uint32_t)(__NVIC_PRIO_BITS));
 8005902:	69fb      	ldr	r3, [r7, #28]
 8005904:	3304      	adds	r3, #4
 8005906:	2b06      	cmp	r3, #6
 8005908:	d902      	bls.n	8005910 <NVIC_EncodePriority+0x30>
 800590a:	69fb      	ldr	r3, [r7, #28]
 800590c:	3b03      	subs	r3, #3
 800590e:	e000      	b.n	8005912 <NVIC_EncodePriority+0x32>
 8005910:	2300      	movs	r3, #0
 8005912:	617b      	str	r3, [r7, #20]

  return (
           ((PreemptPriority & (uint32_t)((1UL << (PreemptPriorityBits)) - 1UL)) << SubPriorityBits) |
 8005914:	f04f 32ff 	mov.w	r2, #4294967295
 8005918:	69bb      	ldr	r3, [r7, #24]
 800591a:	fa02 f303 	lsl.w	r3, r2, r3
 800591e:	43da      	mvns	r2, r3
 8005920:	68bb      	ldr	r3, [r7, #8]
 8005922:	401a      	ands	r2, r3
 8005924:	697b      	ldr	r3, [r7, #20]
 8005926:	409a      	lsls	r2, r3
           ((SubPriority     & (uint32_t)((1UL << (SubPriorityBits    )) - 1UL)))
 8005928:	f04f 31ff 	mov.w	r1, #4294967295
 800592c:	697b      	ldr	r3, [r7, #20]
 800592e:	fa01 f303 	lsl.w	r3, r1, r3
 8005932:	43d9      	mvns	r1, r3
 8005934:	687b      	ldr	r3, [r7, #4]
 8005936:	400b      	ands	r3, r1
           ((PreemptPriority & (uint32_t)((1UL << (PreemptPriorityBits)) - 1UL)) << SubPriorityBits) |
 8005938:	4313      	orrs	r3, r2
         );
}
 800593a:	4618      	mov	r0, r3
 800593c:	3724      	adds	r7, #36	@ 0x24
 800593e:	46bd      	mov	sp, r7
 8005940:	bc80      	pop	{r7}
 8005942:	4770      	bx	lr

08005944 <SysTick_Config>:
  \note    When the variable <b>__Vendor_SysTickConfig</b> is set to 1, then the
           function <b>SysTick_Config</b> is not included. In this case, the file <b><i>device</i>.h</b>
           must contain a vendor-specific implementation of this function.
 */
__STATIC_INLINE uint32_t SysTick_Config(uint32_t ticks)
{
 8005944:	b580      	push	{r7, lr}
 8005946:	b082      	sub	sp, #8
 8005948:	af00      	add	r7, sp, #0
 800594a:	6078      	str	r0, [r7, #4]
  if ((ticks - 1UL) > SysTick_LOAD_RELOAD_Msk)
 800594c:	687b      	ldr	r3, [r7, #4]
 800594e:	3b01      	subs	r3, #1
 8005950:	f1b3 7f80 	cmp.w	r3, #16777216	@ 0x1000000
 8005954:	d301      	bcc.n	800595a <SysTick_Config+0x16>
  {
    return (1UL);                                                   /* Reload value impossible */
 8005956:	2301      	movs	r3, #1
 8005958:	e00f      	b.n	800597a <SysTick_Config+0x36>
  }

  SysTick->LOAD  = (uint32_t)(ticks - 1UL);                         /* set reload register */
 800595a:	4a0a      	ldr	r2, [pc, #40]	@ (8005984 <SysTick_Config+0x40>)
 800595c:	687b      	ldr	r3, [r7, #4]
 800595e:	3b01      	subs	r3, #1
 8005960:	6053      	str	r3, [r2, #4]
  NVIC_SetPriority (SysTick_IRQn, (1UL << __NVIC_PRIO_BITS) - 1UL); /* set Priority for Systick Interrupt */
 8005962:	210f      	movs	r1, #15
 8005964:	f04f 30ff 	mov.w	r0, #4294967295
 8005968:	f7ff ff90 	bl	800588c <__NVIC_SetPriority>
  SysTick->VAL   = 0UL;                                             /* Load the SysTick Counter Value */
 800596c:	4b05      	ldr	r3, [pc, #20]	@ (8005984 <SysTick_Config+0x40>)
 800596e:	2200      	movs	r2, #0
 8005970:	609a      	str	r2, [r3, #8]
  SysTick->CTRL  = SysTick_CTRL_CLKSOURCE_Msk |
 8005972:	4b04      	ldr	r3, [pc, #16]	@ (8005984 <SysTick_Config+0x40>)
 8005974:	2207      	movs	r2, #7
 8005976:	601a      	str	r2, [r3, #0]
                   SysTick_CTRL_TICKINT_Msk   |
                   SysTick_CTRL_ENABLE_Msk;                         /* Enable SysTick IRQ and SysTick Timer */
  return (0UL);                                                     /* Function successful */
 8005978:	2300      	movs	r3, #0
}
 800597a:	4618      	mov	r0, r3
 800597c:	3708      	adds	r7, #8
 800597e:	46bd      	mov	sp, r7
 8005980:	bd80      	pop	{r7, pc}
 8005982:	bf00      	nop
 8005984:	e000e010 	.word	0xe000e010

08005988 <HAL_NVIC_SetPriorityGrouping>:
  * @note   When the NVIC_PriorityGroup_0 is selected, IRQ pre-emption is no more possible.
  *         The pending IRQ priority will be managed only by the subpriority.
  * @retval None
  */
void HAL_NVIC_SetPriorityGrouping(uint32_t PriorityGroup)
{
 8005988:	b580      	push	{r7, lr}
 800598a:	b082      	sub	sp, #8
 800598c:	af00      	add	r7, sp, #0
 800598e:	6078      	str	r0, [r7, #4]
  /* Check the parameters */
  assert_param(IS_NVIC_PRIORITY_GROUP(PriorityGroup));

  /* Set the PRIGROUP[10:8] bits according to the PriorityGroup parameter value */
  NVIC_SetPriorityGrouping(PriorityGroup);
 8005990:	6878      	ldr	r0, [r7, #4]
 8005992:	f7ff ff49 	bl	8005828 <__NVIC_SetPriorityGrouping>
}
 8005996:	bf00      	nop
 8005998:	3708      	adds	r7, #8
 800599a:	46bd      	mov	sp, r7
 800599c:	bd80      	pop	{r7, pc}

0800599e <HAL_NVIC_SetPriority>:
  *         This parameter can be a value between 0 and 15 as described in the table CORTEX_NVIC_Priority_Table
  *         A lower priority value indicates a higher priority.
  * @retval None
  */
void HAL_NVIC_SetPriority(IRQn_Type IRQn, uint32_t PreemptPriority, uint32_t SubPriority)
{
 800599e:	b580      	push	{r7, lr}
 80059a0:	b086      	sub	sp, #24
 80059a2:	af00      	add	r7, sp, #0
 80059a4:	4603      	mov	r3, r0
 80059a6:	60b9      	str	r1, [r7, #8]
 80059a8:	607a      	str	r2, [r7, #4]
 80059aa:	73fb      	strb	r3, [r7, #15]
  uint32_t prioritygroup = 0x00U;
 80059ac:	2300      	movs	r3, #0
 80059ae:	617b      	str	r3, [r7, #20]
  
  /* Check the parameters */
  assert_param(IS_NVIC_SUB_PRIORITY(SubPriority));
  assert_param(IS_NVIC_PREEMPTION_PRIORITY(PreemptPriority));
  
  prioritygroup = NVIC_GetPriorityGrouping();
 80059b0:	f7ff ff5e 	bl	8005870 <__NVIC_GetPriorityGrouping>
 80059b4:	6178      	str	r0, [r7, #20]
  
  NVIC_SetPriority(IRQn, NVIC_EncodePriority(prioritygroup, PreemptPriority, SubPriority));
 80059b6:	687a      	ldr	r2, [r7, #4]
 80059b8:	68b9      	ldr	r1, [r7, #8]
 80059ba:	6978      	ldr	r0, [r7, #20]
 80059bc:	f7ff ff90 	bl	80058e0 <NVIC_EncodePriority>
 80059c0:	4602      	mov	r2, r0
 80059c2:	f997 300f 	ldrsb.w	r3, [r7, #15]
 80059c6:	4611      	mov	r1, r2
 80059c8:	4618      	mov	r0, r3
 80059ca:	f7ff ff5f 	bl	800588c <__NVIC_SetPriority>
}
 80059ce:	bf00      	nop
 80059d0:	3718      	adds	r7, #24
 80059d2:	46bd      	mov	sp, r7
 80059d4:	bd80      	pop	{r7, pc}

080059d6 <HAL_SYSTICK_Config>:
  * @param  TicksNumb Specifies the ticks Number of ticks between two interrupts.
  * @retval status:  - 0  Function succeeded.
  *                  - 1  Function failed.
  */
uint32_t HAL_SYSTICK_Config(uint32_t TicksNumb)
{
 80059d6:	b580      	push	{r7, lr}
 80059d8:	b082      	sub	sp, #8
 80059da:	af00      	add	r7, sp, #0
 80059dc:	6078      	str	r0, [r7, #4]
   return SysTick_Config(TicksNumb);
 80059de:	6878      	ldr	r0, [r7, #4]
 80059e0:	f7ff ffb0 	bl	8005944 <SysTick_Config>
 80059e4:	4603      	mov	r3, r0
}
 80059e6:	4618      	mov	r0, r3
 80059e8:	3708      	adds	r7, #8
 80059ea:	46bd      	mov	sp, r7
 80059ec:	bd80      	pop	{r7, pc}
	...

080059f0 <HAL_CRC_Init>:
  *         parameters in the CRC_InitTypeDef and create the associated handle.
  * @param  hcrc CRC handle
  * @retval HAL status
  */
HAL_StatusTypeDef HAL_CRC_Init(CRC_HandleTypeDef *hcrc)
{
 80059f0:	b580      	push	{r7, lr}
 80059f2:	b082      	sub	sp, #8
 80059f4:	af00      	add	r7, sp, #0
 80059f6:	6078      	str	r0, [r7, #4]
  /* Check the CRC handle allocation */
  if (hcrc == NULL)
 80059f8:	687b      	ldr	r3, [r7, #4]
 80059fa:	2b00      	cmp	r3, #0
 80059fc:	d101      	bne.n	8005a02 <HAL_CRC_Init+0x12>
  {
    return HAL_ERROR;
 80059fe:	2301      	movs	r3, #1
 8005a00:	e054      	b.n	8005aac <HAL_CRC_Init+0xbc>
  }

  /* Check the parameters */
  assert_param(IS_CRC_ALL_INSTANCE(hcrc->Instance));

  if (hcrc->State == HAL_CRC_STATE_RESET)
 8005a02:	687b      	ldr	r3, [r7, #4]
 8005a04:	7f5b      	ldrb	r3, [r3, #29]
 8005a06:	b2db      	uxtb	r3, r3
 8005a08:	2b00      	cmp	r3, #0
 8005a0a:	d105      	bne.n	8005a18 <HAL_CRC_Init+0x28>
  {
    /* Allocate lock resource and initialize it */
    hcrc->Lock = HAL_UNLOCKED;
 8005a0c:	687b      	ldr	r3, [r7, #4]
 8005a0e:	2200      	movs	r2, #0
 8005a10:	771a      	strb	r2, [r3, #28]
    /* Init the low level hardware */
    HAL_CRC_MspInit(hcrc);
 8005a12:	6878      	ldr	r0, [r7, #4]
 8005a14:	f7ff fd80 	bl	8005518 <HAL_CRC_MspInit>
  }

  hcrc->State = HAL_CRC_STATE_BUSY;
 8005a18:	687b      	ldr	r3, [r7, #4]
 8005a1a:	2202      	movs	r2, #2
 8005a1c:	775a      	strb	r2, [r3, #29]

  /* check whether or not non-default generating polynomial has been
   * picked up by user */
  assert_param(IS_DEFAULT_POLYNOMIAL(hcrc->Init.DefaultPolynomialUse));
  if (hcrc->Init.DefaultPolynomialUse == DEFAULT_POLYNOMIAL_ENABLE)
 8005a1e:	687b      	ldr	r3, [r7, #4]
 8005a20:	791b      	ldrb	r3, [r3, #4]
 8005a22:	2b00      	cmp	r3, #0
 8005a24:	d10c      	bne.n	8005a40 <HAL_CRC_Init+0x50>
  {
    /* initialize peripheral with default generating polynomial */
    WRITE_REG(hcrc->Instance->POL, DEFAULT_CRC32_POLY);
 8005a26:	687b      	ldr	r3, [r7, #4]
 8005a28:	681b      	ldr	r3, [r3, #0]
 8005a2a:	4a22      	ldr	r2, [pc, #136]	@ (8005ab4 <HAL_CRC_Init+0xc4>)
 8005a2c:	615a      	str	r2, [r3, #20]
    MODIFY_REG(hcrc->Instance->CR, CRC_CR_POLYSIZE, CRC_POLYLENGTH_32B);
 8005a2e:	687b      	ldr	r3, [r7, #4]
 8005a30:	681b      	ldr	r3, [r3, #0]
 8005a32:	689a      	ldr	r2, [r3, #8]
 8005a34:	687b      	ldr	r3, [r7, #4]
 8005a36:	681b      	ldr	r3, [r3, #0]
 8005a38:	f022 0218 	bic.w	r2, r2, #24
 8005a3c:	609a      	str	r2, [r3, #8]
 8005a3e:	e00c      	b.n	8005a5a <HAL_CRC_Init+0x6a>
  }
  else
  {
    /* initialize CRC peripheral with generating polynomial defined by user */
    if (HAL_CRCEx_Polynomial_Set(hcrc, hcrc->Init.GeneratingPolynomial, hcrc->Init.CRCLength) != HAL_OK)
 8005a40:	687b      	ldr	r3, [r7, #4]
 8005a42:	6899      	ldr	r1, [r3, #8]
 8005a44:	687b      	ldr	r3, [r7, #4]
 8005a46:	68db      	ldr	r3, [r3, #12]
 8005a48:	461a      	mov	r2, r3
 8005a4a:	6878      	ldr	r0, [r7, #4]
 8005a4c:	f000 f834 	bl	8005ab8 <HAL_CRCEx_Polynomial_Set>
 8005a50:	4603      	mov	r3, r0
 8005a52:	2b00      	cmp	r3, #0
 8005a54:	d001      	beq.n	8005a5a <HAL_CRC_Init+0x6a>
    {
      return HAL_ERROR;
 8005a56:	2301      	movs	r3, #1
 8005a58:	e028      	b.n	8005aac <HAL_CRC_Init+0xbc>
  }

  /* check whether or not non-default CRC initial value has been
   * picked up by user */
  assert_param(IS_DEFAULT_INIT_VALUE(hcrc->Init.DefaultInitValueUse));
  if (hcrc->Init.DefaultInitValueUse == DEFAULT_INIT_VALUE_ENABLE)
 8005a5a:	687b      	ldr	r3, [r7, #4]
 8005a5c:	795b      	ldrb	r3, [r3, #5]
 8005a5e:	2b00      	cmp	r3, #0
 8005a60:	d105      	bne.n	8005a6e <HAL_CRC_Init+0x7e>
  {
    WRITE_REG(hcrc->Instance->INIT, DEFAULT_CRC_INITVALUE);
 8005a62:	687b      	ldr	r3, [r7, #4]
 8005a64:	681b      	ldr	r3, [r3, #0]
 8005a66:	f04f 32ff 	mov.w	r2, #4294967295
 8005a6a:	611a      	str	r2, [r3, #16]
 8005a6c:	e004      	b.n	8005a78 <HAL_CRC_Init+0x88>
  }
  else
  {
    WRITE_REG(hcrc->Instance->INIT, hcrc->Init.InitValue);
 8005a6e:	687b      	ldr	r3, [r7, #4]
 8005a70:	681b      	ldr	r3, [r3, #0]
 8005a72:	687a      	ldr	r2, [r7, #4]
 8005a74:	6912      	ldr	r2, [r2, #16]
 8005a76:	611a      	str	r2, [r3, #16]
  }


  /* set input data inversion mode */
  assert_param(IS_CRC_INPUTDATA_INVERSION_MODE(hcrc->Init.InputDataInversionMode));
  MODIFY_REG(hcrc->Instance->CR, CRC_CR_REV_IN, hcrc->Init.InputDataInversionMode);
 8005a78:	687b      	ldr	r3, [r7, #4]
 8005a7a:	681b      	ldr	r3, [r3, #0]
 8005a7c:	689b      	ldr	r3, [r3, #8]
 8005a7e:	f023 0160 	bic.w	r1, r3, #96	@ 0x60
 8005a82:	687b      	ldr	r3, [r7, #4]
 8005a84:	695a      	ldr	r2, [r3, #20]
 8005a86:	687b      	ldr	r3, [r7, #4]
 8005a88:	681b      	ldr	r3, [r3, #0]
 8005a8a:	430a      	orrs	r2, r1
 8005a8c:	609a      	str	r2, [r3, #8]

  /* set output data inversion mode */
  assert_param(IS_CRC_OUTPUTDATA_INVERSION_MODE(hcrc->Init.OutputDataInversionMode));
  MODIFY_REG(hcrc->Instance->CR, CRC_CR_REV_OUT, hcrc->Init.OutputDataInversionMode);
 8005a8e:	687b      	ldr	r3, [r7, #4]
 8005a90:	681b      	ldr	r3, [r3, #0]
 8005a92:	689b      	ldr	r3, [r3, #8]
 8005a94:	f023 0180 	bic.w	r1, r3, #128	@ 0x80
 8005a98:	687b      	ldr	r3, [r7, #4]
 8005a9a:	699a      	ldr	r2, [r3, #24]
 8005a9c:	687b      	ldr	r3, [r7, #4]
 8005a9e:	681b      	ldr	r3, [r3, #0]
 8005aa0:	430a      	orrs	r2, r1
 8005aa2:	609a      	str	r2, [r3, #8]
  /* makes sure the input data format (bytes, halfwords or words stream)
   * is properly specified by user */
  assert_param(IS_CRC_INPUTDATA_FORMAT(hcrc->InputDataFormat));

  /* Change CRC peripheral state */
  hcrc->State = HAL_CRC_STATE_READY;
 8005aa4:	687b      	ldr	r3, [r7, #4]
 8005aa6:	2201      	movs	r2, #1
 8005aa8:	775a      	strb	r2, [r3, #29]

  /* Return function status */
  return HAL_OK;
 8005aaa:	2300      	movs	r3, #0
}
 8005aac:	4618      	mov	r0, r3
 8005aae:	3708      	adds	r7, #8
 8005ab0:	46bd      	mov	sp, r7
 8005ab2:	bd80      	pop	{r7, pc}
 8005ab4:	04c11db7 	.word	0x04c11db7

08005ab8 <HAL_CRCEx_Polynomial_Set>:
  *          @arg @ref CRC_POLYLENGTH_16B 16-bit long CRC (generating polynomial of degree 16)
  *          @arg @ref CRC_POLYLENGTH_32B 32-bit long CRC (generating polynomial of degree 32)
  * @retval HAL status
  */
HAL_StatusTypeDef HAL_CRCEx_Polynomial_Set(CRC_HandleTypeDef *hcrc, uint32_t Pol, uint32_t PolyLength)
{
 8005ab8:	b480      	push	{r7}
 8005aba:	b087      	sub	sp, #28
 8005abc:	af00      	add	r7, sp, #0
 8005abe:	60f8      	str	r0, [r7, #12]
 8005ac0:	60b9      	str	r1, [r7, #8]
 8005ac2:	607a      	str	r2, [r7, #4]
  HAL_StatusTypeDef status = HAL_OK;
 8005ac4:	2300      	movs	r3, #0
 8005ac6:	75fb      	strb	r3, [r7, #23]
  uint32_t msb = 31U; /* polynomial degree is 32 at most, so msb is initialized to max value */
 8005ac8:	231f      	movs	r3, #31
 8005aca:	613b      	str	r3, [r7, #16]

  /* Check the parameters */
  assert_param(IS_CRC_POL_LENGTH(PolyLength));

  /* Ensure that the generating polynomial is odd */
  if ((Pol & (uint32_t)(0x1U)) ==  0U)
 8005acc:	68bb      	ldr	r3, [r7, #8]
 8005ace:	f003 0301 	and.w	r3, r3, #1
 8005ad2:	2b00      	cmp	r3, #0
 8005ad4:	d102      	bne.n	8005adc <HAL_CRCEx_Polynomial_Set+0x24>
  {
    status =  HAL_ERROR;
 8005ad6:	2301      	movs	r3, #1
 8005ad8:	75fb      	strb	r3, [r7, #23]
 8005ada:	e063      	b.n	8005ba4 <HAL_CRCEx_Polynomial_Set+0xec>
     * definition. HAL_ERROR is reported if Pol degree is
     * larger than that indicated by PolyLength.
     * Look for MSB position: msb will contain the degree of
     *  the second to the largest polynomial member. E.g., for
     *  X^7 + X^6 + X^5 + X^2 + 1, msb = 6. */
    while ((msb-- > 0U) && ((Pol & ((uint32_t)(0x1U) << (msb & 0x1FU))) == 0U))
 8005adc:	bf00      	nop
 8005ade:	693b      	ldr	r3, [r7, #16]
 8005ae0:	1e5a      	subs	r2, r3, #1
 8005ae2:	613a      	str	r2, [r7, #16]
 8005ae4:	2b00      	cmp	r3, #0
 8005ae6:	d009      	beq.n	8005afc <HAL_CRCEx_Polynomial_Set+0x44>
 8005ae8:	693b      	ldr	r3, [r7, #16]
 8005aea:	f003 031f 	and.w	r3, r3, #31
 8005aee:	68ba      	ldr	r2, [r7, #8]
 8005af0:	fa22 f303 	lsr.w	r3, r2, r3
 8005af4:	f003 0301 	and.w	r3, r3, #1
 8005af8:	2b00      	cmp	r3, #0
 8005afa:	d0f0      	beq.n	8005ade <HAL_CRCEx_Polynomial_Set+0x26>
    {
    }

    switch (PolyLength)
 8005afc:	687b      	ldr	r3, [r7, #4]
 8005afe:	2b18      	cmp	r3, #24
 8005b00:	d846      	bhi.n	8005b90 <HAL_CRCEx_Polynomial_Set+0xd8>
 8005b02:	a201      	add	r2, pc, #4	@ (adr r2, 8005b08 <HAL_CRCEx_Polynomial_Set+0x50>)
 8005b04:	f852 f023 	ldr.w	pc, [r2, r3, lsl #2]
 8005b08:	08005b97 	.word	0x08005b97
 8005b0c:	08005b91 	.word	0x08005b91
 8005b10:	08005b91 	.word	0x08005b91
 8005b14:	08005b91 	.word	0x08005b91
 8005b18:	08005b91 	.word	0x08005b91
 8005b1c:	08005b91 	.word	0x08005b91
 8005b20:	08005b91 	.word	0x08005b91
 8005b24:	08005b91 	.word	0x08005b91
 8005b28:	08005b85 	.word	0x08005b85
 8005b2c:	08005b91 	.word	0x08005b91
 8005b30:	08005b91 	.word	0x08005b91
 8005b34:	08005b91 	.word	0x08005b91
 8005b38:	08005b91 	.word	0x08005b91
 8005b3c:	08005b91 	.word	0x08005b91
 8005b40:	08005b91 	.word	0x08005b91
 8005b44:	08005b91 	.word	0x08005b91
 8005b48:	08005b79 	.word	0x08005b79
 8005b4c:	08005b91 	.word	0x08005b91
 8005b50:	08005b91 	.word	0x08005b91
 8005b54:	08005b91 	.word	0x08005b91
 8005b58:	08005b91 	.word	0x08005b91
 8005b5c:	08005b91 	.word	0x08005b91
 8005b60:	08005b91 	.word	0x08005b91
 8005b64:	08005b91 	.word	0x08005b91
 8005b68:	08005b6d 	.word	0x08005b6d
    {

      case CRC_POLYLENGTH_7B:
        if (msb >= HAL_CRC_LENGTH_7B)
 8005b6c:	693b      	ldr	r3, [r7, #16]
 8005b6e:	2b06      	cmp	r3, #6
 8005b70:	d913      	bls.n	8005b9a <HAL_CRCEx_Polynomial_Set+0xe2>
        {
          status =   HAL_ERROR;
 8005b72:	2301      	movs	r3, #1
 8005b74:	75fb      	strb	r3, [r7, #23]
        }
        break;
 8005b76:	e010      	b.n	8005b9a <HAL_CRCEx_Polynomial_Set+0xe2>
      case CRC_POLYLENGTH_8B:
        if (msb >= HAL_CRC_LENGTH_8B)
 8005b78:	693b      	ldr	r3, [r7, #16]
 8005b7a:	2b07      	cmp	r3, #7
 8005b7c:	d90f      	bls.n	8005b9e <HAL_CRCEx_Polynomial_Set+0xe6>
        {
          status =   HAL_ERROR;
 8005b7e:	2301      	movs	r3, #1
 8005b80:	75fb      	strb	r3, [r7, #23]
        }
        break;
 8005b82:	e00c      	b.n	8005b9e <HAL_CRCEx_Polynomial_Set+0xe6>
      case CRC_POLYLENGTH_16B:
        if (msb >= HAL_CRC_LENGTH_16B)
 8005b84:	693b      	ldr	r3, [r7, #16]
 8005b86:	2b0f      	cmp	r3, #15
 8005b88:	d90b      	bls.n	8005ba2 <HAL_CRCEx_Polynomial_Set+0xea>
        {
          status =   HAL_ERROR;
 8005b8a:	2301      	movs	r3, #1
 8005b8c:	75fb      	strb	r3, [r7, #23]
        }
        break;
 8005b8e:	e008      	b.n	8005ba2 <HAL_CRCEx_Polynomial_Set+0xea>

      case CRC_POLYLENGTH_32B:
        /* no polynomial definition vs. polynomial length issue possible */
        break;
      default:
        status =  HAL_ERROR;
 8005b90:	2301      	movs	r3, #1
 8005b92:	75fb      	strb	r3, [r7, #23]
        break;
 8005b94:	e006      	b.n	8005ba4 <HAL_CRCEx_Polynomial_Set+0xec>
        break;
 8005b96:	bf00      	nop
 8005b98:	e004      	b.n	8005ba4 <HAL_CRCEx_Polynomial_Set+0xec>
        break;
 8005b9a:	bf00      	nop
 8005b9c:	e002      	b.n	8005ba4 <HAL_CRCEx_Polynomial_Set+0xec>
        break;
 8005b9e:	bf00      	nop
 8005ba0:	e000      	b.n	8005ba4 <HAL_CRCEx_Polynomial_Set+0xec>
        break;
 8005ba2:	bf00      	nop
    }
  }
  if (status == HAL_OK)
 8005ba4:	7dfb      	ldrb	r3, [r7, #23]
 8005ba6:	2b00      	cmp	r3, #0
 8005ba8:	d10d      	bne.n	8005bc6 <HAL_CRCEx_Polynomial_Set+0x10e>
  {
    /* set generating polynomial */
    WRITE_REG(hcrc->Instance->POL, Pol);
 8005baa:	68fb      	ldr	r3, [r7, #12]
 8005bac:	681b      	ldr	r3, [r3, #0]
 8005bae:	68ba      	ldr	r2, [r7, #8]
 8005bb0:	615a      	str	r2, [r3, #20]

    /* set generating polynomial size */
    MODIFY_REG(hcrc->Instance->CR, CRC_CR_POLYSIZE, PolyLength);
 8005bb2:	68fb      	ldr	r3, [r7, #12]
 8005bb4:	681b      	ldr	r3, [r3, #0]
 8005bb6:	689b      	ldr	r3, [r3, #8]
 8005bb8:	f023 0118 	bic.w	r1, r3, #24
 8005bbc:	68fb      	ldr	r3, [r7, #12]
 8005bbe:	681b      	ldr	r3, [r3, #0]
 8005bc0:	687a      	ldr	r2, [r7, #4]
 8005bc2:	430a      	orrs	r2, r1
 8005bc4:	609a      	str	r2, [r3, #8]
  }
  /* Return function status */
  return status;
 8005bc6:	7dfb      	ldrb	r3, [r7, #23]
}
 8005bc8:	4618      	mov	r0, r3
 8005bca:	371c      	adds	r7, #28
 8005bcc:	46bd      	mov	sp, r7
 8005bce:	bc80      	pop	{r7}
 8005bd0:	4770      	bx	lr
 8005bd2:	bf00      	nop

08005bd4 <HAL_FLASH_Program>:
  * @param  Data          Specifie the data to be programmed
  * 
  * @retval HAL_StatusTypeDef HAL Status
  */
HAL_StatusTypeDef HAL_FLASH_Program(uint32_t TypeProgram, uint32_t Address, uint64_t Data)
{
 8005bd4:	b5f0      	push	{r4, r5, r6, r7, lr}
 8005bd6:	b087      	sub	sp, #28
 8005bd8:	af00      	add	r7, sp, #0
 8005bda:	60f8      	str	r0, [r7, #12]
 8005bdc:	60b9      	str	r1, [r7, #8]
 8005bde:	e9c7 2300 	strd	r2, r3, [r7]
  HAL_StatusTypeDef status = HAL_ERROR;
 8005be2:	2301      	movs	r3, #1
 8005be4:	75fb      	strb	r3, [r7, #23]
  uint8_t index = 0U;
 8005be6:	2300      	movs	r3, #0
 8005be8:	75bb      	strb	r3, [r7, #22]
  uint8_t nbiterations = 0U;
 8005bea:	2300      	movs	r3, #0
 8005bec:	757b      	strb	r3, [r7, #21]
  
  /* Process Locked */
  __HAL_LOCK(&pFlash);
 8005bee:	4b2f      	ldr	r3, [pc, #188]	@ (8005cac <HAL_FLASH_Program+0xd8>)
 8005bf0:	7e1b      	ldrb	r3, [r3, #24]
 8005bf2:	2b01      	cmp	r3, #1
 8005bf4:	d101      	bne.n	8005bfa <HAL_FLASH_Program+0x26>
 8005bf6:	2302      	movs	r3, #2
 8005bf8:	e054      	b.n	8005ca4 <HAL_FLASH_Program+0xd0>
 8005bfa:	4b2c      	ldr	r3, [pc, #176]	@ (8005cac <HAL_FLASH_Program+0xd8>)
 8005bfc:	2201      	movs	r2, #1
 8005bfe:	761a      	strb	r2, [r3, #24]
  /* Check the parameters */
  assert_param(IS_FLASH_TYPEPROGRAM(TypeProgram));
  assert_param(IS_FLASH_PROGRAM_ADDRESS(Address));

    /* Wait for last operation to be completed */
    status = FLASH_WaitForLastOperation(FLASH_TIMEOUT_VALUE);
 8005c00:	f24c 3050 	movw	r0, #50000	@ 0xc350
 8005c04:	f000 f8a8 	bl	8005d58 <FLASH_WaitForLastOperation>
 8005c08:	4603      	mov	r3, r0
 8005c0a:	75fb      	strb	r3, [r7, #23]
  
  if(status == HAL_OK)
 8005c0c:	7dfb      	ldrb	r3, [r7, #23]
 8005c0e:	2b00      	cmp	r3, #0
 8005c10:	d144      	bne.n	8005c9c <HAL_FLASH_Program+0xc8>
  {
    if(TypeProgram == FLASH_TYPEPROGRAM_HALFWORD)
 8005c12:	68fb      	ldr	r3, [r7, #12]
 8005c14:	2b01      	cmp	r3, #1
 8005c16:	d102      	bne.n	8005c1e <HAL_FLASH_Program+0x4a>
    {
      /* Program halfword (16-bit) at a specified address. */
      nbiterations = 1U;
 8005c18:	2301      	movs	r3, #1
 8005c1a:	757b      	strb	r3, [r7, #21]
 8005c1c:	e007      	b.n	8005c2e <HAL_FLASH_Program+0x5a>
    }
    else if(TypeProgram == FLASH_TYPEPROGRAM_WORD)
 8005c1e:	68fb      	ldr	r3, [r7, #12]
 8005c20:	2b02      	cmp	r3, #2
 8005c22:	d102      	bne.n	8005c2a <HAL_FLASH_Program+0x56>
    {
      /* Program word (32-bit = 2*16-bit) at a specified address. */
      nbiterations = 2U;
 8005c24:	2302      	movs	r3, #2
 8005c26:	757b      	strb	r3, [r7, #21]
 8005c28:	e001      	b.n	8005c2e <HAL_FLASH_Program+0x5a>
    }
    else
    {
      /* Program double word (64-bit = 4*16-bit) at a specified address. */
      nbiterations = 4U;
 8005c2a:	2304      	movs	r3, #4
 8005c2c:	757b      	strb	r3, [r7, #21]
    }

    for (index = 0U; index < nbiterations; index++)
 8005c2e:	2300      	movs	r3, #0
 8005c30:	75bb      	strb	r3, [r7, #22]
 8005c32:	e02d      	b.n	8005c90 <HAL_FLASH_Program+0xbc>
    {
      FLASH_Program_HalfWord((Address + (2U*index)), (uint16_t)(Data >> (16U*index)));
 8005c34:	7dbb      	ldrb	r3, [r7, #22]
 8005c36:	005a      	lsls	r2, r3, #1
 8005c38:	68bb      	ldr	r3, [r7, #8]
 8005c3a:	eb02 0c03 	add.w	ip, r2, r3
 8005c3e:	7dbb      	ldrb	r3, [r7, #22]
 8005c40:	0119      	lsls	r1, r3, #4
 8005c42:	e9d7 2300 	ldrd	r2, r3, [r7]
 8005c46:	f1c1 0620 	rsb	r6, r1, #32
 8005c4a:	f1a1 0020 	sub.w	r0, r1, #32
 8005c4e:	fa22 f401 	lsr.w	r4, r2, r1
 8005c52:	fa03 f606 	lsl.w	r6, r3, r6
 8005c56:	4334      	orrs	r4, r6
 8005c58:	fa23 f000 	lsr.w	r0, r3, r0
 8005c5c:	4304      	orrs	r4, r0
 8005c5e:	fa23 f501 	lsr.w	r5, r3, r1
 8005c62:	b2a3      	uxth	r3, r4
 8005c64:	4619      	mov	r1, r3
 8005c66:	4660      	mov	r0, ip
 8005c68:	f000 f85a 	bl	8005d20 <FLASH_Program_HalfWord>

        /* Wait for last operation to be completed */
        status = FLASH_WaitForLastOperation(FLASH_TIMEOUT_VALUE);
 8005c6c:	f24c 3050 	movw	r0, #50000	@ 0xc350
 8005c70:	f000 f872 	bl	8005d58 <FLASH_WaitForLastOperation>
 8005c74:	4603      	mov	r3, r0
 8005c76:	75fb      	strb	r3, [r7, #23]
    
        /* If the program operation is completed, disable the PG Bit */
        CLEAR_BIT(FLASH->CR, FLASH_CR_PG);
 8005c78:	4b0d      	ldr	r3, [pc, #52]	@ (8005cb0 <HAL_FLASH_Program+0xdc>)
 8005c7a:	691b      	ldr	r3, [r3, #16]
 8005c7c:	4a0c      	ldr	r2, [pc, #48]	@ (8005cb0 <HAL_FLASH_Program+0xdc>)
 8005c7e:	f023 0301 	bic.w	r3, r3, #1
 8005c82:	6113      	str	r3, [r2, #16]
      /* In case of error, stop programming procedure */
      if (status != HAL_OK)
 8005c84:	7dfb      	ldrb	r3, [r7, #23]
 8005c86:	2b00      	cmp	r3, #0
 8005c88:	d107      	bne.n	8005c9a <HAL_FLASH_Program+0xc6>
    for (index = 0U; index < nbiterations; index++)
 8005c8a:	7dbb      	ldrb	r3, [r7, #22]
 8005c8c:	3301      	adds	r3, #1
 8005c8e:	75bb      	strb	r3, [r7, #22]
 8005c90:	7dba      	ldrb	r2, [r7, #22]
 8005c92:	7d7b      	ldrb	r3, [r7, #21]
 8005c94:	429a      	cmp	r2, r3
 8005c96:	d3cd      	bcc.n	8005c34 <HAL_FLASH_Program+0x60>
 8005c98:	e000      	b.n	8005c9c <HAL_FLASH_Program+0xc8>
      {
        break;
 8005c9a:	bf00      	nop
      }
    }
  }

  /* Process Unlocked */
  __HAL_UNLOCK(&pFlash);
 8005c9c:	4b03      	ldr	r3, [pc, #12]	@ (8005cac <HAL_FLASH_Program+0xd8>)
 8005c9e:	2200      	movs	r2, #0
 8005ca0:	761a      	strb	r2, [r3, #24]

  return status;
 8005ca2:	7dfb      	ldrb	r3, [r7, #23]
}
 8005ca4:	4618      	mov	r0, r3
 8005ca6:	371c      	adds	r7, #28
 8005ca8:	46bd      	mov	sp, r7
 8005caa:	bdf0      	pop	{r4, r5, r6, r7, pc}
 8005cac:	20000a50 	.word	0x20000a50
 8005cb0:	40022000 	.word	0x40022000

08005cb4 <HAL_FLASH_Unlock>:
/**
  * @brief  Unlock the FLASH control register access
  * @retval HAL Status
  */
HAL_StatusTypeDef HAL_FLASH_Unlock(void)
{
 8005cb4:	b480      	push	{r7}
 8005cb6:	b083      	sub	sp, #12
 8005cb8:	af00      	add	r7, sp, #0
  HAL_StatusTypeDef status = HAL_OK;
 8005cba:	2300      	movs	r3, #0
 8005cbc:	71fb      	strb	r3, [r7, #7]

  if(READ_BIT(FLASH->CR, FLASH_CR_LOCK) != RESET)
 8005cbe:	4b0d      	ldr	r3, [pc, #52]	@ (8005cf4 <HAL_FLASH_Unlock+0x40>)
 8005cc0:	691b      	ldr	r3, [r3, #16]
 8005cc2:	f003 0380 	and.w	r3, r3, #128	@ 0x80
 8005cc6:	2b00      	cmp	r3, #0
 8005cc8:	d00d      	beq.n	8005ce6 <HAL_FLASH_Unlock+0x32>
  {
    /* Authorize the FLASH Registers access */
    WRITE_REG(FLASH->KEYR, FLASH_KEY1);
 8005cca:	4b0a      	ldr	r3, [pc, #40]	@ (8005cf4 <HAL_FLASH_Unlock+0x40>)
 8005ccc:	4a0a      	ldr	r2, [pc, #40]	@ (8005cf8 <HAL_FLASH_Unlock+0x44>)
 8005cce:	605a      	str	r2, [r3, #4]
    WRITE_REG(FLASH->KEYR, FLASH_KEY2);
 8005cd0:	4b08      	ldr	r3, [pc, #32]	@ (8005cf4 <HAL_FLASH_Unlock+0x40>)
 8005cd2:	4a0a      	ldr	r2, [pc, #40]	@ (8005cfc <HAL_FLASH_Unlock+0x48>)
 8005cd4:	605a      	str	r2, [r3, #4]

    /* Verify Flash is unlocked */
    if(READ_BIT(FLASH->CR, FLASH_CR_LOCK) != RESET)
 8005cd6:	4b07      	ldr	r3, [pc, #28]	@ (8005cf4 <HAL_FLASH_Unlock+0x40>)
 8005cd8:	691b      	ldr	r3, [r3, #16]
 8005cda:	f003 0380 	and.w	r3, r3, #128	@ 0x80
 8005cde:	2b00      	cmp	r3, #0
 8005ce0:	d001      	beq.n	8005ce6 <HAL_FLASH_Unlock+0x32>
    {
      status = HAL_ERROR;
 8005ce2:	2301      	movs	r3, #1
 8005ce4:	71fb      	strb	r3, [r7, #7]
    }
  }

  return status;
 8005ce6:	79fb      	ldrb	r3, [r7, #7]
}
 8005ce8:	4618      	mov	r0, r3
 8005cea:	370c      	adds	r7, #12
 8005cec:	46bd      	mov	sp, r7
 8005cee:	bc80      	pop	{r7}
 8005cf0:	4770      	bx	lr
 8005cf2:	bf00      	nop
 8005cf4:	40022000 	.word	0x40022000
 8005cf8:	45670123 	.word	0x45670123
 8005cfc:	cdef89ab 	.word	0xcdef89ab

08005d00 <HAL_FLASH_Lock>:
/**
  * @brief  Locks the FLASH control register access
  * @retval HAL Status
  */
HAL_StatusTypeDef HAL_FLASH_Lock(void)
{
 8005d00:	b480      	push	{r7}
 8005d02:	af00      	add	r7, sp, #0
  /* Set the LOCK Bit to lock the FLASH Registers access */
  SET_BIT(FLASH->CR, FLASH_CR_LOCK);
 8005d04:	4b05      	ldr	r3, [pc, #20]	@ (8005d1c <HAL_FLASH_Lock+0x1c>)
 8005d06:	691b      	ldr	r3, [r3, #16]
 8005d08:	4a04      	ldr	r2, [pc, #16]	@ (8005d1c <HAL_FLASH_Lock+0x1c>)
 8005d0a:	f043 0380 	orr.w	r3, r3, #128	@ 0x80
 8005d0e:	6113      	str	r3, [r2, #16]
  
  return HAL_OK;  
 8005d10:	2300      	movs	r3, #0
}
 8005d12:	4618      	mov	r0, r3
 8005d14:	46bd      	mov	sp, r7
 8005d16:	bc80      	pop	{r7}
 8005d18:	4770      	bx	lr
 8005d1a:	bf00      	nop
 8005d1c:	40022000 	.word	0x40022000

08005d20 <FLASH_Program_HalfWord>:
  * @param  Address specify the address to be programmed.
  * @param  Data    specify the data to be programmed.
  * @retval None
  */
static void FLASH_Program_HalfWord(uint32_t Address, uint16_t Data)
{
 8005d20:	b480      	push	{r7}
 8005d22:	b083      	sub	sp, #12
 8005d24:	af00      	add	r7, sp, #0
 8005d26:	6078      	str	r0, [r7, #4]
 8005d28:	460b      	mov	r3, r1
 8005d2a:	807b      	strh	r3, [r7, #2]
  /* Clean the error context */
  pFlash.ErrorCode = HAL_FLASH_ERROR_NONE;
 8005d2c:	4b08      	ldr	r3, [pc, #32]	@ (8005d50 <FLASH_Program_HalfWord+0x30>)
 8005d2e:	2200      	movs	r2, #0
 8005d30:	61da      	str	r2, [r3, #28]
  
    /* Proceed to program the new data */
    SET_BIT(FLASH->CR, FLASH_CR_PG);
 8005d32:	4b08      	ldr	r3, [pc, #32]	@ (8005d54 <FLASH_Program_HalfWord+0x34>)
 8005d34:	691b      	ldr	r3, [r3, #16]
 8005d36:	4a07      	ldr	r2, [pc, #28]	@ (8005d54 <FLASH_Program_HalfWord+0x34>)
 8005d38:	f043 0301 	orr.w	r3, r3, #1
 8005d3c:	6113      	str	r3, [r2, #16]

  /* Write data in the address */
  *(__IO uint16_t*)Address = Data;
 8005d3e:	687b      	ldr	r3, [r7, #4]
 8005d40:	887a      	ldrh	r2, [r7, #2]
 8005d42:	801a      	strh	r2, [r3, #0]
}
 8005d44:	bf00      	nop
 8005d46:	370c      	adds	r7, #12
 8005d48:	46bd      	mov	sp, r7
 8005d4a:	bc80      	pop	{r7}
 8005d4c:	4770      	bx	lr
 8005d4e:	bf00      	nop
 8005d50:	20000a50 	.word	0x20000a50
 8005d54:	40022000 	.word	0x40022000

08005d58 <FLASH_WaitForLastOperation>:
  * @brief  Wait for a FLASH operation to complete.
  * @param  Timeout  maximum flash operation timeout
  * @retval HAL Status
  */
HAL_StatusTypeDef FLASH_WaitForLastOperation(uint32_t Timeout)
{
 8005d58:	b580      	push	{r7, lr}
 8005d5a:	b084      	sub	sp, #16
 8005d5c:	af00      	add	r7, sp, #0
 8005d5e:	6078      	str	r0, [r7, #4]
  /* Wait for the FLASH operation to complete by polling on BUSY flag to be reset.
     Even if the FLASH operation fails, the BUSY flag will be reset and an error
     flag will be set */
     
  uint32_t tickstart = HAL_GetTick();
 8005d60:	f7ff fd58 	bl	8005814 <HAL_GetTick>
 8005d64:	60f8      	str	r0, [r7, #12]
     
  while(__HAL_FLASH_GET_FLAG(FLASH_FLAG_BSY)) 
 8005d66:	e010      	b.n	8005d8a <FLASH_WaitForLastOperation+0x32>
  { 
    if (Timeout != HAL_MAX_DELAY)
 8005d68:	687b      	ldr	r3, [r7, #4]
 8005d6a:	f1b3 3fff 	cmp.w	r3, #4294967295
 8005d6e:	d00c      	beq.n	8005d8a <FLASH_WaitForLastOperation+0x32>
    {
      if((Timeout == 0U) || ((HAL_GetTick()-tickstart) > Timeout))
 8005d70:	687b      	ldr	r3, [r7, #4]
 8005d72:	2b00      	cmp	r3, #0
 8005d74:	d007      	beq.n	8005d86 <FLASH_WaitForLastOperation+0x2e>
 8005d76:	f7ff fd4d 	bl	8005814 <HAL_GetTick>
 8005d7a:	4602      	mov	r2, r0
 8005d7c:	68fb      	ldr	r3, [r7, #12]
 8005d7e:	1ad3      	subs	r3, r2, r3
 8005d80:	687a      	ldr	r2, [r7, #4]
 8005d82:	429a      	cmp	r2, r3
 8005d84:	d201      	bcs.n	8005d8a <FLASH_WaitForLastOperation+0x32>
      {
        return HAL_TIMEOUT;
 8005d86:	2303      	movs	r3, #3
 8005d88:	e01f      	b.n	8005dca <FLASH_WaitForLastOperation+0x72>
  while(__HAL_FLASH_GET_FLAG(FLASH_FLAG_BSY)) 
 8005d8a:	4b12      	ldr	r3, [pc, #72]	@ (8005dd4 <FLASH_WaitForLastOperation+0x7c>)
 8005d8c:	68db      	ldr	r3, [r3, #12]
 8005d8e:	f003 0301 	and.w	r3, r3, #1
 8005d92:	2b01      	cmp	r3, #1
 8005d94:	d0e8      	beq.n	8005d68 <FLASH_WaitForLastOperation+0x10>
      }
    }
  }
  
  /* Check FLASH End of Operation flag  */
  if (__HAL_FLASH_GET_FLAG(FLASH_FLAG_EOP))
 8005d96:	4b0f      	ldr	r3, [pc, #60]	@ (8005dd4 <FLASH_WaitForLastOperation+0x7c>)
 8005d98:	68db      	ldr	r3, [r3, #12]
 8005d9a:	f003 0320 	and.w	r3, r3, #32
 8005d9e:	2b20      	cmp	r3, #32
 8005da0:	d102      	bne.n	8005da8 <FLASH_WaitForLastOperation+0x50>
  {
    /* Clear FLASH End of Operation pending bit */
    __HAL_FLASH_CLEAR_FLAG(FLASH_FLAG_EOP);
 8005da2:	4b0c      	ldr	r3, [pc, #48]	@ (8005dd4 <FLASH_WaitForLastOperation+0x7c>)
 8005da4:	2220      	movs	r2, #32
 8005da6:	60da      	str	r2, [r3, #12]
  }
  
  if(__HAL_FLASH_GET_FLAG(FLASH_FLAG_WRPERR)  || 
 8005da8:	4b0a      	ldr	r3, [pc, #40]	@ (8005dd4 <FLASH_WaitForLastOperation+0x7c>)
 8005daa:	68db      	ldr	r3, [r3, #12]
 8005dac:	f003 0310 	and.w	r3, r3, #16
 8005db0:	2b10      	cmp	r3, #16
 8005db2:	d005      	beq.n	8005dc0 <FLASH_WaitForLastOperation+0x68>
     __HAL_FLASH_GET_FLAG(FLASH_FLAG_PGERR))
 8005db4:	4b07      	ldr	r3, [pc, #28]	@ (8005dd4 <FLASH_WaitForLastOperation+0x7c>)
 8005db6:	68db      	ldr	r3, [r3, #12]
 8005db8:	f003 0304 	and.w	r3, r3, #4
  if(__HAL_FLASH_GET_FLAG(FLASH_FLAG_WRPERR)  || 
 8005dbc:	2b04      	cmp	r3, #4
 8005dbe:	d103      	bne.n	8005dc8 <FLASH_WaitForLastOperation+0x70>
  {
    /*Save the error code*/
    FLASH_SetErrorCode();
 8005dc0:	f000 f80a 	bl	8005dd8 <FLASH_SetErrorCode>
    return HAL_ERROR;
 8005dc4:	2301      	movs	r3, #1
 8005dc6:	e000      	b.n	8005dca <FLASH_WaitForLastOperation+0x72>
  }

  /* There is no error flag set */
  return HAL_OK;
 8005dc8:	2300      	movs	r3, #0
}
 8005dca:	4618      	mov	r0, r3
 8005dcc:	3710      	adds	r7, #16
 8005dce:	46bd      	mov	sp, r7
 8005dd0:	bd80      	pop	{r7, pc}
 8005dd2:	bf00      	nop
 8005dd4:	40022000 	.word	0x40022000

08005dd8 <FLASH_SetErrorCode>:
/**
  * @brief  Set the specific FLASH error flag.
  * @retval None
  */
static void FLASH_SetErrorCode(void)
{
 8005dd8:	b480      	push	{r7}
 8005dda:	b083      	sub	sp, #12
 8005ddc:	af00      	add	r7, sp, #0
  uint32_t flags = 0U;
 8005dde:	2300      	movs	r3, #0
 8005de0:	607b      	str	r3, [r7, #4]
  
  if(__HAL_FLASH_GET_FLAG(FLASH_FLAG_WRPERR))
 8005de2:	4b14      	ldr	r3, [pc, #80]	@ (8005e34 <FLASH_SetErrorCode+0x5c>)
 8005de4:	68db      	ldr	r3, [r3, #12]
 8005de6:	f003 0310 	and.w	r3, r3, #16
 8005dea:	2b10      	cmp	r3, #16
 8005dec:	d109      	bne.n	8005e02 <FLASH_SetErrorCode+0x2a>
  {
    pFlash.ErrorCode |= HAL_FLASH_ERROR_WRP;
 8005dee:	4b12      	ldr	r3, [pc, #72]	@ (8005e38 <FLASH_SetErrorCode+0x60>)
 8005df0:	69db      	ldr	r3, [r3, #28]
 8005df2:	f043 0302 	orr.w	r3, r3, #2
 8005df6:	4a10      	ldr	r2, [pc, #64]	@ (8005e38 <FLASH_SetErrorCode+0x60>)
 8005df8:	61d3      	str	r3, [r2, #28]
    flags |= FLASH_FLAG_WRPERR;
 8005dfa:	687b      	ldr	r3, [r7, #4]
 8005dfc:	f043 0310 	orr.w	r3, r3, #16
 8005e00:	607b      	str	r3, [r7, #4]
  }
  if(__HAL_FLASH_GET_FLAG(FLASH_FLAG_PGERR))
 8005e02:	4b0c      	ldr	r3, [pc, #48]	@ (8005e34 <FLASH_SetErrorCode+0x5c>)
 8005e04:	68db      	ldr	r3, [r3, #12]
 8005e06:	f003 0304 	and.w	r3, r3, #4
 8005e0a:	2b04      	cmp	r3, #4
 8005e0c:	d109      	bne.n	8005e22 <FLASH_SetErrorCode+0x4a>
  {
    pFlash.ErrorCode |= HAL_FLASH_ERROR_PROG;
 8005e0e:	4b0a      	ldr	r3, [pc, #40]	@ (8005e38 <FLASH_SetErrorCode+0x60>)
 8005e10:	69db      	ldr	r3, [r3, #28]
 8005e12:	f043 0301 	orr.w	r3, r3, #1
 8005e16:	4a08      	ldr	r2, [pc, #32]	@ (8005e38 <FLASH_SetErrorCode+0x60>)
 8005e18:	61d3      	str	r3, [r2, #28]
    flags |= FLASH_FLAG_PGERR;
 8005e1a:	687b      	ldr	r3, [r7, #4]
 8005e1c:	f043 0304 	orr.w	r3, r3, #4
 8005e20:	607b      	str	r3, [r7, #4]
  }
  /* Clear FLASH error pending bits */
  __HAL_FLASH_CLEAR_FLAG(flags);
 8005e22:	4a04      	ldr	r2, [pc, #16]	@ (8005e34 <FLASH_SetErrorCode+0x5c>)
 8005e24:	687b      	ldr	r3, [r7, #4]
 8005e26:	60d3      	str	r3, [r2, #12]
}  
 8005e28:	bf00      	nop
 8005e2a:	370c      	adds	r7, #12
 8005e2c:	46bd      	mov	sp, r7
 8005e2e:	bc80      	pop	{r7}
 8005e30:	4770      	bx	lr
 8005e32:	bf00      	nop
 8005e34:	40022000 	.word	0x40022000
 8005e38:	20000a50 	.word	0x20000a50

08005e3c <HAL_FLASHEx_Erase>:
  *         (0xFFFFFFFF means that all the pages have been correctly erased)
  *
  * @retval HAL_StatusTypeDef HAL Status
  */
HAL_StatusTypeDef HAL_FLASHEx_Erase(FLASH_EraseInitTypeDef *pEraseInit, uint32_t *PageError)
{
 8005e3c:	b580      	push	{r7, lr}
 8005e3e:	b084      	sub	sp, #16
 8005e40:	af00      	add	r7, sp, #0
 8005e42:	6078      	str	r0, [r7, #4]
 8005e44:	6039      	str	r1, [r7, #0]
  HAL_StatusTypeDef status = HAL_ERROR;
 8005e46:	2301      	movs	r3, #1
 8005e48:	73fb      	strb	r3, [r7, #15]
  uint32_t address = 0U;
 8005e4a:	2300      	movs	r3, #0
 8005e4c:	60bb      	str	r3, [r7, #8]

  /* Process Locked */
  __HAL_LOCK(&pFlash);
 8005e4e:	4b2e      	ldr	r3, [pc, #184]	@ (8005f08 <HAL_FLASHEx_Erase+0xcc>)
 8005e50:	7e1b      	ldrb	r3, [r3, #24]
 8005e52:	2b01      	cmp	r3, #1
 8005e54:	d101      	bne.n	8005e5a <HAL_FLASHEx_Erase+0x1e>
 8005e56:	2302      	movs	r3, #2
 8005e58:	e052      	b.n	8005f00 <HAL_FLASHEx_Erase+0xc4>
 8005e5a:	4b2b      	ldr	r3, [pc, #172]	@ (8005f08 <HAL_FLASHEx_Erase+0xcc>)
 8005e5c:	2201      	movs	r2, #1
 8005e5e:	761a      	strb	r2, [r3, #24]

  /* Check the parameters */
  assert_param(IS_FLASH_TYPEERASE(pEraseInit->TypeErase));

  if (pEraseInit->TypeErase == FLASH_TYPEERASE_MASSERASE)
 8005e60:	687b      	ldr	r3, [r7, #4]
 8005e62:	681b      	ldr	r3, [r3, #0]
 8005e64:	2b01      	cmp	r3, #1
 8005e66:	d115      	bne.n	8005e94 <HAL_FLASHEx_Erase+0x58>
  {
      /* Mass Erase requested for Bank1 */
      /* Wait for last operation to be completed */
      if (FLASH_WaitForLastOperation((uint32_t)FLASH_TIMEOUT_VALUE) == HAL_OK)
 8005e68:	f24c 3050 	movw	r0, #50000	@ 0xc350
 8005e6c:	f7ff ff74 	bl	8005d58 <FLASH_WaitForLastOperation>
 8005e70:	4603      	mov	r3, r0
 8005e72:	2b00      	cmp	r3, #0
 8005e74:	d140      	bne.n	8005ef8 <HAL_FLASHEx_Erase+0xbc>
      {
        /*Mass erase to be done*/
        FLASH_MassErase();
 8005e76:	f000 f84b 	bl	8005f10 <FLASH_MassErase>

        /* Wait for last operation to be completed */
        status = FLASH_WaitForLastOperation((uint32_t)FLASH_TIMEOUT_VALUE);
 8005e7a:	f24c 3050 	movw	r0, #50000	@ 0xc350
 8005e7e:	f7ff ff6b 	bl	8005d58 <FLASH_WaitForLastOperation>
 8005e82:	4603      	mov	r3, r0
 8005e84:	73fb      	strb	r3, [r7, #15]

        /* If the erase operation is completed, disable the MER Bit */
        CLEAR_BIT(FLASH->CR, FLASH_CR_MER);
 8005e86:	4b21      	ldr	r3, [pc, #132]	@ (8005f0c <HAL_FLASHEx_Erase+0xd0>)
 8005e88:	691b      	ldr	r3, [r3, #16]
 8005e8a:	4a20      	ldr	r2, [pc, #128]	@ (8005f0c <HAL_FLASHEx_Erase+0xd0>)
 8005e8c:	f023 0304 	bic.w	r3, r3, #4
 8005e90:	6113      	str	r3, [r2, #16]
 8005e92:	e031      	b.n	8005ef8 <HAL_FLASHEx_Erase+0xbc>
    assert_param(IS_FLASH_PROGRAM_ADDRESS(pEraseInit->PageAddress));
    assert_param(IS_FLASH_NB_PAGES(pEraseInit->PageAddress, pEraseInit->NbPages));

      /* Page Erase requested on address located on bank1 */
      /* Wait for last operation to be completed */
      if (FLASH_WaitForLastOperation((uint32_t)FLASH_TIMEOUT_VALUE) == HAL_OK)
 8005e94:	f24c 3050 	movw	r0, #50000	@ 0xc350
 8005e98:	f7ff ff5e 	bl	8005d58 <FLASH_WaitForLastOperation>
 8005e9c:	4603      	mov	r3, r0
 8005e9e:	2b00      	cmp	r3, #0
 8005ea0:	d12a      	bne.n	8005ef8 <HAL_FLASHEx_Erase+0xbc>
      {
        /*Initialization of PageError variable*/
        *PageError = 0xFFFFFFFFU;
 8005ea2:	683b      	ldr	r3, [r7, #0]
 8005ea4:	f04f 32ff 	mov.w	r2, #4294967295
 8005ea8:	601a      	str	r2, [r3, #0]

        /* Erase page by page to be done*/
        for(address = pEraseInit->PageAddress;
 8005eaa:	687b      	ldr	r3, [r7, #4]
 8005eac:	685b      	ldr	r3, [r3, #4]
 8005eae:	60bb      	str	r3, [r7, #8]
 8005eb0:	e019      	b.n	8005ee6 <HAL_FLASHEx_Erase+0xaa>
            address < ((pEraseInit->NbPages * FLASH_PAGE_SIZE) + pEraseInit->PageAddress);
            address += FLASH_PAGE_SIZE)
        {
          FLASH_PageErase(address);
 8005eb2:	68b8      	ldr	r0, [r7, #8]
 8005eb4:	f000 f846 	bl	8005f44 <FLASH_PageErase>

          /* Wait for last operation to be completed */
          status = FLASH_WaitForLastOperation((uint32_t)FLASH_TIMEOUT_VALUE);
 8005eb8:	f24c 3050 	movw	r0, #50000	@ 0xc350
 8005ebc:	f7ff ff4c 	bl	8005d58 <FLASH_WaitForLastOperation>
 8005ec0:	4603      	mov	r3, r0
 8005ec2:	73fb      	strb	r3, [r7, #15]

          /* If the erase operation is completed, disable the PER Bit */
          CLEAR_BIT(FLASH->CR, FLASH_CR_PER);
 8005ec4:	4b11      	ldr	r3, [pc, #68]	@ (8005f0c <HAL_FLASHEx_Erase+0xd0>)
 8005ec6:	691b      	ldr	r3, [r3, #16]
 8005ec8:	4a10      	ldr	r2, [pc, #64]	@ (8005f0c <HAL_FLASHEx_Erase+0xd0>)
 8005eca:	f023 0302 	bic.w	r3, r3, #2
 8005ece:	6113      	str	r3, [r2, #16]

          if (status != HAL_OK)
 8005ed0:	7bfb      	ldrb	r3, [r7, #15]
 8005ed2:	2b00      	cmp	r3, #0
 8005ed4:	d003      	beq.n	8005ede <HAL_FLASHEx_Erase+0xa2>
          {
            /* In case of error, stop erase procedure and return the faulty address */
            *PageError = address;
 8005ed6:	683b      	ldr	r3, [r7, #0]
 8005ed8:	68ba      	ldr	r2, [r7, #8]
 8005eda:	601a      	str	r2, [r3, #0]
            break;
 8005edc:	e00c      	b.n	8005ef8 <HAL_FLASHEx_Erase+0xbc>
            address += FLASH_PAGE_SIZE)
 8005ede:	68bb      	ldr	r3, [r7, #8]
 8005ee0:	f503 6300 	add.w	r3, r3, #2048	@ 0x800
 8005ee4:	60bb      	str	r3, [r7, #8]
            address < ((pEraseInit->NbPages * FLASH_PAGE_SIZE) + pEraseInit->PageAddress);
 8005ee6:	687b      	ldr	r3, [r7, #4]
 8005ee8:	689b      	ldr	r3, [r3, #8]
 8005eea:	02da      	lsls	r2, r3, #11
 8005eec:	687b      	ldr	r3, [r7, #4]
 8005eee:	685b      	ldr	r3, [r3, #4]
 8005ef0:	4413      	add	r3, r2
 8005ef2:	68ba      	ldr	r2, [r7, #8]
 8005ef4:	429a      	cmp	r2, r3
 8005ef6:	d3dc      	bcc.n	8005eb2 <HAL_FLASHEx_Erase+0x76>
        }
      }
  }

  /* Process Unlocked */
  __HAL_UNLOCK(&pFlash);
 8005ef8:	4b03      	ldr	r3, [pc, #12]	@ (8005f08 <HAL_FLASHEx_Erase+0xcc>)
 8005efa:	2200      	movs	r2, #0
 8005efc:	761a      	strb	r2, [r3, #24]

  return status;
 8005efe:	7bfb      	ldrb	r3, [r7, #15]
}
 8005f00:	4618      	mov	r0, r3
 8005f02:	3710      	adds	r7, #16
 8005f04:	46bd      	mov	sp, r7
 8005f06:	bd80      	pop	{r7, pc}
 8005f08:	20000a50 	.word	0x20000a50
 8005f0c:	40022000 	.word	0x40022000

08005f10 <FLASH_MassErase>:
  * @brief  Full erase of FLASH memory Bank
  *
  * @retval None
  */
static void FLASH_MassErase(void)
{
 8005f10:	b480      	push	{r7}
 8005f12:	af00      	add	r7, sp, #0
  /* Clean the error context */
  pFlash.ErrorCode = HAL_FLASH_ERROR_NONE;
 8005f14:	4b09      	ldr	r3, [pc, #36]	@ (8005f3c <FLASH_MassErase+0x2c>)
 8005f16:	2200      	movs	r2, #0
 8005f18:	61da      	str	r2, [r3, #28]

    /* Only bank1 will be erased*/
    SET_BIT(FLASH->CR, FLASH_CR_MER);
 8005f1a:	4b09      	ldr	r3, [pc, #36]	@ (8005f40 <FLASH_MassErase+0x30>)
 8005f1c:	691b      	ldr	r3, [r3, #16]
 8005f1e:	4a08      	ldr	r2, [pc, #32]	@ (8005f40 <FLASH_MassErase+0x30>)
 8005f20:	f043 0304 	orr.w	r3, r3, #4
 8005f24:	6113      	str	r3, [r2, #16]
    SET_BIT(FLASH->CR, FLASH_CR_STRT);
 8005f26:	4b06      	ldr	r3, [pc, #24]	@ (8005f40 <FLASH_MassErase+0x30>)
 8005f28:	691b      	ldr	r3, [r3, #16]
 8005f2a:	4a05      	ldr	r2, [pc, #20]	@ (8005f40 <FLASH_MassErase+0x30>)
 8005f2c:	f043 0340 	orr.w	r3, r3, #64	@ 0x40
 8005f30:	6113      	str	r3, [r2, #16]
}
 8005f32:	bf00      	nop
 8005f34:	46bd      	mov	sp, r7
 8005f36:	bc80      	pop	{r7}
 8005f38:	4770      	bx	lr
 8005f3a:	bf00      	nop
 8005f3c:	20000a50 	.word	0x20000a50
 8005f40:	40022000 	.word	0x40022000

08005f44 <FLASH_PageErase>:
  *         The value of this parameter depend on device used within the same series
  *
  * @retval None
  */
void FLASH_PageErase(uint32_t PageAddress)
{
 8005f44:	b480      	push	{r7}
 8005f46:	b083      	sub	sp, #12
 8005f48:	af00      	add	r7, sp, #0
 8005f4a:	6078      	str	r0, [r7, #4]
  /* Clean the error context */
  pFlash.ErrorCode = HAL_FLASH_ERROR_NONE;
 8005f4c:	4b0b      	ldr	r3, [pc, #44]	@ (8005f7c <FLASH_PageErase+0x38>)
 8005f4e:	2200      	movs	r2, #0
 8005f50:	61da      	str	r2, [r3, #28]

    /* Proceed to erase the page */
    SET_BIT(FLASH->CR, FLASH_CR_PER);
 8005f52:	4b0b      	ldr	r3, [pc, #44]	@ (8005f80 <FLASH_PageErase+0x3c>)
 8005f54:	691b      	ldr	r3, [r3, #16]
 8005f56:	4a0a      	ldr	r2, [pc, #40]	@ (8005f80 <FLASH_PageErase+0x3c>)
 8005f58:	f043 0302 	orr.w	r3, r3, #2
 8005f5c:	6113      	str	r3, [r2, #16]
    WRITE_REG(FLASH->AR, PageAddress);
 8005f5e:	4a08      	ldr	r2, [pc, #32]	@ (8005f80 <FLASH_PageErase+0x3c>)
 8005f60:	687b      	ldr	r3, [r7, #4]
 8005f62:	6153      	str	r3, [r2, #20]
    SET_BIT(FLASH->CR, FLASH_CR_STRT);
 8005f64:	4b06      	ldr	r3, [pc, #24]	@ (8005f80 <FLASH_PageErase+0x3c>)
 8005f66:	691b      	ldr	r3, [r3, #16]
 8005f68:	4a05      	ldr	r2, [pc, #20]	@ (8005f80 <FLASH_PageErase+0x3c>)
 8005f6a:	f043 0340 	orr.w	r3, r3, #64	@ 0x40
 8005f6e:	6113      	str	r3, [r2, #16]
}
 8005f70:	bf00      	nop
 8005f72:	370c      	adds	r7, #12
 8005f74:	46bd      	mov	sp, r7
 8005f76:	bc80      	pop	{r7}
 8005f78:	4770      	bx	lr
 8005f7a:	bf00      	nop
 8005f7c:	20000a50 	.word	0x20000a50
 8005f80:	40022000 	.word	0x40022000

08005f84 <HAL_GPIO_Init>:
  * @param  GPIO_Init pointer to a GPIO_InitTypeDef structure that contains
  *         the configuration information for the specified GPIO peripheral.
  * @retval None
  */
void HAL_GPIO_Init(GPIO_TypeDef  *GPIOx, GPIO_InitTypeDef *GPIO_Init)
{
 8005f84:	b480      	push	{r7}
 8005f86:	b087      	sub	sp, #28
 8005f88:	af00      	add	r7, sp, #0
 8005f8a:	6078      	str	r0, [r7, #4]
 8005f8c:	6039      	str	r1, [r7, #0]
  uint32_t position = 0x00u;
 8005f8e:	2300      	movs	r3, #0
 8005f90:	617b      	str	r3, [r7, #20]
  assert_param(IS_GPIO_ALL_INSTANCE(GPIOx));
  assert_param(IS_GPIO_PIN(GPIO_Init->Pin));
  assert_param(IS_GPIO_MODE(GPIO_Init->Mode));

  /* Configure the port pins */
  while (((GPIO_Init->Pin) >> position) != 0x00u)
 8005f92:	e160      	b.n	8006256 <HAL_GPIO_Init+0x2d2>
  {
    /* Get current io position */
    iocurrent = (GPIO_Init->Pin) & (1uL << position);
 8005f94:	683b      	ldr	r3, [r7, #0]
 8005f96:	681a      	ldr	r2, [r3, #0]
 8005f98:	2101      	movs	r1, #1
 8005f9a:	697b      	ldr	r3, [r7, #20]
 8005f9c:	fa01 f303 	lsl.w	r3, r1, r3
 8005fa0:	4013      	ands	r3, r2
 8005fa2:	60fb      	str	r3, [r7, #12]

    if (iocurrent != 0x00u)
 8005fa4:	68fb      	ldr	r3, [r7, #12]
 8005fa6:	2b00      	cmp	r3, #0
 8005fa8:	f000 8152 	beq.w	8006250 <HAL_GPIO_Init+0x2cc>
    {
      /*--------------------- GPIO Mode Configuration ------------------------*/
      /* In case of Output or Alternate function mode selection */
      if(((GPIO_Init->Mode & GPIO_MODE) == MODE_OUTPUT) || ((GPIO_Init->Mode & GPIO_MODE) == MODE_AF))
 8005fac:	683b      	ldr	r3, [r7, #0]
 8005fae:	685b      	ldr	r3, [r3, #4]
 8005fb0:	f003 0303 	and.w	r3, r3, #3
 8005fb4:	2b01      	cmp	r3, #1
 8005fb6:	d005      	beq.n	8005fc4 <HAL_GPIO_Init+0x40>
 8005fb8:	683b      	ldr	r3, [r7, #0]
 8005fba:	685b      	ldr	r3, [r3, #4]
 8005fbc:	f003 0303 	and.w	r3, r3, #3
 8005fc0:	2b02      	cmp	r3, #2
 8005fc2:	d130      	bne.n	8006026 <HAL_GPIO_Init+0xa2>
      {
        /* Check the Speed parameter */
        assert_param(IS_GPIO_SPEED(GPIO_Init->Speed));
        /* Configure the IO Speed */
        temp = GPIOx->OSPEEDR;
 8005fc4:	687b      	ldr	r3, [r7, #4]
 8005fc6:	689b      	ldr	r3, [r3, #8]
 8005fc8:	613b      	str	r3, [r7, #16]
        temp &= ~(GPIO_OSPEEDER_OSPEEDR0 << (position * 2u));
 8005fca:	697b      	ldr	r3, [r7, #20]
 8005fcc:	005b      	lsls	r3, r3, #1
 8005fce:	2203      	movs	r2, #3
 8005fd0:	fa02 f303 	lsl.w	r3, r2, r3
 8005fd4:	43db      	mvns	r3, r3
 8005fd6:	693a      	ldr	r2, [r7, #16]
 8005fd8:	4013      	ands	r3, r2
 8005fda:	613b      	str	r3, [r7, #16]
        temp |= (GPIO_Init->Speed << (position * 2u));
 8005fdc:	683b      	ldr	r3, [r7, #0]
 8005fde:	68da      	ldr	r2, [r3, #12]
 8005fe0:	697b      	ldr	r3, [r7, #20]
 8005fe2:	005b      	lsls	r3, r3, #1
 8005fe4:	fa02 f303 	lsl.w	r3, r2, r3
 8005fe8:	693a      	ldr	r2, [r7, #16]
 8005fea:	4313      	orrs	r3, r2
 8005fec:	613b      	str	r3, [r7, #16]
        GPIOx->OSPEEDR = temp;
 8005fee:	687b      	ldr	r3, [r7, #4]
 8005ff0:	693a      	ldr	r2, [r7, #16]
 8005ff2:	609a      	str	r2, [r3, #8]

        /* Configure the IO Output Type */
        temp = GPIOx->OTYPER;
 8005ff4:	687b      	ldr	r3, [r7, #4]
 8005ff6:	685b      	ldr	r3, [r3, #4]
 8005ff8:	613b      	str	r3, [r7, #16]
        temp &= ~(GPIO_OTYPER_OT_0 << position) ;
 8005ffa:	2201      	movs	r2, #1
 8005ffc:	697b      	ldr	r3, [r7, #20]
 8005ffe:	fa02 f303 	lsl.w	r3, r2, r3
 8006002:	43db      	mvns	r3, r3
 8006004:	693a      	ldr	r2, [r7, #16]
 8006006:	4013      	ands	r3, r2
 8006008:	613b      	str	r3, [r7, #16]
        temp |= (((GPIO_Init->Mode & OUTPUT_TYPE) >> OUTPUT_TYPE_Pos) << position);
 800600a:	683b      	ldr	r3, [r7, #0]
 800600c:	685b      	ldr	r3, [r3, #4]
 800600e:	091b      	lsrs	r3, r3, #4
 8006010:	f003 0201 	and.w	r2, r3, #1
 8006014:	697b      	ldr	r3, [r7, #20]
 8006016:	fa02 f303 	lsl.w	r3, r2, r3
 800601a:	693a      	ldr	r2, [r7, #16]
 800601c:	4313      	orrs	r3, r2
 800601e:	613b      	str	r3, [r7, #16]
        GPIOx->OTYPER = temp;
 8006020:	687b      	ldr	r3, [r7, #4]
 8006022:	693a      	ldr	r2, [r7, #16]
 8006024:	605a      	str	r2, [r3, #4]
      }

      if((GPIO_Init->Mode & GPIO_MODE) != MODE_ANALOG)
 8006026:	683b      	ldr	r3, [r7, #0]
 8006028:	685b      	ldr	r3, [r3, #4]
 800602a:	f003 0303 	and.w	r3, r3, #3
 800602e:	2b03      	cmp	r3, #3
 8006030:	d017      	beq.n	8006062 <HAL_GPIO_Init+0xde>
      {
        /* Check the Pull parameter */
        assert_param(IS_GPIO_PULL(GPIO_Init->Pull));

        /* Activate the Pull-up or Pull down resistor for the current IO */
        temp = GPIOx->PUPDR;
 8006032:	687b      	ldr	r3, [r7, #4]
 8006034:	68db      	ldr	r3, [r3, #12]
 8006036:	613b      	str	r3, [r7, #16]
        temp &= ~(GPIO_PUPDR_PUPDR0 << (position * 2u));
 8006038:	697b      	ldr	r3, [r7, #20]
 800603a:	005b      	lsls	r3, r3, #1
 800603c:	2203      	movs	r2, #3
 800603e:	fa02 f303 	lsl.w	r3, r2, r3
 8006042:	43db      	mvns	r3, r3
 8006044:	693a      	ldr	r2, [r7, #16]
 8006046:	4013      	ands	r3, r2
 8006048:	613b      	str	r3, [r7, #16]
        temp |= ((GPIO_Init->Pull) << (position * 2u));
 800604a:	683b      	ldr	r3, [r7, #0]
 800604c:	689a      	ldr	r2, [r3, #8]
 800604e:	697b      	ldr	r3, [r7, #20]
 8006050:	005b      	lsls	r3, r3, #1
 8006052:	fa02 f303 	lsl.w	r3, r2, r3
 8006056:	693a      	ldr	r2, [r7, #16]
 8006058:	4313      	orrs	r3, r2
 800605a:	613b      	str	r3, [r7, #16]
        GPIOx->PUPDR = temp;
 800605c:	687b      	ldr	r3, [r7, #4]
 800605e:	693a      	ldr	r2, [r7, #16]
 8006060:	60da      	str	r2, [r3, #12]
      }

      /*--------------------- GPIO Mode Configuration ------------------------*/
      /* In case of Alternate function mode selection */
      if((GPIO_Init->Mode & GPIO_MODE) == MODE_AF)
 8006062:	683b      	ldr	r3, [r7, #0]
 8006064:	685b      	ldr	r3, [r3, #4]
 8006066:	f003 0303 	and.w	r3, r3, #3
 800606a:	2b02      	cmp	r3, #2
 800606c:	d123      	bne.n	80060b6 <HAL_GPIO_Init+0x132>
        /* Check the Alternate function parameters */
        assert_param(IS_GPIO_AF_INSTANCE(GPIOx));
        assert_param(IS_GPIO_AF(GPIO_Init->Alternate));

        /* Configure Alternate function mapped with the current IO */
        temp = GPIOx->AFR[position >> 3u];
 800606e:	697b      	ldr	r3, [r7, #20]
 8006070:	08da      	lsrs	r2, r3, #3
 8006072:	687b      	ldr	r3, [r7, #4]
 8006074:	3208      	adds	r2, #8
 8006076:	f853 3022 	ldr.w	r3, [r3, r2, lsl #2]
 800607a:	613b      	str	r3, [r7, #16]
        temp &= ~(0xFu << ((position & 0x07u) * 4u));
 800607c:	697b      	ldr	r3, [r7, #20]
 800607e:	f003 0307 	and.w	r3, r3, #7
 8006082:	009b      	lsls	r3, r3, #2
 8006084:	220f      	movs	r2, #15
 8006086:	fa02 f303 	lsl.w	r3, r2, r3
 800608a:	43db      	mvns	r3, r3
 800608c:	693a      	ldr	r2, [r7, #16]
 800608e:	4013      	ands	r3, r2
 8006090:	613b      	str	r3, [r7, #16]
        temp |= ((GPIO_Init->Alternate) << ((position & 0x07u) * 4u));
 8006092:	683b      	ldr	r3, [r7, #0]
 8006094:	691a      	ldr	r2, [r3, #16]
 8006096:	697b      	ldr	r3, [r7, #20]
 8006098:	f003 0307 	and.w	r3, r3, #7
 800609c:	009b      	lsls	r3, r3, #2
 800609e:	fa02 f303 	lsl.w	r3, r2, r3
 80060a2:	693a      	ldr	r2, [r7, #16]
 80060a4:	4313      	orrs	r3, r2
 80060a6:	613b      	str	r3, [r7, #16]
        GPIOx->AFR[position >> 3u] = temp;
 80060a8:	697b      	ldr	r3, [r7, #20]
 80060aa:	08da      	lsrs	r2, r3, #3
 80060ac:	687b      	ldr	r3, [r7, #4]
 80060ae:	3208      	adds	r2, #8
 80060b0:	6939      	ldr	r1, [r7, #16]
 80060b2:	f843 1022 	str.w	r1, [r3, r2, lsl #2]
      }

      /* Configure IO Direction mode (Input, Output, Alternate or Analog) */
      temp = GPIOx->MODER;
 80060b6:	687b      	ldr	r3, [r7, #4]
 80060b8:	681b      	ldr	r3, [r3, #0]
 80060ba:	613b      	str	r3, [r7, #16]
      temp &= ~(GPIO_MODER_MODER0 << (position * 2u));
 80060bc:	697b      	ldr	r3, [r7, #20]
 80060be:	005b      	lsls	r3, r3, #1
 80060c0:	2203      	movs	r2, #3
 80060c2:	fa02 f303 	lsl.w	r3, r2, r3
 80060c6:	43db      	mvns	r3, r3
 80060c8:	693a      	ldr	r2, [r7, #16]
 80060ca:	4013      	ands	r3, r2
 80060cc:	613b      	str	r3, [r7, #16]
      temp |= ((GPIO_Init->Mode & GPIO_MODE) << (position * 2u));
 80060ce:	683b      	ldr	r3, [r7, #0]
 80060d0:	685b      	ldr	r3, [r3, #4]
 80060d2:	f003 0203 	and.w	r2, r3, #3
 80060d6:	697b      	ldr	r3, [r7, #20]
 80060d8:	005b      	lsls	r3, r3, #1
 80060da:	fa02 f303 	lsl.w	r3, r2, r3
 80060de:	693a      	ldr	r2, [r7, #16]
 80060e0:	4313      	orrs	r3, r2
 80060e2:	613b      	str	r3, [r7, #16]
      GPIOx->MODER = temp;
 80060e4:	687b      	ldr	r3, [r7, #4]
 80060e6:	693a      	ldr	r2, [r7, #16]
 80060e8:	601a      	str	r2, [r3, #0]

      /*--------------------- EXTI Mode Configuration ------------------------*/
      /* Configure the External Interrupt or event for the current IO */
      if((GPIO_Init->Mode & EXTI_MODE) != 0x00u)
 80060ea:	683b      	ldr	r3, [r7, #0]
 80060ec:	685b      	ldr	r3, [r3, #4]
 80060ee:	f403 3340 	and.w	r3, r3, #196608	@ 0x30000
 80060f2:	2b00      	cmp	r3, #0
 80060f4:	f000 80ac 	beq.w	8006250 <HAL_GPIO_Init+0x2cc>
      {
        /* Enable SYSCFG Clock */
        __HAL_RCC_SYSCFG_CLK_ENABLE();
 80060f8:	4b5e      	ldr	r3, [pc, #376]	@ (8006274 <HAL_GPIO_Init+0x2f0>)
 80060fa:	699b      	ldr	r3, [r3, #24]
 80060fc:	4a5d      	ldr	r2, [pc, #372]	@ (8006274 <HAL_GPIO_Init+0x2f0>)
 80060fe:	f043 0301 	orr.w	r3, r3, #1
 8006102:	6193      	str	r3, [r2, #24]
 8006104:	4b5b      	ldr	r3, [pc, #364]	@ (8006274 <HAL_GPIO_Init+0x2f0>)
 8006106:	699b      	ldr	r3, [r3, #24]
 8006108:	f003 0301 	and.w	r3, r3, #1
 800610c:	60bb      	str	r3, [r7, #8]
 800610e:	68bb      	ldr	r3, [r7, #8]

        temp = SYSCFG->EXTICR[position >> 2u];
 8006110:	4a59      	ldr	r2, [pc, #356]	@ (8006278 <HAL_GPIO_Init+0x2f4>)
 8006112:	697b      	ldr	r3, [r7, #20]
 8006114:	089b      	lsrs	r3, r3, #2
 8006116:	3302      	adds	r3, #2
 8006118:	f852 3023 	ldr.w	r3, [r2, r3, lsl #2]
 800611c:	613b      	str	r3, [r7, #16]
        temp &= ~(0x0FuL << (4u * (position & 0x03u)));
 800611e:	697b      	ldr	r3, [r7, #20]
 8006120:	f003 0303 	and.w	r3, r3, #3
 8006124:	009b      	lsls	r3, r3, #2
 8006126:	220f      	movs	r2, #15
 8006128:	fa02 f303 	lsl.w	r3, r2, r3
 800612c:	43db      	mvns	r3, r3
 800612e:	693a      	ldr	r2, [r7, #16]
 8006130:	4013      	ands	r3, r2
 8006132:	613b      	str	r3, [r7, #16]
        temp |= (GPIO_GET_INDEX(GPIOx) << (4u * (position & 0x03u)));
 8006134:	687b      	ldr	r3, [r7, #4]
 8006136:	f1b3 4f90 	cmp.w	r3, #1207959552	@ 0x48000000
 800613a:	d025      	beq.n	8006188 <HAL_GPIO_Init+0x204>
 800613c:	687b      	ldr	r3, [r7, #4]
 800613e:	4a4f      	ldr	r2, [pc, #316]	@ (800627c <HAL_GPIO_Init+0x2f8>)
 8006140:	4293      	cmp	r3, r2
 8006142:	d01f      	beq.n	8006184 <HAL_GPIO_Init+0x200>
 8006144:	687b      	ldr	r3, [r7, #4]
 8006146:	4a4e      	ldr	r2, [pc, #312]	@ (8006280 <HAL_GPIO_Init+0x2fc>)
 8006148:	4293      	cmp	r3, r2
 800614a:	d019      	beq.n	8006180 <HAL_GPIO_Init+0x1fc>
 800614c:	687b      	ldr	r3, [r7, #4]
 800614e:	4a4d      	ldr	r2, [pc, #308]	@ (8006284 <HAL_GPIO_Init+0x300>)
 8006150:	4293      	cmp	r3, r2
 8006152:	d013      	beq.n	800617c <HAL_GPIO_Init+0x1f8>
 8006154:	687b      	ldr	r3, [r7, #4]
 8006156:	4a4c      	ldr	r2, [pc, #304]	@ (8006288 <HAL_GPIO_Init+0x304>)
 8006158:	4293      	cmp	r3, r2
 800615a:	d00d      	beq.n	8006178 <HAL_GPIO_Init+0x1f4>
 800615c:	687b      	ldr	r3, [r7, #4]
 800615e:	4a4b      	ldr	r2, [pc, #300]	@ (800628c <HAL_GPIO_Init+0x308>)
 8006160:	4293      	cmp	r3, r2
 8006162:	d007      	beq.n	8006174 <HAL_GPIO_Init+0x1f0>
 8006164:	687b      	ldr	r3, [r7, #4]
 8006166:	4a4a      	ldr	r2, [pc, #296]	@ (8006290 <HAL_GPIO_Init+0x30c>)
 8006168:	4293      	cmp	r3, r2
 800616a:	d101      	bne.n	8006170 <HAL_GPIO_Init+0x1ec>
 800616c:	2306      	movs	r3, #6
 800616e:	e00c      	b.n	800618a <HAL_GPIO_Init+0x206>
 8006170:	2307      	movs	r3, #7
 8006172:	e00a      	b.n	800618a <HAL_GPIO_Init+0x206>
 8006174:	2305      	movs	r3, #5
 8006176:	e008      	b.n	800618a <HAL_GPIO_Init+0x206>
 8006178:	2304      	movs	r3, #4
 800617a:	e006      	b.n	800618a <HAL_GPIO_Init+0x206>
 800617c:	2303      	movs	r3, #3
 800617e:	e004      	b.n	800618a <HAL_GPIO_Init+0x206>
 8006180:	2302      	movs	r3, #2
 8006182:	e002      	b.n	800618a <HAL_GPIO_Init+0x206>
 8006184:	2301      	movs	r3, #1
 8006186:	e000      	b.n	800618a <HAL_GPIO_Init+0x206>
 8006188:	2300      	movs	r3, #0
 800618a:	697a      	ldr	r2, [r7, #20]
 800618c:	f002 0203 	and.w	r2, r2, #3
 8006190:	0092      	lsls	r2, r2, #2
 8006192:	4093      	lsls	r3, r2
 8006194:	693a      	ldr	r2, [r7, #16]
 8006196:	4313      	orrs	r3, r2
 8006198:	613b      	str	r3, [r7, #16]
        SYSCFG->EXTICR[position >> 2u] = temp;
 800619a:	4937      	ldr	r1, [pc, #220]	@ (8006278 <HAL_GPIO_Init+0x2f4>)
 800619c:	697b      	ldr	r3, [r7, #20]
 800619e:	089b      	lsrs	r3, r3, #2
 80061a0:	3302      	adds	r3, #2
 80061a2:	693a      	ldr	r2, [r7, #16]
 80061a4:	f841 2023 	str.w	r2, [r1, r3, lsl #2]

        /* Clear Rising Falling edge configuration */
        temp = EXTI->RTSR;
 80061a8:	4b3a      	ldr	r3, [pc, #232]	@ (8006294 <HAL_GPIO_Init+0x310>)
 80061aa:	689b      	ldr	r3, [r3, #8]
 80061ac:	613b      	str	r3, [r7, #16]
        temp &= ~(iocurrent);
 80061ae:	68fb      	ldr	r3, [r7, #12]
 80061b0:	43db      	mvns	r3, r3
 80061b2:	693a      	ldr	r2, [r7, #16]
 80061b4:	4013      	ands	r3, r2
 80061b6:	613b      	str	r3, [r7, #16]
        if((GPIO_Init->Mode & TRIGGER_RISING) != 0x00u)
 80061b8:	683b      	ldr	r3, [r7, #0]
 80061ba:	685b      	ldr	r3, [r3, #4]
 80061bc:	f403 1380 	and.w	r3, r3, #1048576	@ 0x100000
 80061c0:	2b00      	cmp	r3, #0
 80061c2:	d003      	beq.n	80061cc <HAL_GPIO_Init+0x248>
        {
          temp |= iocurrent;
 80061c4:	693a      	ldr	r2, [r7, #16]
 80061c6:	68fb      	ldr	r3, [r7, #12]
 80061c8:	4313      	orrs	r3, r2
 80061ca:	613b      	str	r3, [r7, #16]
        }
        EXTI->RTSR = temp;
 80061cc:	4a31      	ldr	r2, [pc, #196]	@ (8006294 <HAL_GPIO_Init+0x310>)
 80061ce:	693b      	ldr	r3, [r7, #16]
 80061d0:	6093      	str	r3, [r2, #8]

        temp = EXTI->FTSR;
 80061d2:	4b30      	ldr	r3, [pc, #192]	@ (8006294 <HAL_GPIO_Init+0x310>)
 80061d4:	68db      	ldr	r3, [r3, #12]
 80061d6:	613b      	str	r3, [r7, #16]
        temp &= ~(iocurrent);
 80061d8:	68fb      	ldr	r3, [r7, #12]
 80061da:	43db      	mvns	r3, r3
 80061dc:	693a      	ldr	r2, [r7, #16]
 80061de:	4013      	ands	r3, r2
 80061e0:	613b      	str	r3, [r7, #16]
        if((GPIO_Init->Mode & TRIGGER_FALLING) != 0x00u)
 80061e2:	683b      	ldr	r3, [r7, #0]
 80061e4:	685b      	ldr	r3, [r3, #4]
 80061e6:	f403 1300 	and.w	r3, r3, #2097152	@ 0x200000
 80061ea:	2b00      	cmp	r3, #0
 80061ec:	d003      	beq.n	80061f6 <HAL_GPIO_Init+0x272>
        {
          temp |= iocurrent;
 80061ee:	693a      	ldr	r2, [r7, #16]
 80061f0:	68fb      	ldr	r3, [r7, #12]
 80061f2:	4313      	orrs	r3, r2
 80061f4:	613b      	str	r3, [r7, #16]
        }
        EXTI->FTSR = temp;
 80061f6:	4a27      	ldr	r2, [pc, #156]	@ (8006294 <HAL_GPIO_Init+0x310>)
 80061f8:	693b      	ldr	r3, [r7, #16]
 80061fa:	60d3      	str	r3, [r2, #12]

        temp = EXTI->EMR;
 80061fc:	4b25      	ldr	r3, [pc, #148]	@ (8006294 <HAL_GPIO_Init+0x310>)
 80061fe:	685b      	ldr	r3, [r3, #4]
 8006200:	613b      	str	r3, [r7, #16]
        temp &= ~(iocurrent);
 8006202:	68fb      	ldr	r3, [r7, #12]
 8006204:	43db      	mvns	r3, r3
 8006206:	693a      	ldr	r2, [r7, #16]
 8006208:	4013      	ands	r3, r2
 800620a:	613b      	str	r3, [r7, #16]
        if((GPIO_Init->Mode & EXTI_EVT) != 0x00u)
 800620c:	683b      	ldr	r3, [r7, #0]
 800620e:	685b      	ldr	r3, [r3, #4]
 8006210:	f403 3300 	and.w	r3, r3, #131072	@ 0x20000
 8006214:	2b00      	cmp	r3, #0
 8006216:	d003      	beq.n	8006220 <HAL_GPIO_Init+0x29c>
        {
          temp |= iocurrent;
 8006218:	693a      	ldr	r2, [r7, #16]
 800621a:	68fb      	ldr	r3, [r7, #12]
 800621c:	4313      	orrs	r3, r2
 800621e:	613b      	str	r3, [r7, #16]
        }
        EXTI->EMR = temp;
 8006220:	4a1c      	ldr	r2, [pc, #112]	@ (8006294 <HAL_GPIO_Init+0x310>)
 8006222:	693b      	ldr	r3, [r7, #16]
 8006224:	6053      	str	r3, [r2, #4]

        /* Clear EXTI line configuration */
        temp = EXTI->IMR;
 8006226:	4b1b      	ldr	r3, [pc, #108]	@ (8006294 <HAL_GPIO_Init+0x310>)
 8006228:	681b      	ldr	r3, [r3, #0]
 800622a:	613b      	str	r3, [r7, #16]
        temp &= ~(iocurrent);
 800622c:	68fb      	ldr	r3, [r7, #12]
 800622e:	43db      	mvns	r3, r3
 8006230:	693a      	ldr	r2, [r7, #16]
 8006232:	4013      	ands	r3, r2
 8006234:	613b      	str	r3, [r7, #16]
        if((GPIO_Init->Mode & EXTI_IT) != 0x00u)
 8006236:	683b      	ldr	r3, [r7, #0]
 8006238:	685b      	ldr	r3, [r3, #4]
 800623a:	f403 3380 	and.w	r3, r3, #65536	@ 0x10000
 800623e:	2b00      	cmp	r3, #0
 8006240:	d003      	beq.n	800624a <HAL_GPIO_Init+0x2c6>
        {
          temp |= iocurrent;
 8006242:	693a      	ldr	r2, [r7, #16]
 8006244:	68fb      	ldr	r3, [r7, #12]
 8006246:	4313      	orrs	r3, r2
 8006248:	613b      	str	r3, [r7, #16]
        }
        EXTI->IMR = temp;
 800624a:	4a12      	ldr	r2, [pc, #72]	@ (8006294 <HAL_GPIO_Init+0x310>)
 800624c:	693b      	ldr	r3, [r7, #16]
 800624e:	6013      	str	r3, [r2, #0]
      }
    }

    position++;
 8006250:	697b      	ldr	r3, [r7, #20]
 8006252:	3301      	adds	r3, #1
 8006254:	617b      	str	r3, [r7, #20]
  while (((GPIO_Init->Pin) >> position) != 0x00u)
 8006256:	683b      	ldr	r3, [r7, #0]
 8006258:	681a      	ldr	r2, [r3, #0]
 800625a:	697b      	ldr	r3, [r7, #20]
 800625c:	fa22 f303 	lsr.w	r3, r2, r3
 8006260:	2b00      	cmp	r3, #0
 8006262:	f47f ae97 	bne.w	8005f94 <HAL_GPIO_Init+0x10>
  }
}
 8006266:	bf00      	nop
 8006268:	bf00      	nop
 800626a:	371c      	adds	r7, #28
 800626c:	46bd      	mov	sp, r7
 800626e:	bc80      	pop	{r7}
 8006270:	4770      	bx	lr
 8006272:	bf00      	nop
 8006274:	40021000 	.word	0x40021000
 8006278:	40010000 	.word	0x40010000
 800627c:	48000400 	.word	0x48000400
 8006280:	48000800 	.word	0x48000800
 8006284:	48000c00 	.word	0x48000c00
 8006288:	48001000 	.word	0x48001000
 800628c:	48001400 	.word	0x48001400
 8006290:	48001800 	.word	0x48001800
 8006294:	40010400 	.word	0x40010400

08006298 <HAL_GPIO_ReadPin>:
  * @param  GPIO_Pin specifies the port bit to read.
  *         This parameter can be GPIO_PIN_x where x can be (0..15).
  * @retval The input port pin value.
  */
GPIO_PinState HAL_GPIO_ReadPin(GPIO_TypeDef* GPIOx, uint16_t GPIO_Pin)
{
 8006298:	b480      	push	{r7}
 800629a:	b085      	sub	sp, #20
 800629c:	af00      	add	r7, sp, #0
 800629e:	6078      	str	r0, [r7, #4]
 80062a0:	460b      	mov	r3, r1
 80062a2:	807b      	strh	r3, [r7, #2]
  GPIO_PinState bitstatus;

  /* Check the parameters */
  assert_param(IS_GPIO_PIN(GPIO_Pin));

  if((GPIOx->IDR & GPIO_Pin) != (uint32_t)GPIO_PIN_RESET)
 80062a4:	687b      	ldr	r3, [r7, #4]
 80062a6:	691a      	ldr	r2, [r3, #16]
 80062a8:	887b      	ldrh	r3, [r7, #2]
 80062aa:	4013      	ands	r3, r2
 80062ac:	2b00      	cmp	r3, #0
 80062ae:	d002      	beq.n	80062b6 <HAL_GPIO_ReadPin+0x1e>
  {
    bitstatus = GPIO_PIN_SET;
 80062b0:	2301      	movs	r3, #1
 80062b2:	73fb      	strb	r3, [r7, #15]
 80062b4:	e001      	b.n	80062ba <HAL_GPIO_ReadPin+0x22>
  }
  else
  {
    bitstatus = GPIO_PIN_RESET;
 80062b6:	2300      	movs	r3, #0
 80062b8:	73fb      	strb	r3, [r7, #15]
  }
  return bitstatus;
 80062ba:	7bfb      	ldrb	r3, [r7, #15]
}
 80062bc:	4618      	mov	r0, r3
 80062be:	3714      	adds	r7, #20
 80062c0:	46bd      	mov	sp, r7
 80062c2:	bc80      	pop	{r7}
 80062c4:	4770      	bx	lr

080062c6 <HAL_GPIO_WritePin>:
  *            @arg GPIO_PIN_RESET: to clear the port pin
  *            @arg GPIO_PIN_SET: to set the port pin
  * @retval None
  */
void HAL_GPIO_WritePin(GPIO_TypeDef* GPIOx, uint16_t GPIO_Pin, GPIO_PinState PinState)
{
 80062c6:	b480      	push	{r7}
 80062c8:	b083      	sub	sp, #12
 80062ca:	af00      	add	r7, sp, #0
 80062cc:	6078      	str	r0, [r7, #4]
 80062ce:	460b      	mov	r3, r1
 80062d0:	807b      	strh	r3, [r7, #2]
 80062d2:	4613      	mov	r3, r2
 80062d4:	707b      	strb	r3, [r7, #1]
  /* Check the parameters */
  assert_param(IS_GPIO_PIN(GPIO_Pin));
  assert_param(IS_GPIO_PIN_ACTION(PinState));

  if(PinState != GPIO_PIN_RESET)
 80062d6:	787b      	ldrb	r3, [r7, #1]
 80062d8:	2b00      	cmp	r3, #0
 80062da:	d003      	beq.n	80062e4 <HAL_GPIO_WritePin+0x1e>
  {
    GPIOx->BSRR = (uint32_t)GPIO_Pin;
 80062dc:	887a      	ldrh	r2, [r7, #2]
 80062de:	687b      	ldr	r3, [r7, #4]
 80062e0:	619a      	str	r2, [r3, #24]
  }
  else
  {
    GPIOx->BRR = (uint32_t)GPIO_Pin;
  }
}
 80062e2:	e002      	b.n	80062ea <HAL_GPIO_WritePin+0x24>
    GPIOx->BRR = (uint32_t)GPIO_Pin;
 80062e4:	887a      	ldrh	r2, [r7, #2]
 80062e6:	687b      	ldr	r3, [r7, #4]
 80062e8:	629a      	str	r2, [r3, #40]	@ 0x28
}
 80062ea:	bf00      	nop
 80062ec:	370c      	adds	r7, #12
 80062ee:	46bd      	mov	sp, r7
 80062f0:	bc80      	pop	{r7}
 80062f2:	4770      	bx	lr

080062f4 <HAL_RCC_OscConfig>:
  *         supported by this macro. User should request a transition to HSE Off
  *         first and then HSE On or HSE Bypass.
  * @retval HAL status
  */
HAL_StatusTypeDef HAL_RCC_OscConfig(RCC_OscInitTypeDef  *RCC_OscInitStruct)
{
 80062f4:	b580      	push	{r7, lr}
 80062f6:	f5ad 7d02 	sub.w	sp, sp, #520	@ 0x208
 80062fa:	af00      	add	r7, sp, #0
 80062fc:	f507 7302 	add.w	r3, r7, #520	@ 0x208
 8006300:	f5a3 7301 	sub.w	r3, r3, #516	@ 0x204
 8006304:	6018      	str	r0, [r3, #0]
#if defined(RCC_CFGR_PLLSRC_HSI_PREDIV)
  uint32_t pll_config2;
#endif /* RCC_CFGR_PLLSRC_HSI_PREDIV */

  /* Check Null pointer */
  if(RCC_OscInitStruct == NULL)
 8006306:	f507 7302 	add.w	r3, r7, #520	@ 0x208
 800630a:	f5a3 7301 	sub.w	r3, r3, #516	@ 0x204
 800630e:	681b      	ldr	r3, [r3, #0]
 8006310:	2b00      	cmp	r3, #0
 8006312:	d102      	bne.n	800631a <HAL_RCC_OscConfig+0x26>
  {
    return HAL_ERROR;
 8006314:	2301      	movs	r3, #1
 8006316:	f001 b80a 	b.w	800732e <HAL_RCC_OscConfig+0x103a>

  /* Check the parameters */
  assert_param(IS_RCC_OSCILLATORTYPE(RCC_OscInitStruct->OscillatorType));

  /*------------------------------- HSE Configuration ------------------------*/ 
  if(((RCC_OscInitStruct->OscillatorType) & RCC_OSCILLATORTYPE_HSE) == RCC_OSCILLATORTYPE_HSE)
 800631a:	f507 7302 	add.w	r3, r7, #520	@ 0x208
 800631e:	f5a3 7301 	sub.w	r3, r3, #516	@ 0x204
 8006322:	681b      	ldr	r3, [r3, #0]
 8006324:	681b      	ldr	r3, [r3, #0]
 8006326:	f003 0301 	and.w	r3, r3, #1
 800632a:	2b00      	cmp	r3, #0
 800632c:	f000 8161 	beq.w	80065f2 <HAL_RCC_OscConfig+0x2fe>
  {
    /* Check the parameters */
    assert_param(IS_RCC_HSE(RCC_OscInitStruct->HSEState));

    /* When the HSE is used as system clock or clock source for PLL in these cases it is not allowed to be disabled */
    if((__HAL_RCC_GET_SYSCLK_SOURCE() == RCC_SYSCLKSOURCE_STATUS_HSE) 
 8006330:	4bae      	ldr	r3, [pc, #696]	@ (80065ec <HAL_RCC_OscConfig+0x2f8>)
 8006332:	685b      	ldr	r3, [r3, #4]
 8006334:	f003 030c 	and.w	r3, r3, #12
 8006338:	2b04      	cmp	r3, #4
 800633a:	d00c      	beq.n	8006356 <HAL_RCC_OscConfig+0x62>
       || ((__HAL_RCC_GET_SYSCLK_SOURCE() == RCC_SYSCLKSOURCE_STATUS_PLLCLK) && (__HAL_RCC_GET_PLL_OSCSOURCE() == RCC_PLLSOURCE_HSE)))
 800633c:	4bab      	ldr	r3, [pc, #684]	@ (80065ec <HAL_RCC_OscConfig+0x2f8>)
 800633e:	685b      	ldr	r3, [r3, #4]
 8006340:	f003 030c 	and.w	r3, r3, #12
 8006344:	2b08      	cmp	r3, #8
 8006346:	d157      	bne.n	80063f8 <HAL_RCC_OscConfig+0x104>
 8006348:	4ba8      	ldr	r3, [pc, #672]	@ (80065ec <HAL_RCC_OscConfig+0x2f8>)
 800634a:	685b      	ldr	r3, [r3, #4]
 800634c:	f403 33c0 	and.w	r3, r3, #98304	@ 0x18000
 8006350:	f5b3 3f80 	cmp.w	r3, #65536	@ 0x10000
 8006354:	d150      	bne.n	80063f8 <HAL_RCC_OscConfig+0x104>
 8006356:	f44f 3300 	mov.w	r3, #131072	@ 0x20000
 800635a:	f8c7 31f4 	str.w	r3, [r7, #500]	@ 0x1f4
  uint32_t result;

#if ((defined (__ARM_ARCH_7M__      ) && (__ARM_ARCH_7M__      == 1)) || \
     (defined (__ARM_ARCH_7EM__     ) && (__ARM_ARCH_7EM__     == 1)) || \
     (defined (__ARM_ARCH_8M_MAIN__ ) && (__ARM_ARCH_8M_MAIN__ == 1))    )
   __ASM volatile ("rbit %0, %1" : "=r" (result) : "r" (value) );
 800635e:	f8d7 31f4 	ldr.w	r3, [r7, #500]	@ 0x1f4
 8006362:	fa93 f3a3 	rbit	r3, r3
 8006366:	f8c7 31f0 	str.w	r3, [r7, #496]	@ 0x1f0
    result |= value & 1U;
    s--;
  }
  result <<= s;                        /* shift when v's highest bits are zero */
#endif
  return result;
 800636a:	f8d7 31f0 	ldr.w	r3, [r7, #496]	@ 0x1f0
    {
      if((__HAL_RCC_GET_FLAG(RCC_FLAG_HSERDY) != RESET) && (RCC_OscInitStruct->HSEState == RCC_HSE_OFF))
 800636e:	fab3 f383 	clz	r3, r3
 8006372:	b2db      	uxtb	r3, r3
 8006374:	2b3f      	cmp	r3, #63	@ 0x3f
 8006376:	d802      	bhi.n	800637e <HAL_RCC_OscConfig+0x8a>
 8006378:	4b9c      	ldr	r3, [pc, #624]	@ (80065ec <HAL_RCC_OscConfig+0x2f8>)
 800637a:	681b      	ldr	r3, [r3, #0]
 800637c:	e015      	b.n	80063aa <HAL_RCC_OscConfig+0xb6>
 800637e:	f44f 3300 	mov.w	r3, #131072	@ 0x20000
 8006382:	f8c7 31ec 	str.w	r3, [r7, #492]	@ 0x1ec
   __ASM volatile ("rbit %0, %1" : "=r" (result) : "r" (value) );
 8006386:	f8d7 31ec 	ldr.w	r3, [r7, #492]	@ 0x1ec
 800638a:	fa93 f3a3 	rbit	r3, r3
 800638e:	f8c7 31e8 	str.w	r3, [r7, #488]	@ 0x1e8
 8006392:	f44f 3300 	mov.w	r3, #131072	@ 0x20000
 8006396:	f8c7 31e4 	str.w	r3, [r7, #484]	@ 0x1e4
 800639a:	f8d7 31e4 	ldr.w	r3, [r7, #484]	@ 0x1e4
 800639e:	fa93 f3a3 	rbit	r3, r3
 80063a2:	f8c7 31e0 	str.w	r3, [r7, #480]	@ 0x1e0
 80063a6:	4b91      	ldr	r3, [pc, #580]	@ (80065ec <HAL_RCC_OscConfig+0x2f8>)
 80063a8:	6a5b      	ldr	r3, [r3, #36]	@ 0x24
 80063aa:	f44f 3200 	mov.w	r2, #131072	@ 0x20000
 80063ae:	f8c7 21dc 	str.w	r2, [r7, #476]	@ 0x1dc
 80063b2:	f8d7 21dc 	ldr.w	r2, [r7, #476]	@ 0x1dc
 80063b6:	fa92 f2a2 	rbit	r2, r2
 80063ba:	f8c7 21d8 	str.w	r2, [r7, #472]	@ 0x1d8
  return result;
 80063be:	f8d7 21d8 	ldr.w	r2, [r7, #472]	@ 0x1d8
 80063c2:	fab2 f282 	clz	r2, r2
 80063c6:	b2d2      	uxtb	r2, r2
 80063c8:	f042 0220 	orr.w	r2, r2, #32
 80063cc:	b2d2      	uxtb	r2, r2
 80063ce:	f002 021f 	and.w	r2, r2, #31
 80063d2:	2101      	movs	r1, #1
 80063d4:	fa01 f202 	lsl.w	r2, r1, r2
 80063d8:	4013      	ands	r3, r2
 80063da:	2b00      	cmp	r3, #0
 80063dc:	f000 8108 	beq.w	80065f0 <HAL_RCC_OscConfig+0x2fc>
 80063e0:	f507 7302 	add.w	r3, r7, #520	@ 0x208
 80063e4:	f5a3 7301 	sub.w	r3, r3, #516	@ 0x204
 80063e8:	681b      	ldr	r3, [r3, #0]
 80063ea:	685b      	ldr	r3, [r3, #4]
 80063ec:	2b00      	cmp	r3, #0
 80063ee:	f040 80ff 	bne.w	80065f0 <HAL_RCC_OscConfig+0x2fc>
      {
        return HAL_ERROR;
 80063f2:	2301      	movs	r3, #1
 80063f4:	f000 bf9b 	b.w	800732e <HAL_RCC_OscConfig+0x103a>
      }
    }
    else
    {
      /* Set the new HSE configuration ---------------------------------------*/
      __HAL_RCC_HSE_CONFIG(RCC_OscInitStruct->HSEState);
 80063f8:	f507 7302 	add.w	r3, r7, #520	@ 0x208
 80063fc:	f5a3 7301 	sub.w	r3, r3, #516	@ 0x204
 8006400:	681b      	ldr	r3, [r3, #0]
 8006402:	685b      	ldr	r3, [r3, #4]
 8006404:	f5b3 3f80 	cmp.w	r3, #65536	@ 0x10000
 8006408:	d106      	bne.n	8006418 <HAL_RCC_OscConfig+0x124>
 800640a:	4b78      	ldr	r3, [pc, #480]	@ (80065ec <HAL_RCC_OscConfig+0x2f8>)
 800640c:	681b      	ldr	r3, [r3, #0]
 800640e:	4a77      	ldr	r2, [pc, #476]	@ (80065ec <HAL_RCC_OscConfig+0x2f8>)
 8006410:	f443 3380 	orr.w	r3, r3, #65536	@ 0x10000
 8006414:	6013      	str	r3, [r2, #0]
 8006416:	e036      	b.n	8006486 <HAL_RCC_OscConfig+0x192>
 8006418:	f507 7302 	add.w	r3, r7, #520	@ 0x208
 800641c:	f5a3 7301 	sub.w	r3, r3, #516	@ 0x204
 8006420:	681b      	ldr	r3, [r3, #0]
 8006422:	685b      	ldr	r3, [r3, #4]
 8006424:	2b00      	cmp	r3, #0
 8006426:	d10c      	bne.n	8006442 <HAL_RCC_OscConfig+0x14e>
 8006428:	4b70      	ldr	r3, [pc, #448]	@ (80065ec <HAL_RCC_OscConfig+0x2f8>)
 800642a:	681b      	ldr	r3, [r3, #0]
 800642c:	4a6f      	ldr	r2, [pc, #444]	@ (80065ec <HAL_RCC_OscConfig+0x2f8>)
 800642e:	f423 3380 	bic.w	r3, r3, #65536	@ 0x10000
 8006432:	6013      	str	r3, [r2, #0]
 8006434:	4b6d      	ldr	r3, [pc, #436]	@ (80065ec <HAL_RCC_OscConfig+0x2f8>)
 8006436:	681b      	ldr	r3, [r3, #0]
 8006438:	4a6c      	ldr	r2, [pc, #432]	@ (80065ec <HAL_RCC_OscConfig+0x2f8>)
 800643a:	f423 2380 	bic.w	r3, r3, #262144	@ 0x40000
 800643e:	6013      	str	r3, [r2, #0]
 8006440:	e021      	b.n	8006486 <HAL_RCC_OscConfig+0x192>
 8006442:	f507 7302 	add.w	r3, r7, #520	@ 0x208
 8006446:	f5a3 7301 	sub.w	r3, r3, #516	@ 0x204
 800644a:	681b      	ldr	r3, [r3, #0]
 800644c:	685b      	ldr	r3, [r3, #4]
 800644e:	f5b3 2fa0 	cmp.w	r3, #327680	@ 0x50000
 8006452:	d10c      	bne.n	800646e <HAL_RCC_OscConfig+0x17a>
 8006454:	4b65      	ldr	r3, [pc, #404]	@ (80065ec <HAL_RCC_OscConfig+0x2f8>)
 8006456:	681b      	ldr	r3, [r3, #0]
 8006458:	4a64      	ldr	r2, [pc, #400]	@ (80065ec <HAL_RCC_OscConfig+0x2f8>)
 800645a:	f443 2380 	orr.w	r3, r3, #262144	@ 0x40000
 800645e:	6013      	str	r3, [r2, #0]
 8006460:	4b62      	ldr	r3, [pc, #392]	@ (80065ec <HAL_RCC_OscConfig+0x2f8>)
 8006462:	681b      	ldr	r3, [r3, #0]
 8006464:	4a61      	ldr	r2, [pc, #388]	@ (80065ec <HAL_RCC_OscConfig+0x2f8>)
 8006466:	f443 3380 	orr.w	r3, r3, #65536	@ 0x10000
 800646a:	6013      	str	r3, [r2, #0]
 800646c:	e00b      	b.n	8006486 <HAL_RCC_OscConfig+0x192>
 800646e:	4b5f      	ldr	r3, [pc, #380]	@ (80065ec <HAL_RCC_OscConfig+0x2f8>)
 8006470:	681b      	ldr	r3, [r3, #0]
 8006472:	4a5e      	ldr	r2, [pc, #376]	@ (80065ec <HAL_RCC_OscConfig+0x2f8>)
 8006474:	f423 3380 	bic.w	r3, r3, #65536	@ 0x10000
 8006478:	6013      	str	r3, [r2, #0]
 800647a:	4b5c      	ldr	r3, [pc, #368]	@ (80065ec <HAL_RCC_OscConfig+0x2f8>)
 800647c:	681b      	ldr	r3, [r3, #0]
 800647e:	4a5b      	ldr	r2, [pc, #364]	@ (80065ec <HAL_RCC_OscConfig+0x2f8>)
 8006480:	f423 2380 	bic.w	r3, r3, #262144	@ 0x40000
 8006484:	6013      	str	r3, [r2, #0]
      /* Configure the HSE predivision factor --------------------------------*/
      __HAL_RCC_HSE_PREDIV_CONFIG(RCC_OscInitStruct->HSEPredivValue);
#endif /* RCC_CFGR_PLLSRC_HSI_DIV2 */

       /* Check the HSE State */
      if(RCC_OscInitStruct->HSEState != RCC_HSE_OFF)
 8006486:	f507 7302 	add.w	r3, r7, #520	@ 0x208
 800648a:	f5a3 7301 	sub.w	r3, r3, #516	@ 0x204
 800648e:	681b      	ldr	r3, [r3, #0]
 8006490:	685b      	ldr	r3, [r3, #4]
 8006492:	2b00      	cmp	r3, #0
 8006494:	d054      	beq.n	8006540 <HAL_RCC_OscConfig+0x24c>
      {
        /* Get Start Tick */
        tickstart = HAL_GetTick();
 8006496:	f7ff f9bd 	bl	8005814 <HAL_GetTick>
 800649a:	f8c7 0200 	str.w	r0, [r7, #512]	@ 0x200
        
        /* Wait till HSE is ready */
        while(__HAL_RCC_GET_FLAG(RCC_FLAG_HSERDY) == RESET)
 800649e:	e00a      	b.n	80064b6 <HAL_RCC_OscConfig+0x1c2>
        {
          if((HAL_GetTick() - tickstart ) > HSE_TIMEOUT_VALUE)
 80064a0:	f7ff f9b8 	bl	8005814 <HAL_GetTick>
 80064a4:	4602      	mov	r2, r0
 80064a6:	f8d7 3200 	ldr.w	r3, [r7, #512]	@ 0x200
 80064aa:	1ad3      	subs	r3, r2, r3
 80064ac:	2b64      	cmp	r3, #100	@ 0x64
 80064ae:	d902      	bls.n	80064b6 <HAL_RCC_OscConfig+0x1c2>
          {
            return HAL_TIMEOUT;
 80064b0:	2303      	movs	r3, #3
 80064b2:	f000 bf3c 	b.w	800732e <HAL_RCC_OscConfig+0x103a>
 80064b6:	f44f 3300 	mov.w	r3, #131072	@ 0x20000
 80064ba:	f8c7 31d4 	str.w	r3, [r7, #468]	@ 0x1d4
   __ASM volatile ("rbit %0, %1" : "=r" (result) : "r" (value) );
 80064be:	f8d7 31d4 	ldr.w	r3, [r7, #468]	@ 0x1d4
 80064c2:	fa93 f3a3 	rbit	r3, r3
 80064c6:	f8c7 31d0 	str.w	r3, [r7, #464]	@ 0x1d0
  return result;
 80064ca:	f8d7 31d0 	ldr.w	r3, [r7, #464]	@ 0x1d0
        while(__HAL_RCC_GET_FLAG(RCC_FLAG_HSERDY) == RESET)
 80064ce:	fab3 f383 	clz	r3, r3
 80064d2:	b2db      	uxtb	r3, r3
 80064d4:	2b3f      	cmp	r3, #63	@ 0x3f
 80064d6:	d802      	bhi.n	80064de <HAL_RCC_OscConfig+0x1ea>
 80064d8:	4b44      	ldr	r3, [pc, #272]	@ (80065ec <HAL_RCC_OscConfig+0x2f8>)
 80064da:	681b      	ldr	r3, [r3, #0]
 80064dc:	e015      	b.n	800650a <HAL_RCC_OscConfig+0x216>
 80064de:	f44f 3300 	mov.w	r3, #131072	@ 0x20000
 80064e2:	f8c7 31cc 	str.w	r3, [r7, #460]	@ 0x1cc
   __ASM volatile ("rbit %0, %1" : "=r" (result) : "r" (value) );
 80064e6:	f8d7 31cc 	ldr.w	r3, [r7, #460]	@ 0x1cc
 80064ea:	fa93 f3a3 	rbit	r3, r3
 80064ee:	f8c7 31c8 	str.w	r3, [r7, #456]	@ 0x1c8
 80064f2:	f44f 3300 	mov.w	r3, #131072	@ 0x20000
 80064f6:	f8c7 31c4 	str.w	r3, [r7, #452]	@ 0x1c4
 80064fa:	f8d7 31c4 	ldr.w	r3, [r7, #452]	@ 0x1c4
 80064fe:	fa93 f3a3 	rbit	r3, r3
 8006502:	f8c7 31c0 	str.w	r3, [r7, #448]	@ 0x1c0
 8006506:	4b39      	ldr	r3, [pc, #228]	@ (80065ec <HAL_RCC_OscConfig+0x2f8>)
 8006508:	6a5b      	ldr	r3, [r3, #36]	@ 0x24
 800650a:	f44f 3200 	mov.w	r2, #131072	@ 0x20000
 800650e:	f8c7 21bc 	str.w	r2, [r7, #444]	@ 0x1bc
 8006512:	f8d7 21bc 	ldr.w	r2, [r7, #444]	@ 0x1bc
 8006516:	fa92 f2a2 	rbit	r2, r2
 800651a:	f8c7 21b8 	str.w	r2, [r7, #440]	@ 0x1b8
  return result;
 800651e:	f8d7 21b8 	ldr.w	r2, [r7, #440]	@ 0x1b8
 8006522:	fab2 f282 	clz	r2, r2
 8006526:	b2d2      	uxtb	r2, r2
 8006528:	f042 0220 	orr.w	r2, r2, #32
 800652c:	b2d2      	uxtb	r2, r2
 800652e:	f002 021f 	and.w	r2, r2, #31
 8006532:	2101      	movs	r1, #1
 8006534:	fa01 f202 	lsl.w	r2, r1, r2
 8006538:	4013      	ands	r3, r2
 800653a:	2b00      	cmp	r3, #0
 800653c:	d0b0      	beq.n	80064a0 <HAL_RCC_OscConfig+0x1ac>
 800653e:	e058      	b.n	80065f2 <HAL_RCC_OscConfig+0x2fe>
        }
      }
      else
      {
        /* Get Start Tick */
        tickstart = HAL_GetTick();
 8006540:	f7ff f968 	bl	8005814 <HAL_GetTick>
 8006544:	f8c7 0200 	str.w	r0, [r7, #512]	@ 0x200
        
        /* Wait till HSE is disabled */
        while(__HAL_RCC_GET_FLAG(RCC_FLAG_HSERDY) != RESET)
 8006548:	e00a      	b.n	8006560 <HAL_RCC_OscConfig+0x26c>
        {
           if((HAL_GetTick() - tickstart ) > HSE_TIMEOUT_VALUE)
 800654a:	f7ff f963 	bl	8005814 <HAL_GetTick>
 800654e:	4602      	mov	r2, r0
 8006550:	f8d7 3200 	ldr.w	r3, [r7, #512]	@ 0x200
 8006554:	1ad3      	subs	r3, r2, r3
 8006556:	2b64      	cmp	r3, #100	@ 0x64
 8006558:	d902      	bls.n	8006560 <HAL_RCC_OscConfig+0x26c>
          {
            return HAL_TIMEOUT;
 800655a:	2303      	movs	r3, #3
 800655c:	f000 bee7 	b.w	800732e <HAL_RCC_OscConfig+0x103a>
 8006560:	f44f 3300 	mov.w	r3, #131072	@ 0x20000
 8006564:	f8c7 31b4 	str.w	r3, [r7, #436]	@ 0x1b4
   __ASM volatile ("rbit %0, %1" : "=r" (result) : "r" (value) );
 8006568:	f8d7 31b4 	ldr.w	r3, [r7, #436]	@ 0x1b4
 800656c:	fa93 f3a3 	rbit	r3, r3
 8006570:	f8c7 31b0 	str.w	r3, [r7, #432]	@ 0x1b0
  return result;
 8006574:	f8d7 31b0 	ldr.w	r3, [r7, #432]	@ 0x1b0
        while(__HAL_RCC_GET_FLAG(RCC_FLAG_HSERDY) != RESET)
 8006578:	fab3 f383 	clz	r3, r3
 800657c:	b2db      	uxtb	r3, r3
 800657e:	2b3f      	cmp	r3, #63	@ 0x3f
 8006580:	d802      	bhi.n	8006588 <HAL_RCC_OscConfig+0x294>
 8006582:	4b1a      	ldr	r3, [pc, #104]	@ (80065ec <HAL_RCC_OscConfig+0x2f8>)
 8006584:	681b      	ldr	r3, [r3, #0]
 8006586:	e015      	b.n	80065b4 <HAL_RCC_OscConfig+0x2c0>
 8006588:	f44f 3300 	mov.w	r3, #131072	@ 0x20000
 800658c:	f8c7 31ac 	str.w	r3, [r7, #428]	@ 0x1ac
   __ASM volatile ("rbit %0, %1" : "=r" (result) : "r" (value) );
 8006590:	f8d7 31ac 	ldr.w	r3, [r7, #428]	@ 0x1ac
 8006594:	fa93 f3a3 	rbit	r3, r3
 8006598:	f8c7 31a8 	str.w	r3, [r7, #424]	@ 0x1a8
 800659c:	f44f 3300 	mov.w	r3, #131072	@ 0x20000
 80065a0:	f8c7 31a4 	str.w	r3, [r7, #420]	@ 0x1a4
 80065a4:	f8d7 31a4 	ldr.w	r3, [r7, #420]	@ 0x1a4
 80065a8:	fa93 f3a3 	rbit	r3, r3
 80065ac:	f8c7 31a0 	str.w	r3, [r7, #416]	@ 0x1a0
 80065b0:	4b0e      	ldr	r3, [pc, #56]	@ (80065ec <HAL_RCC_OscConfig+0x2f8>)
 80065b2:	6a5b      	ldr	r3, [r3, #36]	@ 0x24
 80065b4:	f44f 3200 	mov.w	r2, #131072	@ 0x20000
 80065b8:	f8c7 219c 	str.w	r2, [r7, #412]	@ 0x19c
 80065bc:	f8d7 219c 	ldr.w	r2, [r7, #412]	@ 0x19c
 80065c0:	fa92 f2a2 	rbit	r2, r2
 80065c4:	f8c7 2198 	str.w	r2, [r7, #408]	@ 0x198
  return result;
 80065c8:	f8d7 2198 	ldr.w	r2, [r7, #408]	@ 0x198
 80065cc:	fab2 f282 	clz	r2, r2
 80065d0:	b2d2      	uxtb	r2, r2
 80065d2:	f042 0220 	orr.w	r2, r2, #32
 80065d6:	b2d2      	uxtb	r2, r2
 80065d8:	f002 021f 	and.w	r2, r2, #31
 80065dc:	2101      	movs	r1, #1
 80065de:	fa01 f202 	lsl.w	r2, r1, r2
 80065e2:	4013      	ands	r3, r2
 80065e4:	2b00      	cmp	r3, #0
 80065e6:	d1b0      	bne.n	800654a <HAL_RCC_OscConfig+0x256>
 80065e8:	e003      	b.n	80065f2 <HAL_RCC_OscConfig+0x2fe>
 80065ea:	bf00      	nop
 80065ec:	40021000 	.word	0x40021000
      if((__HAL_RCC_GET_FLAG(RCC_FLAG_HSERDY) != RESET) && (RCC_OscInitStruct->HSEState == RCC_HSE_OFF))
 80065f0:	bf00      	nop
        }
      }
    }
  }
  /*----------------------------- HSI Configuration --------------------------*/ 
  if(((RCC_OscInitStruct->OscillatorType) & RCC_OSCILLATORTYPE_HSI) == RCC_OSCILLATORTYPE_HSI)
 80065f2:	f507 7302 	add.w	r3, r7, #520	@ 0x208
 80065f6:	f5a3 7301 	sub.w	r3, r3, #516	@ 0x204
 80065fa:	681b      	ldr	r3, [r3, #0]
 80065fc:	681b      	ldr	r3, [r3, #0]
 80065fe:	f003 0302 	and.w	r3, r3, #2
 8006602:	2b00      	cmp	r3, #0
 8006604:	f000 816d 	beq.w	80068e2 <HAL_RCC_OscConfig+0x5ee>
    /* Check the parameters */
    assert_param(IS_RCC_HSI(RCC_OscInitStruct->HSIState));
    assert_param(IS_RCC_CALIBRATION_VALUE(RCC_OscInitStruct->HSICalibrationValue));
    
    /* Check if HSI is used as system clock or as PLL source when PLL is selected as system clock */ 
    if((__HAL_RCC_GET_SYSCLK_SOURCE() == RCC_SYSCLKSOURCE_STATUS_HSI) 
 8006608:	4bcd      	ldr	r3, [pc, #820]	@ (8006940 <HAL_RCC_OscConfig+0x64c>)
 800660a:	685b      	ldr	r3, [r3, #4]
 800660c:	f003 030c 	and.w	r3, r3, #12
 8006610:	2b00      	cmp	r3, #0
 8006612:	d00c      	beq.n	800662e <HAL_RCC_OscConfig+0x33a>
       || ((__HAL_RCC_GET_SYSCLK_SOURCE() == RCC_SYSCLKSOURCE_STATUS_PLLCLK) && (__HAL_RCC_GET_PLL_OSCSOURCE() == RCC_PLLSOURCE_HSI)))
 8006614:	4bca      	ldr	r3, [pc, #808]	@ (8006940 <HAL_RCC_OscConfig+0x64c>)
 8006616:	685b      	ldr	r3, [r3, #4]
 8006618:	f003 030c 	and.w	r3, r3, #12
 800661c:	2b08      	cmp	r3, #8
 800661e:	d16e      	bne.n	80066fe <HAL_RCC_OscConfig+0x40a>
 8006620:	4bc7      	ldr	r3, [pc, #796]	@ (8006940 <HAL_RCC_OscConfig+0x64c>)
 8006622:	685b      	ldr	r3, [r3, #4]
 8006624:	f403 33c0 	and.w	r3, r3, #98304	@ 0x18000
 8006628:	f5b3 4f00 	cmp.w	r3, #32768	@ 0x8000
 800662c:	d167      	bne.n	80066fe <HAL_RCC_OscConfig+0x40a>
 800662e:	2302      	movs	r3, #2
 8006630:	f8c7 3194 	str.w	r3, [r7, #404]	@ 0x194
   __ASM volatile ("rbit %0, %1" : "=r" (result) : "r" (value) );
 8006634:	f8d7 3194 	ldr.w	r3, [r7, #404]	@ 0x194
 8006638:	fa93 f3a3 	rbit	r3, r3
 800663c:	f8c7 3190 	str.w	r3, [r7, #400]	@ 0x190
  return result;
 8006640:	f8d7 3190 	ldr.w	r3, [r7, #400]	@ 0x190
    {
      /* When HSI is used as system clock it will not disabled */
      if((__HAL_RCC_GET_FLAG(RCC_FLAG_HSIRDY) != RESET) && (RCC_OscInitStruct->HSIState != RCC_HSI_ON))
 8006644:	fab3 f383 	clz	r3, r3
 8006648:	b2db      	uxtb	r3, r3
 800664a:	2b3f      	cmp	r3, #63	@ 0x3f
 800664c:	d802      	bhi.n	8006654 <HAL_RCC_OscConfig+0x360>
 800664e:	4bbc      	ldr	r3, [pc, #752]	@ (8006940 <HAL_RCC_OscConfig+0x64c>)
 8006650:	681b      	ldr	r3, [r3, #0]
 8006652:	e013      	b.n	800667c <HAL_RCC_OscConfig+0x388>
 8006654:	2302      	movs	r3, #2
 8006656:	f8c7 318c 	str.w	r3, [r7, #396]	@ 0x18c
   __ASM volatile ("rbit %0, %1" : "=r" (result) : "r" (value) );
 800665a:	f8d7 318c 	ldr.w	r3, [r7, #396]	@ 0x18c
 800665e:	fa93 f3a3 	rbit	r3, r3
 8006662:	f8c7 3188 	str.w	r3, [r7, #392]	@ 0x188
 8006666:	2302      	movs	r3, #2
 8006668:	f8c7 3184 	str.w	r3, [r7, #388]	@ 0x184
 800666c:	f8d7 3184 	ldr.w	r3, [r7, #388]	@ 0x184
 8006670:	fa93 f3a3 	rbit	r3, r3
 8006674:	f8c7 3180 	str.w	r3, [r7, #384]	@ 0x180
 8006678:	4bb1      	ldr	r3, [pc, #708]	@ (8006940 <HAL_RCC_OscConfig+0x64c>)
 800667a:	6a5b      	ldr	r3, [r3, #36]	@ 0x24
 800667c:	2202      	movs	r2, #2
 800667e:	f8c7 217c 	str.w	r2, [r7, #380]	@ 0x17c
 8006682:	f8d7 217c 	ldr.w	r2, [r7, #380]	@ 0x17c
 8006686:	fa92 f2a2 	rbit	r2, r2
 800668a:	f8c7 2178 	str.w	r2, [r7, #376]	@ 0x178
  return result;
 800668e:	f8d7 2178 	ldr.w	r2, [r7, #376]	@ 0x178
 8006692:	fab2 f282 	clz	r2, r2
 8006696:	b2d2      	uxtb	r2, r2
 8006698:	f042 0220 	orr.w	r2, r2, #32
 800669c:	b2d2      	uxtb	r2, r2
 800669e:	f002 021f 	and.w	r2, r2, #31
 80066a2:	2101      	movs	r1, #1
 80066a4:	fa01 f202 	lsl.w	r2, r1, r2
 80066a8:	4013      	ands	r3, r2
 80066aa:	2b00      	cmp	r3, #0
 80066ac:	d00a      	beq.n	80066c4 <HAL_RCC_OscConfig+0x3d0>
 80066ae:	f507 7302 	add.w	r3, r7, #520	@ 0x208
 80066b2:	f5a3 7301 	sub.w	r3, r3, #516	@ 0x204
 80066b6:	681b      	ldr	r3, [r3, #0]
 80066b8:	68db      	ldr	r3, [r3, #12]
 80066ba:	2b01      	cmp	r3, #1
 80066bc:	d002      	beq.n	80066c4 <HAL_RCC_OscConfig+0x3d0>
      {
        return HAL_ERROR;
 80066be:	2301      	movs	r3, #1
 80066c0:	f000 be35 	b.w	800732e <HAL_RCC_OscConfig+0x103a>
      }
      /* Otherwise, just the calibration is allowed */
      else
      {
        /* Adjusts the Internal High Speed oscillator (HSI) calibration value.*/
        __HAL_RCC_HSI_CALIBRATIONVALUE_ADJUST(RCC_OscInitStruct->HSICalibrationValue);
 80066c4:	4b9e      	ldr	r3, [pc, #632]	@ (8006940 <HAL_RCC_OscConfig+0x64c>)
 80066c6:	681b      	ldr	r3, [r3, #0]
 80066c8:	f023 02f8 	bic.w	r2, r3, #248	@ 0xf8
 80066cc:	f507 7302 	add.w	r3, r7, #520	@ 0x208
 80066d0:	f5a3 7301 	sub.w	r3, r3, #516	@ 0x204
 80066d4:	681b      	ldr	r3, [r3, #0]
 80066d6:	691b      	ldr	r3, [r3, #16]
 80066d8:	21f8      	movs	r1, #248	@ 0xf8
 80066da:	f8c7 1174 	str.w	r1, [r7, #372]	@ 0x174
   __ASM volatile ("rbit %0, %1" : "=r" (result) : "r" (value) );
 80066de:	f8d7 1174 	ldr.w	r1, [r7, #372]	@ 0x174
 80066e2:	fa91 f1a1 	rbit	r1, r1
 80066e6:	f8c7 1170 	str.w	r1, [r7, #368]	@ 0x170
  return result;
 80066ea:	f8d7 1170 	ldr.w	r1, [r7, #368]	@ 0x170
 80066ee:	fab1 f181 	clz	r1, r1
 80066f2:	b2c9      	uxtb	r1, r1
 80066f4:	408b      	lsls	r3, r1
 80066f6:	4992      	ldr	r1, [pc, #584]	@ (8006940 <HAL_RCC_OscConfig+0x64c>)
 80066f8:	4313      	orrs	r3, r2
 80066fa:	600b      	str	r3, [r1, #0]
      if((__HAL_RCC_GET_FLAG(RCC_FLAG_HSIRDY) != RESET) && (RCC_OscInitStruct->HSIState != RCC_HSI_ON))
 80066fc:	e0f1      	b.n	80068e2 <HAL_RCC_OscConfig+0x5ee>
      }
    }
    else
    {
      /* Check the HSI State */
      if(RCC_OscInitStruct->HSIState != RCC_HSI_OFF)
 80066fe:	f507 7302 	add.w	r3, r7, #520	@ 0x208
 8006702:	f5a3 7301 	sub.w	r3, r3, #516	@ 0x204
 8006706:	681b      	ldr	r3, [r3, #0]
 8006708:	68db      	ldr	r3, [r3, #12]
 800670a:	2b00      	cmp	r3, #0
 800670c:	f000 8083 	beq.w	8006816 <HAL_RCC_OscConfig+0x522>
 8006710:	2301      	movs	r3, #1
 8006712:	f8c7 316c 	str.w	r3, [r7, #364]	@ 0x16c
   __ASM volatile ("rbit %0, %1" : "=r" (result) : "r" (value) );
 8006716:	f8d7 316c 	ldr.w	r3, [r7, #364]	@ 0x16c
 800671a:	fa93 f3a3 	rbit	r3, r3
 800671e:	f8c7 3168 	str.w	r3, [r7, #360]	@ 0x168
  return result;
 8006722:	f8d7 3168 	ldr.w	r3, [r7, #360]	@ 0x168
      {
       /* Enable the Internal High Speed oscillator (HSI). */
        __HAL_RCC_HSI_ENABLE();
 8006726:	fab3 f383 	clz	r3, r3
 800672a:	b2db      	uxtb	r3, r3
 800672c:	f103 5384 	add.w	r3, r3, #276824064	@ 0x10800000
 8006730:	f503 1384 	add.w	r3, r3, #1081344	@ 0x108000
 8006734:	009b      	lsls	r3, r3, #2
 8006736:	461a      	mov	r2, r3
 8006738:	2301      	movs	r3, #1
 800673a:	6013      	str	r3, [r2, #0]
        
        /* Get Start Tick */
        tickstart = HAL_GetTick();
 800673c:	f7ff f86a 	bl	8005814 <HAL_GetTick>
 8006740:	f8c7 0200 	str.w	r0, [r7, #512]	@ 0x200
        
        /* Wait till HSI is ready */
        while(__HAL_RCC_GET_FLAG(RCC_FLAG_HSIRDY) == RESET)
 8006744:	e00a      	b.n	800675c <HAL_RCC_OscConfig+0x468>
        {
          if((HAL_GetTick() - tickstart ) > HSI_TIMEOUT_VALUE)
 8006746:	f7ff f865 	bl	8005814 <HAL_GetTick>
 800674a:	4602      	mov	r2, r0
 800674c:	f8d7 3200 	ldr.w	r3, [r7, #512]	@ 0x200
 8006750:	1ad3      	subs	r3, r2, r3
 8006752:	2b02      	cmp	r3, #2
 8006754:	d902      	bls.n	800675c <HAL_RCC_OscConfig+0x468>
          {
            return HAL_TIMEOUT;
 8006756:	2303      	movs	r3, #3
 8006758:	f000 bde9 	b.w	800732e <HAL_RCC_OscConfig+0x103a>
 800675c:	2302      	movs	r3, #2
 800675e:	f8c7 3164 	str.w	r3, [r7, #356]	@ 0x164
   __ASM volatile ("rbit %0, %1" : "=r" (result) : "r" (value) );
 8006762:	f8d7 3164 	ldr.w	r3, [r7, #356]	@ 0x164
 8006766:	fa93 f3a3 	rbit	r3, r3
 800676a:	f8c7 3160 	str.w	r3, [r7, #352]	@ 0x160
  return result;
 800676e:	f8d7 3160 	ldr.w	r3, [r7, #352]	@ 0x160
        while(__HAL_RCC_GET_FLAG(RCC_FLAG_HSIRDY) == RESET)
 8006772:	fab3 f383 	clz	r3, r3
 8006776:	b2db      	uxtb	r3, r3
 8006778:	2b3f      	cmp	r3, #63	@ 0x3f
 800677a:	d802      	bhi.n	8006782 <HAL_RCC_OscConfig+0x48e>
 800677c:	4b70      	ldr	r3, [pc, #448]	@ (8006940 <HAL_RCC_OscConfig+0x64c>)
 800677e:	681b      	ldr	r3, [r3, #0]
 8006780:	e013      	b.n	80067aa <HAL_RCC_OscConfig+0x4b6>
 8006782:	2302      	movs	r3, #2
 8006784:	f8c7 315c 	str.w	r3, [r7, #348]	@ 0x15c
   __ASM volatile ("rbit %0, %1" : "=r" (result) : "r" (value) );
 8006788:	f8d7 315c 	ldr.w	r3, [r7, #348]	@ 0x15c
 800678c:	fa93 f3a3 	rbit	r3, r3
 8006790:	f8c7 3158 	str.w	r3, [r7, #344]	@ 0x158
 8006794:	2302      	movs	r3, #2
 8006796:	f8c7 3154 	str.w	r3, [r7, #340]	@ 0x154
 800679a:	f8d7 3154 	ldr.w	r3, [r7, #340]	@ 0x154
 800679e:	fa93 f3a3 	rbit	r3, r3
 80067a2:	f8c7 3150 	str.w	r3, [r7, #336]	@ 0x150
 80067a6:	4b66      	ldr	r3, [pc, #408]	@ (8006940 <HAL_RCC_OscConfig+0x64c>)
 80067a8:	6a5b      	ldr	r3, [r3, #36]	@ 0x24
 80067aa:	2202      	movs	r2, #2
 80067ac:	f8c7 214c 	str.w	r2, [r7, #332]	@ 0x14c
 80067b0:	f8d7 214c 	ldr.w	r2, [r7, #332]	@ 0x14c
 80067b4:	fa92 f2a2 	rbit	r2, r2
 80067b8:	f8c7 2148 	str.w	r2, [r7, #328]	@ 0x148
  return result;
 80067bc:	f8d7 2148 	ldr.w	r2, [r7, #328]	@ 0x148
 80067c0:	fab2 f282 	clz	r2, r2
 80067c4:	b2d2      	uxtb	r2, r2
 80067c6:	f042 0220 	orr.w	r2, r2, #32
 80067ca:	b2d2      	uxtb	r2, r2
 80067cc:	f002 021f 	and.w	r2, r2, #31
 80067d0:	2101      	movs	r1, #1
 80067d2:	fa01 f202 	lsl.w	r2, r1, r2
 80067d6:	4013      	ands	r3, r2
 80067d8:	2b00      	cmp	r3, #0
 80067da:	d0b4      	beq.n	8006746 <HAL_RCC_OscConfig+0x452>
          }
        }
                
        /* Adjusts the Internal High Speed oscillator (HSI) calibration value.*/
        __HAL_RCC_HSI_CALIBRATIONVALUE_ADJUST(RCC_OscInitStruct->HSICalibrationValue);
 80067dc:	4b58      	ldr	r3, [pc, #352]	@ (8006940 <HAL_RCC_OscConfig+0x64c>)
 80067de:	681b      	ldr	r3, [r3, #0]
 80067e0:	f023 02f8 	bic.w	r2, r3, #248	@ 0xf8
 80067e4:	f507 7302 	add.w	r3, r7, #520	@ 0x208
 80067e8:	f5a3 7301 	sub.w	r3, r3, #516	@ 0x204
 80067ec:	681b      	ldr	r3, [r3, #0]
 80067ee:	691b      	ldr	r3, [r3, #16]
 80067f0:	21f8      	movs	r1, #248	@ 0xf8
 80067f2:	f8c7 1144 	str.w	r1, [r7, #324]	@ 0x144
   __ASM volatile ("rbit %0, %1" : "=r" (result) : "r" (value) );
 80067f6:	f8d7 1144 	ldr.w	r1, [r7, #324]	@ 0x144
 80067fa:	fa91 f1a1 	rbit	r1, r1
 80067fe:	f8c7 1140 	str.w	r1, [r7, #320]	@ 0x140
  return result;
 8006802:	f8d7 1140 	ldr.w	r1, [r7, #320]	@ 0x140
 8006806:	fab1 f181 	clz	r1, r1
 800680a:	b2c9      	uxtb	r1, r1
 800680c:	408b      	lsls	r3, r1
 800680e:	494c      	ldr	r1, [pc, #304]	@ (8006940 <HAL_RCC_OscConfig+0x64c>)
 8006810:	4313      	orrs	r3, r2
 8006812:	600b      	str	r3, [r1, #0]
 8006814:	e065      	b.n	80068e2 <HAL_RCC_OscConfig+0x5ee>
 8006816:	2301      	movs	r3, #1
 8006818:	f8c7 313c 	str.w	r3, [r7, #316]	@ 0x13c
   __ASM volatile ("rbit %0, %1" : "=r" (result) : "r" (value) );
 800681c:	f8d7 313c 	ldr.w	r3, [r7, #316]	@ 0x13c
 8006820:	fa93 f3a3 	rbit	r3, r3
 8006824:	f8c7 3138 	str.w	r3, [r7, #312]	@ 0x138
  return result;
 8006828:	f8d7 3138 	ldr.w	r3, [r7, #312]	@ 0x138
      }
      else
      {
        /* Disable the Internal High Speed oscillator (HSI). */
        __HAL_RCC_HSI_DISABLE();
 800682c:	fab3 f383 	clz	r3, r3
 8006830:	b2db      	uxtb	r3, r3
 8006832:	f103 5384 	add.w	r3, r3, #276824064	@ 0x10800000
 8006836:	f503 1384 	add.w	r3, r3, #1081344	@ 0x108000
 800683a:	009b      	lsls	r3, r3, #2
 800683c:	461a      	mov	r2, r3
 800683e:	2300      	movs	r3, #0
 8006840:	6013      	str	r3, [r2, #0]
        
        /* Get Start Tick */
        tickstart = HAL_GetTick();
 8006842:	f7fe ffe7 	bl	8005814 <HAL_GetTick>
 8006846:	f8c7 0200 	str.w	r0, [r7, #512]	@ 0x200
        
        /* Wait till HSI is disabled */
        while(__HAL_RCC_GET_FLAG(RCC_FLAG_HSIRDY) != RESET)
 800684a:	e00a      	b.n	8006862 <HAL_RCC_OscConfig+0x56e>
        {
          if((HAL_GetTick() - tickstart ) > HSI_TIMEOUT_VALUE)
 800684c:	f7fe ffe2 	bl	8005814 <HAL_GetTick>
 8006850:	4602      	mov	r2, r0
 8006852:	f8d7 3200 	ldr.w	r3, [r7, #512]	@ 0x200
 8006856:	1ad3      	subs	r3, r2, r3
 8006858:	2b02      	cmp	r3, #2
 800685a:	d902      	bls.n	8006862 <HAL_RCC_OscConfig+0x56e>
          {
            return HAL_TIMEOUT;
 800685c:	2303      	movs	r3, #3
 800685e:	f000 bd66 	b.w	800732e <HAL_RCC_OscConfig+0x103a>
 8006862:	2302      	movs	r3, #2
 8006864:	f8c7 3134 	str.w	r3, [r7, #308]	@ 0x134
   __ASM volatile ("rbit %0, %1" : "=r" (result) : "r" (value) );
 8006868:	f8d7 3134 	ldr.w	r3, [r7, #308]	@ 0x134
 800686c:	fa93 f3a3 	rbit	r3, r3
 8006870:	f8c7 3130 	str.w	r3, [r7, #304]	@ 0x130
  return result;
 8006874:	f8d7 3130 	ldr.w	r3, [r7, #304]	@ 0x130
        while(__HAL_RCC_GET_FLAG(RCC_FLAG_HSIRDY) != RESET)
 8006878:	fab3 f383 	clz	r3, r3
 800687c:	b2db      	uxtb	r3, r3
 800687e:	2b3f      	cmp	r3, #63	@ 0x3f
 8006880:	d802      	bhi.n	8006888 <HAL_RCC_OscConfig+0x594>
 8006882:	4b2f      	ldr	r3, [pc, #188]	@ (8006940 <HAL_RCC_OscConfig+0x64c>)
 8006884:	681b      	ldr	r3, [r3, #0]
 8006886:	e013      	b.n	80068b0 <HAL_RCC_OscConfig+0x5bc>
 8006888:	2302      	movs	r3, #2
 800688a:	f8c7 312c 	str.w	r3, [r7, #300]	@ 0x12c
   __ASM volatile ("rbit %0, %1" : "=r" (result) : "r" (value) );
 800688e:	f8d7 312c 	ldr.w	r3, [r7, #300]	@ 0x12c
 8006892:	fa93 f3a3 	rbit	r3, r3
 8006896:	f8c7 3128 	str.w	r3, [r7, #296]	@ 0x128
 800689a:	2302      	movs	r3, #2
 800689c:	f8c7 3124 	str.w	r3, [r7, #292]	@ 0x124
 80068a0:	f8d7 3124 	ldr.w	r3, [r7, #292]	@ 0x124
 80068a4:	fa93 f3a3 	rbit	r3, r3
 80068a8:	f8c7 3120 	str.w	r3, [r7, #288]	@ 0x120
 80068ac:	4b24      	ldr	r3, [pc, #144]	@ (8006940 <HAL_RCC_OscConfig+0x64c>)
 80068ae:	6a5b      	ldr	r3, [r3, #36]	@ 0x24
 80068b0:	2202      	movs	r2, #2
 80068b2:	f8c7 211c 	str.w	r2, [r7, #284]	@ 0x11c
 80068b6:	f8d7 211c 	ldr.w	r2, [r7, #284]	@ 0x11c
 80068ba:	fa92 f2a2 	rbit	r2, r2
 80068be:	f8c7 2118 	str.w	r2, [r7, #280]	@ 0x118
  return result;
 80068c2:	f8d7 2118 	ldr.w	r2, [r7, #280]	@ 0x118
 80068c6:	fab2 f282 	clz	r2, r2
 80068ca:	b2d2      	uxtb	r2, r2
 80068cc:	f042 0220 	orr.w	r2, r2, #32
 80068d0:	b2d2      	uxtb	r2, r2
 80068d2:	f002 021f 	and.w	r2, r2, #31
 80068d6:	2101      	movs	r1, #1
 80068d8:	fa01 f202 	lsl.w	r2, r1, r2
 80068dc:	4013      	ands	r3, r2
 80068de:	2b00      	cmp	r3, #0
 80068e0:	d1b4      	bne.n	800684c <HAL_RCC_OscConfig+0x558>
        }
      }
    }
  }
  /*------------------------------ LSI Configuration -------------------------*/ 
  if(((RCC_OscInitStruct->OscillatorType) & RCC_OSCILLATORTYPE_LSI) == RCC_OSCILLATORTYPE_LSI)
 80068e2:	f507 7302 	add.w	r3, r7, #520	@ 0x208
 80068e6:	f5a3 7301 	sub.w	r3, r3, #516	@ 0x204
 80068ea:	681b      	ldr	r3, [r3, #0]
 80068ec:	681b      	ldr	r3, [r3, #0]
 80068ee:	f003 0308 	and.w	r3, r3, #8
 80068f2:	2b00      	cmp	r3, #0
 80068f4:	f000 8119 	beq.w	8006b2a <HAL_RCC_OscConfig+0x836>
  {
    /* Check the parameters */
    assert_param(IS_RCC_LSI(RCC_OscInitStruct->LSIState));
    
    /* Check the LSI State */
    if(RCC_OscInitStruct->LSIState != RCC_LSI_OFF)
 80068f8:	f507 7302 	add.w	r3, r7, #520	@ 0x208
 80068fc:	f5a3 7301 	sub.w	r3, r3, #516	@ 0x204
 8006900:	681b      	ldr	r3, [r3, #0]
 8006902:	695b      	ldr	r3, [r3, #20]
 8006904:	2b00      	cmp	r3, #0
 8006906:	f000 8082 	beq.w	8006a0e <HAL_RCC_OscConfig+0x71a>
 800690a:	2301      	movs	r3, #1
 800690c:	f8c7 3114 	str.w	r3, [r7, #276]	@ 0x114
   __ASM volatile ("rbit %0, %1" : "=r" (result) : "r" (value) );
 8006910:	f8d7 3114 	ldr.w	r3, [r7, #276]	@ 0x114
 8006914:	fa93 f3a3 	rbit	r3, r3
 8006918:	f8c7 3110 	str.w	r3, [r7, #272]	@ 0x110
  return result;
 800691c:	f8d7 3110 	ldr.w	r3, [r7, #272]	@ 0x110
    {
      /* Enable the Internal Low Speed oscillator (LSI). */
      __HAL_RCC_LSI_ENABLE();
 8006920:	fab3 f383 	clz	r3, r3
 8006924:	b2db      	uxtb	r3, r3
 8006926:	461a      	mov	r2, r3
 8006928:	4b06      	ldr	r3, [pc, #24]	@ (8006944 <HAL_RCC_OscConfig+0x650>)
 800692a:	4413      	add	r3, r2
 800692c:	009b      	lsls	r3, r3, #2
 800692e:	461a      	mov	r2, r3
 8006930:	2301      	movs	r3, #1
 8006932:	6013      	str	r3, [r2, #0]
      
      /* Get Start Tick */
      tickstart = HAL_GetTick();
 8006934:	f7fe ff6e 	bl	8005814 <HAL_GetTick>
 8006938:	f8c7 0200 	str.w	r0, [r7, #512]	@ 0x200
      
      /* Wait till LSI is ready */  
      while(__HAL_RCC_GET_FLAG(RCC_FLAG_LSIRDY) == RESET)
 800693c:	e00f      	b.n	800695e <HAL_RCC_OscConfig+0x66a>
 800693e:	bf00      	nop
 8006940:	40021000 	.word	0x40021000
 8006944:	10908120 	.word	0x10908120
      {
        if((HAL_GetTick() - tickstart ) > LSI_TIMEOUT_VALUE)
 8006948:	f7fe ff64 	bl	8005814 <HAL_GetTick>
 800694c:	4602      	mov	r2, r0
 800694e:	f8d7 3200 	ldr.w	r3, [r7, #512]	@ 0x200
 8006952:	1ad3      	subs	r3, r2, r3
 8006954:	2b02      	cmp	r3, #2
 8006956:	d902      	bls.n	800695e <HAL_RCC_OscConfig+0x66a>
        {
          return HAL_TIMEOUT;
 8006958:	2303      	movs	r3, #3
 800695a:	f000 bce8 	b.w	800732e <HAL_RCC_OscConfig+0x103a>
 800695e:	2302      	movs	r3, #2
 8006960:	f8c7 310c 	str.w	r3, [r7, #268]	@ 0x10c
   __ASM volatile ("rbit %0, %1" : "=r" (result) : "r" (value) );
 8006964:	f8d7 310c 	ldr.w	r3, [r7, #268]	@ 0x10c
 8006968:	fa93 f2a3 	rbit	r2, r3
 800696c:	f507 7302 	add.w	r3, r7, #520	@ 0x208
 8006970:	f5a3 7380 	sub.w	r3, r3, #256	@ 0x100
 8006974:	601a      	str	r2, [r3, #0]
 8006976:	f507 7302 	add.w	r3, r7, #520	@ 0x208
 800697a:	f5a3 7382 	sub.w	r3, r3, #260	@ 0x104
 800697e:	2202      	movs	r2, #2
 8006980:	601a      	str	r2, [r3, #0]
 8006982:	f507 7302 	add.w	r3, r7, #520	@ 0x208
 8006986:	f5a3 7382 	sub.w	r3, r3, #260	@ 0x104
 800698a:	681b      	ldr	r3, [r3, #0]
 800698c:	fa93 f2a3 	rbit	r2, r3
 8006990:	f507 7302 	add.w	r3, r7, #520	@ 0x208
 8006994:	f5a3 7384 	sub.w	r3, r3, #264	@ 0x108
 8006998:	601a      	str	r2, [r3, #0]
 800699a:	f507 7302 	add.w	r3, r7, #520	@ 0x208
 800699e:	f5a3 7386 	sub.w	r3, r3, #268	@ 0x10c
 80069a2:	2202      	movs	r2, #2
 80069a4:	601a      	str	r2, [r3, #0]
 80069a6:	f507 7302 	add.w	r3, r7, #520	@ 0x208
 80069aa:	f5a3 7386 	sub.w	r3, r3, #268	@ 0x10c
 80069ae:	681b      	ldr	r3, [r3, #0]
 80069b0:	fa93 f2a3 	rbit	r2, r3
 80069b4:	f507 7302 	add.w	r3, r7, #520	@ 0x208
 80069b8:	f5a3 7388 	sub.w	r3, r3, #272	@ 0x110
 80069bc:	601a      	str	r2, [r3, #0]
      while(__HAL_RCC_GET_FLAG(RCC_FLAG_LSIRDY) == RESET)
 80069be:	4bb0      	ldr	r3, [pc, #704]	@ (8006c80 <HAL_RCC_OscConfig+0x98c>)
 80069c0:	6a5a      	ldr	r2, [r3, #36]	@ 0x24
 80069c2:	f507 7302 	add.w	r3, r7, #520	@ 0x208
 80069c6:	f5a3 738a 	sub.w	r3, r3, #276	@ 0x114
 80069ca:	2102      	movs	r1, #2
 80069cc:	6019      	str	r1, [r3, #0]
 80069ce:	f507 7302 	add.w	r3, r7, #520	@ 0x208
 80069d2:	f5a3 738a 	sub.w	r3, r3, #276	@ 0x114
 80069d6:	681b      	ldr	r3, [r3, #0]
 80069d8:	fa93 f1a3 	rbit	r1, r3
 80069dc:	f507 7302 	add.w	r3, r7, #520	@ 0x208
 80069e0:	f5a3 738c 	sub.w	r3, r3, #280	@ 0x118
 80069e4:	6019      	str	r1, [r3, #0]
  return result;
 80069e6:	f507 7302 	add.w	r3, r7, #520	@ 0x208
 80069ea:	f5a3 738c 	sub.w	r3, r3, #280	@ 0x118
 80069ee:	681b      	ldr	r3, [r3, #0]
 80069f0:	fab3 f383 	clz	r3, r3
 80069f4:	b2db      	uxtb	r3, r3
 80069f6:	f043 0360 	orr.w	r3, r3, #96	@ 0x60
 80069fa:	b2db      	uxtb	r3, r3
 80069fc:	f003 031f 	and.w	r3, r3, #31
 8006a00:	2101      	movs	r1, #1
 8006a02:	fa01 f303 	lsl.w	r3, r1, r3
 8006a06:	4013      	ands	r3, r2
 8006a08:	2b00      	cmp	r3, #0
 8006a0a:	d09d      	beq.n	8006948 <HAL_RCC_OscConfig+0x654>
 8006a0c:	e08d      	b.n	8006b2a <HAL_RCC_OscConfig+0x836>
 8006a0e:	f507 7302 	add.w	r3, r7, #520	@ 0x208
 8006a12:	f5a3 738e 	sub.w	r3, r3, #284	@ 0x11c
 8006a16:	2201      	movs	r2, #1
 8006a18:	601a      	str	r2, [r3, #0]
   __ASM volatile ("rbit %0, %1" : "=r" (result) : "r" (value) );
 8006a1a:	f507 7302 	add.w	r3, r7, #520	@ 0x208
 8006a1e:	f5a3 738e 	sub.w	r3, r3, #284	@ 0x11c
 8006a22:	681b      	ldr	r3, [r3, #0]
 8006a24:	fa93 f2a3 	rbit	r2, r3
 8006a28:	f507 7302 	add.w	r3, r7, #520	@ 0x208
 8006a2c:	f5a3 7390 	sub.w	r3, r3, #288	@ 0x120
 8006a30:	601a      	str	r2, [r3, #0]
  return result;
 8006a32:	f507 7302 	add.w	r3, r7, #520	@ 0x208
 8006a36:	f5a3 7390 	sub.w	r3, r3, #288	@ 0x120
 8006a3a:	681b      	ldr	r3, [r3, #0]
      }
    }
    else
    {
      /* Disable the Internal Low Speed oscillator (LSI). */
      __HAL_RCC_LSI_DISABLE();
 8006a3c:	fab3 f383 	clz	r3, r3
 8006a40:	b2db      	uxtb	r3, r3
 8006a42:	461a      	mov	r2, r3
 8006a44:	4b8f      	ldr	r3, [pc, #572]	@ (8006c84 <HAL_RCC_OscConfig+0x990>)
 8006a46:	4413      	add	r3, r2
 8006a48:	009b      	lsls	r3, r3, #2
 8006a4a:	461a      	mov	r2, r3
 8006a4c:	2300      	movs	r3, #0
 8006a4e:	6013      	str	r3, [r2, #0]
      
      /* Get Start Tick */
      tickstart = HAL_GetTick();
 8006a50:	f7fe fee0 	bl	8005814 <HAL_GetTick>
 8006a54:	f8c7 0200 	str.w	r0, [r7, #512]	@ 0x200
      
      /* Wait till LSI is disabled */  
      while(__HAL_RCC_GET_FLAG(RCC_FLAG_LSIRDY) != RESET)
 8006a58:	e00a      	b.n	8006a70 <HAL_RCC_OscConfig+0x77c>
      {
        if((HAL_GetTick() - tickstart ) > LSI_TIMEOUT_VALUE)
 8006a5a:	f7fe fedb 	bl	8005814 <HAL_GetTick>
 8006a5e:	4602      	mov	r2, r0
 8006a60:	f8d7 3200 	ldr.w	r3, [r7, #512]	@ 0x200
 8006a64:	1ad3      	subs	r3, r2, r3
 8006a66:	2b02      	cmp	r3, #2
 8006a68:	d902      	bls.n	8006a70 <HAL_RCC_OscConfig+0x77c>
        {
          return HAL_TIMEOUT;
 8006a6a:	2303      	movs	r3, #3
 8006a6c:	f000 bc5f 	b.w	800732e <HAL_RCC_OscConfig+0x103a>
 8006a70:	f507 7302 	add.w	r3, r7, #520	@ 0x208
 8006a74:	f5a3 7392 	sub.w	r3, r3, #292	@ 0x124
 8006a78:	2202      	movs	r2, #2
 8006a7a:	601a      	str	r2, [r3, #0]
   __ASM volatile ("rbit %0, %1" : "=r" (result) : "r" (value) );
 8006a7c:	f507 7302 	add.w	r3, r7, #520	@ 0x208
 8006a80:	f5a3 7392 	sub.w	r3, r3, #292	@ 0x124
 8006a84:	681b      	ldr	r3, [r3, #0]
 8006a86:	fa93 f2a3 	rbit	r2, r3
 8006a8a:	f507 7302 	add.w	r3, r7, #520	@ 0x208
 8006a8e:	f5a3 7394 	sub.w	r3, r3, #296	@ 0x128
 8006a92:	601a      	str	r2, [r3, #0]
 8006a94:	f507 7302 	add.w	r3, r7, #520	@ 0x208
 8006a98:	f5a3 7396 	sub.w	r3, r3, #300	@ 0x12c
 8006a9c:	2202      	movs	r2, #2
 8006a9e:	601a      	str	r2, [r3, #0]
 8006aa0:	f507 7302 	add.w	r3, r7, #520	@ 0x208
 8006aa4:	f5a3 7396 	sub.w	r3, r3, #300	@ 0x12c
 8006aa8:	681b      	ldr	r3, [r3, #0]
 8006aaa:	fa93 f2a3 	rbit	r2, r3
 8006aae:	f507 7302 	add.w	r3, r7, #520	@ 0x208
 8006ab2:	f5a3 7398 	sub.w	r3, r3, #304	@ 0x130
 8006ab6:	601a      	str	r2, [r3, #0]
 8006ab8:	f507 7302 	add.w	r3, r7, #520	@ 0x208
 8006abc:	f5a3 739a 	sub.w	r3, r3, #308	@ 0x134
 8006ac0:	2202      	movs	r2, #2
 8006ac2:	601a      	str	r2, [r3, #0]
 8006ac4:	f507 7302 	add.w	r3, r7, #520	@ 0x208
 8006ac8:	f5a3 739a 	sub.w	r3, r3, #308	@ 0x134
 8006acc:	681b      	ldr	r3, [r3, #0]
 8006ace:	fa93 f2a3 	rbit	r2, r3
 8006ad2:	f507 7302 	add.w	r3, r7, #520	@ 0x208
 8006ad6:	f5a3 739c 	sub.w	r3, r3, #312	@ 0x138
 8006ada:	601a      	str	r2, [r3, #0]
      while(__HAL_RCC_GET_FLAG(RCC_FLAG_LSIRDY) != RESET)
 8006adc:	4b68      	ldr	r3, [pc, #416]	@ (8006c80 <HAL_RCC_OscConfig+0x98c>)
 8006ade:	6a5a      	ldr	r2, [r3, #36]	@ 0x24
 8006ae0:	f507 7302 	add.w	r3, r7, #520	@ 0x208
 8006ae4:	f5a3 739e 	sub.w	r3, r3, #316	@ 0x13c
 8006ae8:	2102      	movs	r1, #2
 8006aea:	6019      	str	r1, [r3, #0]
 8006aec:	f507 7302 	add.w	r3, r7, #520	@ 0x208
 8006af0:	f5a3 739e 	sub.w	r3, r3, #316	@ 0x13c
 8006af4:	681b      	ldr	r3, [r3, #0]
 8006af6:	fa93 f1a3 	rbit	r1, r3
 8006afa:	f507 7302 	add.w	r3, r7, #520	@ 0x208
 8006afe:	f5a3 73a0 	sub.w	r3, r3, #320	@ 0x140
 8006b02:	6019      	str	r1, [r3, #0]
  return result;
 8006b04:	f507 7302 	add.w	r3, r7, #520	@ 0x208
 8006b08:	f5a3 73a0 	sub.w	r3, r3, #320	@ 0x140
 8006b0c:	681b      	ldr	r3, [r3, #0]
 8006b0e:	fab3 f383 	clz	r3, r3
 8006b12:	b2db      	uxtb	r3, r3
 8006b14:	f043 0360 	orr.w	r3, r3, #96	@ 0x60
 8006b18:	b2db      	uxtb	r3, r3
 8006b1a:	f003 031f 	and.w	r3, r3, #31
 8006b1e:	2101      	movs	r1, #1
 8006b20:	fa01 f303 	lsl.w	r3, r1, r3
 8006b24:	4013      	ands	r3, r2
 8006b26:	2b00      	cmp	r3, #0
 8006b28:	d197      	bne.n	8006a5a <HAL_RCC_OscConfig+0x766>
        }
      }
    }
  }
  /*------------------------------ LSE Configuration -------------------------*/ 
  if(((RCC_OscInitStruct->OscillatorType) & RCC_OSCILLATORTYPE_LSE) == RCC_OSCILLATORTYPE_LSE)
 8006b2a:	f507 7302 	add.w	r3, r7, #520	@ 0x208
 8006b2e:	f5a3 7301 	sub.w	r3, r3, #516	@ 0x204
 8006b32:	681b      	ldr	r3, [r3, #0]
 8006b34:	681b      	ldr	r3, [r3, #0]
 8006b36:	f003 0304 	and.w	r3, r3, #4
 8006b3a:	2b00      	cmp	r3, #0
 8006b3c:	f000 819c 	beq.w	8006e78 <HAL_RCC_OscConfig+0xb84>
  {
    FlagStatus       pwrclkchanged = RESET;
 8006b40:	2300      	movs	r3, #0
 8006b42:	f887 3207 	strb.w	r3, [r7, #519]	@ 0x207
    /* Check the parameters */
    assert_param(IS_RCC_LSE(RCC_OscInitStruct->LSEState));

    /* Update LSE configuration in Backup Domain control register    */
    /* Requires to enable write access to Backup Domain of necessary */
    if(__HAL_RCC_PWR_IS_CLK_DISABLED())
 8006b46:	4b4e      	ldr	r3, [pc, #312]	@ (8006c80 <HAL_RCC_OscConfig+0x98c>)
 8006b48:	69db      	ldr	r3, [r3, #28]
 8006b4a:	f003 5380 	and.w	r3, r3, #268435456	@ 0x10000000
 8006b4e:	2b00      	cmp	r3, #0
 8006b50:	d116      	bne.n	8006b80 <HAL_RCC_OscConfig+0x88c>
    {
      __HAL_RCC_PWR_CLK_ENABLE();
 8006b52:	4b4b      	ldr	r3, [pc, #300]	@ (8006c80 <HAL_RCC_OscConfig+0x98c>)
 8006b54:	69db      	ldr	r3, [r3, #28]
 8006b56:	4a4a      	ldr	r2, [pc, #296]	@ (8006c80 <HAL_RCC_OscConfig+0x98c>)
 8006b58:	f043 5380 	orr.w	r3, r3, #268435456	@ 0x10000000
 8006b5c:	61d3      	str	r3, [r2, #28]
 8006b5e:	4b48      	ldr	r3, [pc, #288]	@ (8006c80 <HAL_RCC_OscConfig+0x98c>)
 8006b60:	69db      	ldr	r3, [r3, #28]
 8006b62:	f003 5280 	and.w	r2, r3, #268435456	@ 0x10000000
 8006b66:	f507 7302 	add.w	r3, r7, #520	@ 0x208
 8006b6a:	f5a3 73fe 	sub.w	r3, r3, #508	@ 0x1fc
 8006b6e:	601a      	str	r2, [r3, #0]
 8006b70:	f507 7302 	add.w	r3, r7, #520	@ 0x208
 8006b74:	f5a3 73fe 	sub.w	r3, r3, #508	@ 0x1fc
 8006b78:	681b      	ldr	r3, [r3, #0]
      pwrclkchanged = SET;
 8006b7a:	2301      	movs	r3, #1
 8006b7c:	f887 3207 	strb.w	r3, [r7, #519]	@ 0x207
    }
    
    if(HAL_IS_BIT_CLR(PWR->CR, PWR_CR_DBP))
 8006b80:	4b41      	ldr	r3, [pc, #260]	@ (8006c88 <HAL_RCC_OscConfig+0x994>)
 8006b82:	681b      	ldr	r3, [r3, #0]
 8006b84:	f403 7380 	and.w	r3, r3, #256	@ 0x100
 8006b88:	2b00      	cmp	r3, #0
 8006b8a:	d11a      	bne.n	8006bc2 <HAL_RCC_OscConfig+0x8ce>
    {
      /* Enable write access to Backup domain */
      SET_BIT(PWR->CR, PWR_CR_DBP);
 8006b8c:	4b3e      	ldr	r3, [pc, #248]	@ (8006c88 <HAL_RCC_OscConfig+0x994>)
 8006b8e:	681b      	ldr	r3, [r3, #0]
 8006b90:	4a3d      	ldr	r2, [pc, #244]	@ (8006c88 <HAL_RCC_OscConfig+0x994>)
 8006b92:	f443 7380 	orr.w	r3, r3, #256	@ 0x100
 8006b96:	6013      	str	r3, [r2, #0]
      
      /* Wait for Backup domain Write protection disable */
      tickstart = HAL_GetTick();
 8006b98:	f7fe fe3c 	bl	8005814 <HAL_GetTick>
 8006b9c:	f8c7 0200 	str.w	r0, [r7, #512]	@ 0x200

      while(HAL_IS_BIT_CLR(PWR->CR, PWR_CR_DBP))
 8006ba0:	e009      	b.n	8006bb6 <HAL_RCC_OscConfig+0x8c2>
      {
        if((HAL_GetTick() - tickstart) > RCC_DBP_TIMEOUT_VALUE)
 8006ba2:	f7fe fe37 	bl	8005814 <HAL_GetTick>
 8006ba6:	4602      	mov	r2, r0
 8006ba8:	f8d7 3200 	ldr.w	r3, [r7, #512]	@ 0x200
 8006bac:	1ad3      	subs	r3, r2, r3
 8006bae:	2b64      	cmp	r3, #100	@ 0x64
 8006bb0:	d901      	bls.n	8006bb6 <HAL_RCC_OscConfig+0x8c2>
        {
          return HAL_TIMEOUT;
 8006bb2:	2303      	movs	r3, #3
 8006bb4:	e3bb      	b.n	800732e <HAL_RCC_OscConfig+0x103a>
      while(HAL_IS_BIT_CLR(PWR->CR, PWR_CR_DBP))
 8006bb6:	4b34      	ldr	r3, [pc, #208]	@ (8006c88 <HAL_RCC_OscConfig+0x994>)
 8006bb8:	681b      	ldr	r3, [r3, #0]
 8006bba:	f403 7380 	and.w	r3, r3, #256	@ 0x100
 8006bbe:	2b00      	cmp	r3, #0
 8006bc0:	d0ef      	beq.n	8006ba2 <HAL_RCC_OscConfig+0x8ae>
        }
      }
    }

    /* Set the new LSE configuration -----------------------------------------*/
    __HAL_RCC_LSE_CONFIG(RCC_OscInitStruct->LSEState);
 8006bc2:	f507 7302 	add.w	r3, r7, #520	@ 0x208
 8006bc6:	f5a3 7301 	sub.w	r3, r3, #516	@ 0x204
 8006bca:	681b      	ldr	r3, [r3, #0]
 8006bcc:	689b      	ldr	r3, [r3, #8]
 8006bce:	2b01      	cmp	r3, #1
 8006bd0:	d106      	bne.n	8006be0 <HAL_RCC_OscConfig+0x8ec>
 8006bd2:	4b2b      	ldr	r3, [pc, #172]	@ (8006c80 <HAL_RCC_OscConfig+0x98c>)
 8006bd4:	6a1b      	ldr	r3, [r3, #32]
 8006bd6:	4a2a      	ldr	r2, [pc, #168]	@ (8006c80 <HAL_RCC_OscConfig+0x98c>)
 8006bd8:	f043 0301 	orr.w	r3, r3, #1
 8006bdc:	6213      	str	r3, [r2, #32]
 8006bde:	e035      	b.n	8006c4c <HAL_RCC_OscConfig+0x958>
 8006be0:	f507 7302 	add.w	r3, r7, #520	@ 0x208
 8006be4:	f5a3 7301 	sub.w	r3, r3, #516	@ 0x204
 8006be8:	681b      	ldr	r3, [r3, #0]
 8006bea:	689b      	ldr	r3, [r3, #8]
 8006bec:	2b00      	cmp	r3, #0
 8006bee:	d10c      	bne.n	8006c0a <HAL_RCC_OscConfig+0x916>
 8006bf0:	4b23      	ldr	r3, [pc, #140]	@ (8006c80 <HAL_RCC_OscConfig+0x98c>)
 8006bf2:	6a1b      	ldr	r3, [r3, #32]
 8006bf4:	4a22      	ldr	r2, [pc, #136]	@ (8006c80 <HAL_RCC_OscConfig+0x98c>)
 8006bf6:	f023 0301 	bic.w	r3, r3, #1
 8006bfa:	6213      	str	r3, [r2, #32]
 8006bfc:	4b20      	ldr	r3, [pc, #128]	@ (8006c80 <HAL_RCC_OscConfig+0x98c>)
 8006bfe:	6a1b      	ldr	r3, [r3, #32]
 8006c00:	4a1f      	ldr	r2, [pc, #124]	@ (8006c80 <HAL_RCC_OscConfig+0x98c>)
 8006c02:	f023 0304 	bic.w	r3, r3, #4
 8006c06:	6213      	str	r3, [r2, #32]
 8006c08:	e020      	b.n	8006c4c <HAL_RCC_OscConfig+0x958>
 8006c0a:	f507 7302 	add.w	r3, r7, #520	@ 0x208
 8006c0e:	f5a3 7301 	sub.w	r3, r3, #516	@ 0x204
 8006c12:	681b      	ldr	r3, [r3, #0]
 8006c14:	689b      	ldr	r3, [r3, #8]
 8006c16:	2b05      	cmp	r3, #5
 8006c18:	d10c      	bne.n	8006c34 <HAL_RCC_OscConfig+0x940>
 8006c1a:	4b19      	ldr	r3, [pc, #100]	@ (8006c80 <HAL_RCC_OscConfig+0x98c>)
 8006c1c:	6a1b      	ldr	r3, [r3, #32]
 8006c1e:	4a18      	ldr	r2, [pc, #96]	@ (8006c80 <HAL_RCC_OscConfig+0x98c>)
 8006c20:	f043 0304 	orr.w	r3, r3, #4
 8006c24:	6213      	str	r3, [r2, #32]
 8006c26:	4b16      	ldr	r3, [pc, #88]	@ (8006c80 <HAL_RCC_OscConfig+0x98c>)
 8006c28:	6a1b      	ldr	r3, [r3, #32]
 8006c2a:	4a15      	ldr	r2, [pc, #84]	@ (8006c80 <HAL_RCC_OscConfig+0x98c>)
 8006c2c:	f043 0301 	orr.w	r3, r3, #1
 8006c30:	6213      	str	r3, [r2, #32]
 8006c32:	e00b      	b.n	8006c4c <HAL_RCC_OscConfig+0x958>
 8006c34:	4b12      	ldr	r3, [pc, #72]	@ (8006c80 <HAL_RCC_OscConfig+0x98c>)
 8006c36:	6a1b      	ldr	r3, [r3, #32]
 8006c38:	4a11      	ldr	r2, [pc, #68]	@ (8006c80 <HAL_RCC_OscConfig+0x98c>)
 8006c3a:	f023 0301 	bic.w	r3, r3, #1
 8006c3e:	6213      	str	r3, [r2, #32]
 8006c40:	4b0f      	ldr	r3, [pc, #60]	@ (8006c80 <HAL_RCC_OscConfig+0x98c>)
 8006c42:	6a1b      	ldr	r3, [r3, #32]
 8006c44:	4a0e      	ldr	r2, [pc, #56]	@ (8006c80 <HAL_RCC_OscConfig+0x98c>)
 8006c46:	f023 0304 	bic.w	r3, r3, #4
 8006c4a:	6213      	str	r3, [r2, #32]
    /* Check the LSE State */
    if(RCC_OscInitStruct->LSEState != RCC_LSE_OFF)
 8006c4c:	f507 7302 	add.w	r3, r7, #520	@ 0x208
 8006c50:	f5a3 7301 	sub.w	r3, r3, #516	@ 0x204
 8006c54:	681b      	ldr	r3, [r3, #0]
 8006c56:	689b      	ldr	r3, [r3, #8]
 8006c58:	2b00      	cmp	r3, #0
 8006c5a:	f000 8085 	beq.w	8006d68 <HAL_RCC_OscConfig+0xa74>
    {
      /* Get Start Tick */
      tickstart = HAL_GetTick();
 8006c5e:	f7fe fdd9 	bl	8005814 <HAL_GetTick>
 8006c62:	f8c7 0200 	str.w	r0, [r7, #512]	@ 0x200
      
      /* Wait till LSE is ready */  
      while(__HAL_RCC_GET_FLAG(RCC_FLAG_LSERDY) == RESET)
 8006c66:	e011      	b.n	8006c8c <HAL_RCC_OscConfig+0x998>
      {
        if((HAL_GetTick() - tickstart ) > RCC_LSE_TIMEOUT_VALUE)
 8006c68:	f7fe fdd4 	bl	8005814 <HAL_GetTick>
 8006c6c:	4602      	mov	r2, r0
 8006c6e:	f8d7 3200 	ldr.w	r3, [r7, #512]	@ 0x200
 8006c72:	1ad3      	subs	r3, r2, r3
 8006c74:	f241 3288 	movw	r2, #5000	@ 0x1388
 8006c78:	4293      	cmp	r3, r2
 8006c7a:	d907      	bls.n	8006c8c <HAL_RCC_OscConfig+0x998>
        {
          return HAL_TIMEOUT;
 8006c7c:	2303      	movs	r3, #3
 8006c7e:	e356      	b.n	800732e <HAL_RCC_OscConfig+0x103a>
 8006c80:	40021000 	.word	0x40021000
 8006c84:	10908120 	.word	0x10908120
 8006c88:	40007000 	.word	0x40007000
 8006c8c:	f507 7302 	add.w	r3, r7, #520	@ 0x208
 8006c90:	f5a3 73a2 	sub.w	r3, r3, #324	@ 0x144
 8006c94:	2202      	movs	r2, #2
 8006c96:	601a      	str	r2, [r3, #0]
   __ASM volatile ("rbit %0, %1" : "=r" (result) : "r" (value) );
 8006c98:	f507 7302 	add.w	r3, r7, #520	@ 0x208
 8006c9c:	f5a3 73a2 	sub.w	r3, r3, #324	@ 0x144
 8006ca0:	681b      	ldr	r3, [r3, #0]
 8006ca2:	fa93 f2a3 	rbit	r2, r3
 8006ca6:	f507 7302 	add.w	r3, r7, #520	@ 0x208
 8006caa:	f5a3 73a4 	sub.w	r3, r3, #328	@ 0x148
 8006cae:	601a      	str	r2, [r3, #0]
 8006cb0:	f507 7302 	add.w	r3, r7, #520	@ 0x208
 8006cb4:	f5a3 73a6 	sub.w	r3, r3, #332	@ 0x14c
 8006cb8:	2202      	movs	r2, #2
 8006cba:	601a      	str	r2, [r3, #0]
 8006cbc:	f507 7302 	add.w	r3, r7, #520	@ 0x208
 8006cc0:	f5a3 73a6 	sub.w	r3, r3, #332	@ 0x14c
 8006cc4:	681b      	ldr	r3, [r3, #0]
 8006cc6:	fa93 f2a3 	rbit	r2, r3
 8006cca:	f507 7302 	add.w	r3, r7, #520	@ 0x208
 8006cce:	f5a3 73a8 	sub.w	r3, r3, #336	@ 0x150
 8006cd2:	601a      	str	r2, [r3, #0]
  return result;
 8006cd4:	f507 7302 	add.w	r3, r7, #520	@ 0x208
 8006cd8:	f5a3 73a8 	sub.w	r3, r3, #336	@ 0x150
 8006cdc:	681b      	ldr	r3, [r3, #0]
      while(__HAL_RCC_GET_FLAG(RCC_FLAG_LSERDY) == RESET)
 8006cde:	fab3 f383 	clz	r3, r3
 8006ce2:	b2db      	uxtb	r3, r3
 8006ce4:	f023 035f 	bic.w	r3, r3, #95	@ 0x5f
 8006ce8:	b2db      	uxtb	r3, r3
 8006cea:	2b00      	cmp	r3, #0
 8006cec:	d102      	bne.n	8006cf4 <HAL_RCC_OscConfig+0xa00>
 8006cee:	4b98      	ldr	r3, [pc, #608]	@ (8006f50 <HAL_RCC_OscConfig+0xc5c>)
 8006cf0:	6a1b      	ldr	r3, [r3, #32]
 8006cf2:	e013      	b.n	8006d1c <HAL_RCC_OscConfig+0xa28>
 8006cf4:	f507 7302 	add.w	r3, r7, #520	@ 0x208
 8006cf8:	f5a3 73aa 	sub.w	r3, r3, #340	@ 0x154
 8006cfc:	2202      	movs	r2, #2
 8006cfe:	601a      	str	r2, [r3, #0]
   __ASM volatile ("rbit %0, %1" : "=r" (result) : "r" (value) );
 8006d00:	f507 7302 	add.w	r3, r7, #520	@ 0x208
 8006d04:	f5a3 73aa 	sub.w	r3, r3, #340	@ 0x154
 8006d08:	681b      	ldr	r3, [r3, #0]
 8006d0a:	fa93 f2a3 	rbit	r2, r3
 8006d0e:	f507 7302 	add.w	r3, r7, #520	@ 0x208
 8006d12:	f5a3 73ac 	sub.w	r3, r3, #344	@ 0x158
 8006d16:	601a      	str	r2, [r3, #0]
 8006d18:	4b8d      	ldr	r3, [pc, #564]	@ (8006f50 <HAL_RCC_OscConfig+0xc5c>)
 8006d1a:	6a5b      	ldr	r3, [r3, #36]	@ 0x24
 8006d1c:	f507 7202 	add.w	r2, r7, #520	@ 0x208
 8006d20:	f5a2 72ae 	sub.w	r2, r2, #348	@ 0x15c
 8006d24:	2102      	movs	r1, #2
 8006d26:	6011      	str	r1, [r2, #0]
 8006d28:	f507 7202 	add.w	r2, r7, #520	@ 0x208
 8006d2c:	f5a2 72ae 	sub.w	r2, r2, #348	@ 0x15c
 8006d30:	6812      	ldr	r2, [r2, #0]
 8006d32:	fa92 f1a2 	rbit	r1, r2
 8006d36:	f507 7202 	add.w	r2, r7, #520	@ 0x208
 8006d3a:	f5a2 72b0 	sub.w	r2, r2, #352	@ 0x160
 8006d3e:	6011      	str	r1, [r2, #0]
  return result;
 8006d40:	f507 7202 	add.w	r2, r7, #520	@ 0x208
 8006d44:	f5a2 72b0 	sub.w	r2, r2, #352	@ 0x160
 8006d48:	6812      	ldr	r2, [r2, #0]
 8006d4a:	fab2 f282 	clz	r2, r2
 8006d4e:	b2d2      	uxtb	r2, r2
 8006d50:	f042 0240 	orr.w	r2, r2, #64	@ 0x40
 8006d54:	b2d2      	uxtb	r2, r2
 8006d56:	f002 021f 	and.w	r2, r2, #31
 8006d5a:	2101      	movs	r1, #1
 8006d5c:	fa01 f202 	lsl.w	r2, r1, r2
 8006d60:	4013      	ands	r3, r2
 8006d62:	2b00      	cmp	r3, #0
 8006d64:	d080      	beq.n	8006c68 <HAL_RCC_OscConfig+0x974>
 8006d66:	e07d      	b.n	8006e64 <HAL_RCC_OscConfig+0xb70>
      }
    }
    else
    {
      /* Get Start Tick */
      tickstart = HAL_GetTick();
 8006d68:	f7fe fd54 	bl	8005814 <HAL_GetTick>
 8006d6c:	f8c7 0200 	str.w	r0, [r7, #512]	@ 0x200
      
      /* Wait till LSE is disabled */  
      while(__HAL_RCC_GET_FLAG(RCC_FLAG_LSERDY) != RESET)
 8006d70:	e00b      	b.n	8006d8a <HAL_RCC_OscConfig+0xa96>
      {
        if((HAL_GetTick() - tickstart ) > RCC_LSE_TIMEOUT_VALUE)
 8006d72:	f7fe fd4f 	bl	8005814 <HAL_GetTick>
 8006d76:	4602      	mov	r2, r0
 8006d78:	f8d7 3200 	ldr.w	r3, [r7, #512]	@ 0x200
 8006d7c:	1ad3      	subs	r3, r2, r3
 8006d7e:	f241 3288 	movw	r2, #5000	@ 0x1388
 8006d82:	4293      	cmp	r3, r2
 8006d84:	d901      	bls.n	8006d8a <HAL_RCC_OscConfig+0xa96>
        {
          return HAL_TIMEOUT;
 8006d86:	2303      	movs	r3, #3
 8006d88:	e2d1      	b.n	800732e <HAL_RCC_OscConfig+0x103a>
 8006d8a:	f507 7302 	add.w	r3, r7, #520	@ 0x208
 8006d8e:	f5a3 73b2 	sub.w	r3, r3, #356	@ 0x164
 8006d92:	2202      	movs	r2, #2
 8006d94:	601a      	str	r2, [r3, #0]
   __ASM volatile ("rbit %0, %1" : "=r" (result) : "r" (value) );
 8006d96:	f507 7302 	add.w	r3, r7, #520	@ 0x208
 8006d9a:	f5a3 73b2 	sub.w	r3, r3, #356	@ 0x164
 8006d9e:	681b      	ldr	r3, [r3, #0]
 8006da0:	fa93 f2a3 	rbit	r2, r3
 8006da4:	f507 7302 	add.w	r3, r7, #520	@ 0x208
 8006da8:	f5a3 73b4 	sub.w	r3, r3, #360	@ 0x168
 8006dac:	601a      	str	r2, [r3, #0]
 8006dae:	f507 7302 	add.w	r3, r7, #520	@ 0x208
 8006db2:	f5a3 73b6 	sub.w	r3, r3, #364	@ 0x16c
 8006db6:	2202      	movs	r2, #2
 8006db8:	601a      	str	r2, [r3, #0]
 8006dba:	f507 7302 	add.w	r3, r7, #520	@ 0x208
 8006dbe:	f5a3 73b6 	sub.w	r3, r3, #364	@ 0x16c
 8006dc2:	681b      	ldr	r3, [r3, #0]
 8006dc4:	fa93 f2a3 	rbit	r2, r3
 8006dc8:	f507 7302 	add.w	r3, r7, #520	@ 0x208
 8006dcc:	f5a3 73b8 	sub.w	r3, r3, #368	@ 0x170
 8006dd0:	601a      	str	r2, [r3, #0]
  return result;
 8006dd2:	f507 7302 	add.w	r3, r7, #520	@ 0x208
 8006dd6:	f5a3 73b8 	sub.w	r3, r3, #368	@ 0x170
 8006dda:	681b      	ldr	r3, [r3, #0]
      while(__HAL_RCC_GET_FLAG(RCC_FLAG_LSERDY) != RESET)
 8006ddc:	fab3 f383 	clz	r3, r3
 8006de0:	b2db      	uxtb	r3, r3
 8006de2:	f023 035f 	bic.w	r3, r3, #95	@ 0x5f
 8006de6:	b2db      	uxtb	r3, r3
 8006de8:	2b00      	cmp	r3, #0
 8006dea:	d102      	bne.n	8006df2 <HAL_RCC_OscConfig+0xafe>
 8006dec:	4b58      	ldr	r3, [pc, #352]	@ (8006f50 <HAL_RCC_OscConfig+0xc5c>)
 8006dee:	6a1b      	ldr	r3, [r3, #32]
 8006df0:	e013      	b.n	8006e1a <HAL_RCC_OscConfig+0xb26>
 8006df2:	f507 7302 	add.w	r3, r7, #520	@ 0x208
 8006df6:	f5a3 73ba 	sub.w	r3, r3, #372	@ 0x174
 8006dfa:	2202      	movs	r2, #2
 8006dfc:	601a      	str	r2, [r3, #0]
   __ASM volatile ("rbit %0, %1" : "=r" (result) : "r" (value) );
 8006dfe:	f507 7302 	add.w	r3, r7, #520	@ 0x208
 8006e02:	f5a3 73ba 	sub.w	r3, r3, #372	@ 0x174
 8006e06:	681b      	ldr	r3, [r3, #0]
 8006e08:	fa93 f2a3 	rbit	r2, r3
 8006e0c:	f507 7302 	add.w	r3, r7, #520	@ 0x208
 8006e10:	f5a3 73bc 	sub.w	r3, r3, #376	@ 0x178
 8006e14:	601a      	str	r2, [r3, #0]
 8006e16:	4b4e      	ldr	r3, [pc, #312]	@ (8006f50 <HAL_RCC_OscConfig+0xc5c>)
 8006e18:	6a5b      	ldr	r3, [r3, #36]	@ 0x24
 8006e1a:	f507 7202 	add.w	r2, r7, #520	@ 0x208
 8006e1e:	f5a2 72be 	sub.w	r2, r2, #380	@ 0x17c
 8006e22:	2102      	movs	r1, #2
 8006e24:	6011      	str	r1, [r2, #0]
 8006e26:	f507 7202 	add.w	r2, r7, #520	@ 0x208
 8006e2a:	f5a2 72be 	sub.w	r2, r2, #380	@ 0x17c
 8006e2e:	6812      	ldr	r2, [r2, #0]
 8006e30:	fa92 f1a2 	rbit	r1, r2
 8006e34:	f507 7202 	add.w	r2, r7, #520	@ 0x208
 8006e38:	f5a2 72c0 	sub.w	r2, r2, #384	@ 0x180
 8006e3c:	6011      	str	r1, [r2, #0]
  return result;
 8006e3e:	f507 7202 	add.w	r2, r7, #520	@ 0x208
 8006e42:	f5a2 72c0 	sub.w	r2, r2, #384	@ 0x180
 8006e46:	6812      	ldr	r2, [r2, #0]
 8006e48:	fab2 f282 	clz	r2, r2
 8006e4c:	b2d2      	uxtb	r2, r2
 8006e4e:	f042 0240 	orr.w	r2, r2, #64	@ 0x40
 8006e52:	b2d2      	uxtb	r2, r2
 8006e54:	f002 021f 	and.w	r2, r2, #31
 8006e58:	2101      	movs	r1, #1
 8006e5a:	fa01 f202 	lsl.w	r2, r1, r2
 8006e5e:	4013      	ands	r3, r2
 8006e60:	2b00      	cmp	r3, #0
 8006e62:	d186      	bne.n	8006d72 <HAL_RCC_OscConfig+0xa7e>
        }
      }
    }

    /* Require to disable power clock if necessary */
    if(pwrclkchanged == SET)
 8006e64:	f897 3207 	ldrb.w	r3, [r7, #519]	@ 0x207
 8006e68:	2b01      	cmp	r3, #1
 8006e6a:	d105      	bne.n	8006e78 <HAL_RCC_OscConfig+0xb84>
    {
      __HAL_RCC_PWR_CLK_DISABLE();
 8006e6c:	4b38      	ldr	r3, [pc, #224]	@ (8006f50 <HAL_RCC_OscConfig+0xc5c>)
 8006e6e:	69db      	ldr	r3, [r3, #28]
 8006e70:	4a37      	ldr	r2, [pc, #220]	@ (8006f50 <HAL_RCC_OscConfig+0xc5c>)
 8006e72:	f023 5380 	bic.w	r3, r3, #268435456	@ 0x10000000
 8006e76:	61d3      	str	r3, [r2, #28]
  }

  /*-------------------------------- PLL Configuration -----------------------*/
  /* Check the parameters */
  assert_param(IS_RCC_PLL(RCC_OscInitStruct->PLL.PLLState));
  if ((RCC_OscInitStruct->PLL.PLLState) != RCC_PLL_NONE)
 8006e78:	f507 7302 	add.w	r3, r7, #520	@ 0x208
 8006e7c:	f5a3 7301 	sub.w	r3, r3, #516	@ 0x204
 8006e80:	681b      	ldr	r3, [r3, #0]
 8006e82:	699b      	ldr	r3, [r3, #24]
 8006e84:	2b00      	cmp	r3, #0
 8006e86:	f000 8251 	beq.w	800732c <HAL_RCC_OscConfig+0x1038>
  {
    /* Check if the PLL is used as system clock or not */
    if(__HAL_RCC_GET_SYSCLK_SOURCE() != RCC_SYSCLKSOURCE_STATUS_PLLCLK)
 8006e8a:	4b31      	ldr	r3, [pc, #196]	@ (8006f50 <HAL_RCC_OscConfig+0xc5c>)
 8006e8c:	685b      	ldr	r3, [r3, #4]
 8006e8e:	f003 030c 	and.w	r3, r3, #12
 8006e92:	2b08      	cmp	r3, #8
 8006e94:	f000 820f 	beq.w	80072b6 <HAL_RCC_OscConfig+0xfc2>
    { 
      if((RCC_OscInitStruct->PLL.PLLState) == RCC_PLL_ON)
 8006e98:	f507 7302 	add.w	r3, r7, #520	@ 0x208
 8006e9c:	f5a3 7301 	sub.w	r3, r3, #516	@ 0x204
 8006ea0:	681b      	ldr	r3, [r3, #0]
 8006ea2:	699b      	ldr	r3, [r3, #24]
 8006ea4:	2b02      	cmp	r3, #2
 8006ea6:	f040 8165 	bne.w	8007174 <HAL_RCC_OscConfig+0xe80>
 8006eaa:	f507 7302 	add.w	r3, r7, #520	@ 0x208
 8006eae:	f5a3 73c2 	sub.w	r3, r3, #388	@ 0x184
 8006eb2:	f04f 7280 	mov.w	r2, #16777216	@ 0x1000000
 8006eb6:	601a      	str	r2, [r3, #0]
   __ASM volatile ("rbit %0, %1" : "=r" (result) : "r" (value) );
 8006eb8:	f507 7302 	add.w	r3, r7, #520	@ 0x208
 8006ebc:	f5a3 73c2 	sub.w	r3, r3, #388	@ 0x184
 8006ec0:	681b      	ldr	r3, [r3, #0]
 8006ec2:	fa93 f2a3 	rbit	r2, r3
 8006ec6:	f507 7302 	add.w	r3, r7, #520	@ 0x208
 8006eca:	f5a3 73c4 	sub.w	r3, r3, #392	@ 0x188
 8006ece:	601a      	str	r2, [r3, #0]
  return result;
 8006ed0:	f507 7302 	add.w	r3, r7, #520	@ 0x208
 8006ed4:	f5a3 73c4 	sub.w	r3, r3, #392	@ 0x188
 8006ed8:	681b      	ldr	r3, [r3, #0]
#if   defined(RCC_CFGR_PLLSRC_HSI_PREDIV)
        assert_param(IS_RCC_PREDIV(RCC_OscInitStruct->PLL.PREDIV));
#endif
  
        /* Disable the main PLL. */
        __HAL_RCC_PLL_DISABLE();
 8006eda:	fab3 f383 	clz	r3, r3
 8006ede:	b2db      	uxtb	r3, r3
 8006ee0:	f103 5384 	add.w	r3, r3, #276824064	@ 0x10800000
 8006ee4:	f503 1384 	add.w	r3, r3, #1081344	@ 0x108000
 8006ee8:	009b      	lsls	r3, r3, #2
 8006eea:	461a      	mov	r2, r3
 8006eec:	2300      	movs	r3, #0
 8006eee:	6013      	str	r3, [r2, #0]
        
        /* Get Start Tick */
        tickstart = HAL_GetTick();
 8006ef0:	f7fe fc90 	bl	8005814 <HAL_GetTick>
 8006ef4:	f8c7 0200 	str.w	r0, [r7, #512]	@ 0x200
        
        /* Wait till PLL is disabled */
        while(__HAL_RCC_GET_FLAG(RCC_FLAG_PLLRDY)  != RESET)
 8006ef8:	e009      	b.n	8006f0e <HAL_RCC_OscConfig+0xc1a>
        {
          if((HAL_GetTick() - tickstart ) > PLL_TIMEOUT_VALUE)
 8006efa:	f7fe fc8b 	bl	8005814 <HAL_GetTick>
 8006efe:	4602      	mov	r2, r0
 8006f00:	f8d7 3200 	ldr.w	r3, [r7, #512]	@ 0x200
 8006f04:	1ad3      	subs	r3, r2, r3
 8006f06:	2b02      	cmp	r3, #2
 8006f08:	d901      	bls.n	8006f0e <HAL_RCC_OscConfig+0xc1a>
          {
            return HAL_TIMEOUT;
 8006f0a:	2303      	movs	r3, #3
 8006f0c:	e20f      	b.n	800732e <HAL_RCC_OscConfig+0x103a>
 8006f0e:	f507 7302 	add.w	r3, r7, #520	@ 0x208
 8006f12:	f5a3 73c6 	sub.w	r3, r3, #396	@ 0x18c
 8006f16:	f04f 7200 	mov.w	r2, #33554432	@ 0x2000000
 8006f1a:	601a      	str	r2, [r3, #0]
   __ASM volatile ("rbit %0, %1" : "=r" (result) : "r" (value) );
 8006f1c:	f507 7302 	add.w	r3, r7, #520	@ 0x208
 8006f20:	f5a3 73c6 	sub.w	r3, r3, #396	@ 0x18c
 8006f24:	681b      	ldr	r3, [r3, #0]
 8006f26:	fa93 f2a3 	rbit	r2, r3
 8006f2a:	f507 7302 	add.w	r3, r7, #520	@ 0x208
 8006f2e:	f5a3 73c8 	sub.w	r3, r3, #400	@ 0x190
 8006f32:	601a      	str	r2, [r3, #0]
  return result;
 8006f34:	f507 7302 	add.w	r3, r7, #520	@ 0x208
 8006f38:	f5a3 73c8 	sub.w	r3, r3, #400	@ 0x190
 8006f3c:	681b      	ldr	r3, [r3, #0]
        while(__HAL_RCC_GET_FLAG(RCC_FLAG_PLLRDY)  != RESET)
 8006f3e:	fab3 f383 	clz	r3, r3
 8006f42:	b2db      	uxtb	r3, r3
 8006f44:	2b3f      	cmp	r3, #63	@ 0x3f
 8006f46:	d805      	bhi.n	8006f54 <HAL_RCC_OscConfig+0xc60>
 8006f48:	4b01      	ldr	r3, [pc, #4]	@ (8006f50 <HAL_RCC_OscConfig+0xc5c>)
 8006f4a:	681b      	ldr	r3, [r3, #0]
 8006f4c:	e02a      	b.n	8006fa4 <HAL_RCC_OscConfig+0xcb0>
 8006f4e:	bf00      	nop
 8006f50:	40021000 	.word	0x40021000
 8006f54:	f507 7302 	add.w	r3, r7, #520	@ 0x208
 8006f58:	f5a3 73ca 	sub.w	r3, r3, #404	@ 0x194
 8006f5c:	f04f 7200 	mov.w	r2, #33554432	@ 0x2000000
 8006f60:	601a      	str	r2, [r3, #0]
   __ASM volatile ("rbit %0, %1" : "=r" (result) : "r" (value) );
 8006f62:	f507 7302 	add.w	r3, r7, #520	@ 0x208
 8006f66:	f5a3 73ca 	sub.w	r3, r3, #404	@ 0x194
 8006f6a:	681b      	ldr	r3, [r3, #0]
 8006f6c:	fa93 f2a3 	rbit	r2, r3
 8006f70:	f507 7302 	add.w	r3, r7, #520	@ 0x208
 8006f74:	f5a3 73cc 	sub.w	r3, r3, #408	@ 0x198
 8006f78:	601a      	str	r2, [r3, #0]
 8006f7a:	f507 7302 	add.w	r3, r7, #520	@ 0x208
 8006f7e:	f5a3 73ce 	sub.w	r3, r3, #412	@ 0x19c
 8006f82:	f04f 7200 	mov.w	r2, #33554432	@ 0x2000000
 8006f86:	601a      	str	r2, [r3, #0]
 8006f88:	f507 7302 	add.w	r3, r7, #520	@ 0x208
 8006f8c:	f5a3 73ce 	sub.w	r3, r3, #412	@ 0x19c
 8006f90:	681b      	ldr	r3, [r3, #0]
 8006f92:	fa93 f2a3 	rbit	r2, r3
 8006f96:	f507 7302 	add.w	r3, r7, #520	@ 0x208
 8006f9a:	f5a3 73d0 	sub.w	r3, r3, #416	@ 0x1a0
 8006f9e:	601a      	str	r2, [r3, #0]
 8006fa0:	4bca      	ldr	r3, [pc, #808]	@ (80072cc <HAL_RCC_OscConfig+0xfd8>)
 8006fa2:	6a5b      	ldr	r3, [r3, #36]	@ 0x24
 8006fa4:	f507 7202 	add.w	r2, r7, #520	@ 0x208
 8006fa8:	f5a2 72d2 	sub.w	r2, r2, #420	@ 0x1a4
 8006fac:	f04f 7100 	mov.w	r1, #33554432	@ 0x2000000
 8006fb0:	6011      	str	r1, [r2, #0]
 8006fb2:	f507 7202 	add.w	r2, r7, #520	@ 0x208
 8006fb6:	f5a2 72d2 	sub.w	r2, r2, #420	@ 0x1a4
 8006fba:	6812      	ldr	r2, [r2, #0]
 8006fbc:	fa92 f1a2 	rbit	r1, r2
 8006fc0:	f507 7202 	add.w	r2, r7, #520	@ 0x208
 8006fc4:	f5a2 72d4 	sub.w	r2, r2, #424	@ 0x1a8
 8006fc8:	6011      	str	r1, [r2, #0]
  return result;
 8006fca:	f507 7202 	add.w	r2, r7, #520	@ 0x208
 8006fce:	f5a2 72d4 	sub.w	r2, r2, #424	@ 0x1a8
 8006fd2:	6812      	ldr	r2, [r2, #0]
 8006fd4:	fab2 f282 	clz	r2, r2
 8006fd8:	b2d2      	uxtb	r2, r2
 8006fda:	f042 0220 	orr.w	r2, r2, #32
 8006fde:	b2d2      	uxtb	r2, r2
 8006fe0:	f002 021f 	and.w	r2, r2, #31
 8006fe4:	2101      	movs	r1, #1
 8006fe6:	fa01 f202 	lsl.w	r2, r1, r2
 8006fea:	4013      	ands	r3, r2
 8006fec:	2b00      	cmp	r3, #0
 8006fee:	d184      	bne.n	8006efa <HAL_RCC_OscConfig+0xc06>
          }
        }

#if defined(RCC_CFGR_PLLSRC_HSI_PREDIV)
        /* Configure the main PLL clock source, predivider and multiplication factor. */
        __HAL_RCC_PLL_CONFIG(RCC_OscInitStruct->PLL.PLLSource,
 8006ff0:	4bb6      	ldr	r3, [pc, #728]	@ (80072cc <HAL_RCC_OscConfig+0xfd8>)
 8006ff2:	6adb      	ldr	r3, [r3, #44]	@ 0x2c
 8006ff4:	f023 020f 	bic.w	r2, r3, #15
 8006ff8:	f507 7302 	add.w	r3, r7, #520	@ 0x208
 8006ffc:	f5a3 7301 	sub.w	r3, r3, #516	@ 0x204
 8007000:	681b      	ldr	r3, [r3, #0]
 8007002:	6a5b      	ldr	r3, [r3, #36]	@ 0x24
 8007004:	49b1      	ldr	r1, [pc, #708]	@ (80072cc <HAL_RCC_OscConfig+0xfd8>)
 8007006:	4313      	orrs	r3, r2
 8007008:	62cb      	str	r3, [r1, #44]	@ 0x2c
 800700a:	4bb0      	ldr	r3, [pc, #704]	@ (80072cc <HAL_RCC_OscConfig+0xfd8>)
 800700c:	685b      	ldr	r3, [r3, #4]
 800700e:	f423 1276 	bic.w	r2, r3, #4030464	@ 0x3d8000
 8007012:	f507 7302 	add.w	r3, r7, #520	@ 0x208
 8007016:	f5a3 7301 	sub.w	r3, r3, #516	@ 0x204
 800701a:	681b      	ldr	r3, [r3, #0]
 800701c:	6a19      	ldr	r1, [r3, #32]
 800701e:	f507 7302 	add.w	r3, r7, #520	@ 0x208
 8007022:	f5a3 7301 	sub.w	r3, r3, #516	@ 0x204
 8007026:	681b      	ldr	r3, [r3, #0]
 8007028:	69db      	ldr	r3, [r3, #28]
 800702a:	430b      	orrs	r3, r1
 800702c:	49a7      	ldr	r1, [pc, #668]	@ (80072cc <HAL_RCC_OscConfig+0xfd8>)
 800702e:	4313      	orrs	r3, r2
 8007030:	604b      	str	r3, [r1, #4]
 8007032:	f507 7302 	add.w	r3, r7, #520	@ 0x208
 8007036:	f5a3 73d6 	sub.w	r3, r3, #428	@ 0x1ac
 800703a:	f04f 7280 	mov.w	r2, #16777216	@ 0x1000000
 800703e:	601a      	str	r2, [r3, #0]
   __ASM volatile ("rbit %0, %1" : "=r" (result) : "r" (value) );
 8007040:	f507 7302 	add.w	r3, r7, #520	@ 0x208
 8007044:	f5a3 73d6 	sub.w	r3, r3, #428	@ 0x1ac
 8007048:	681b      	ldr	r3, [r3, #0]
 800704a:	fa93 f2a3 	rbit	r2, r3
 800704e:	f507 7302 	add.w	r3, r7, #520	@ 0x208
 8007052:	f5a3 73d8 	sub.w	r3, r3, #432	@ 0x1b0
 8007056:	601a      	str	r2, [r3, #0]
  return result;
 8007058:	f507 7302 	add.w	r3, r7, #520	@ 0x208
 800705c:	f5a3 73d8 	sub.w	r3, r3, #432	@ 0x1b0
 8007060:	681b      	ldr	r3, [r3, #0]
      /* Configure the main PLL clock source and multiplication factor. */
      __HAL_RCC_PLL_CONFIG(RCC_OscInitStruct->PLL.PLLSource,
                           RCC_OscInitStruct->PLL.PLLMUL);
#endif /* RCC_CFGR_PLLSRC_HSI_PREDIV */
        /* Enable the main PLL. */
        __HAL_RCC_PLL_ENABLE();
 8007062:	fab3 f383 	clz	r3, r3
 8007066:	b2db      	uxtb	r3, r3
 8007068:	f103 5384 	add.w	r3, r3, #276824064	@ 0x10800000
 800706c:	f503 1384 	add.w	r3, r3, #1081344	@ 0x108000
 8007070:	009b      	lsls	r3, r3, #2
 8007072:	461a      	mov	r2, r3
 8007074:	2301      	movs	r3, #1
 8007076:	6013      	str	r3, [r2, #0]
        
        /* Get Start Tick */
        tickstart = HAL_GetTick();
 8007078:	f7fe fbcc 	bl	8005814 <HAL_GetTick>
 800707c:	f8c7 0200 	str.w	r0, [r7, #512]	@ 0x200
        
        /* Wait till PLL is ready */
        while(__HAL_RCC_GET_FLAG(RCC_FLAG_PLLRDY)  == RESET)
 8007080:	e009      	b.n	8007096 <HAL_RCC_OscConfig+0xda2>
        {
          if((HAL_GetTick() - tickstart ) > PLL_TIMEOUT_VALUE)
 8007082:	f7fe fbc7 	bl	8005814 <HAL_GetTick>
 8007086:	4602      	mov	r2, r0
 8007088:	f8d7 3200 	ldr.w	r3, [r7, #512]	@ 0x200
 800708c:	1ad3      	subs	r3, r2, r3
 800708e:	2b02      	cmp	r3, #2
 8007090:	d901      	bls.n	8007096 <HAL_RCC_OscConfig+0xda2>
          {
            return HAL_TIMEOUT;
 8007092:	2303      	movs	r3, #3
 8007094:	e14b      	b.n	800732e <HAL_RCC_OscConfig+0x103a>
 8007096:	f507 7302 	add.w	r3, r7, #520	@ 0x208
 800709a:	f5a3 73da 	sub.w	r3, r3, #436	@ 0x1b4
 800709e:	f04f 7200 	mov.w	r2, #33554432	@ 0x2000000
 80070a2:	601a      	str	r2, [r3, #0]
   __ASM volatile ("rbit %0, %1" : "=r" (result) : "r" (value) );
 80070a4:	f507 7302 	add.w	r3, r7, #520	@ 0x208
 80070a8:	f5a3 73da 	sub.w	r3, r3, #436	@ 0x1b4
 80070ac:	681b      	ldr	r3, [r3, #0]
 80070ae:	fa93 f2a3 	rbit	r2, r3
 80070b2:	f507 7302 	add.w	r3, r7, #520	@ 0x208
 80070b6:	f5a3 73dc 	sub.w	r3, r3, #440	@ 0x1b8
 80070ba:	601a      	str	r2, [r3, #0]
  return result;
 80070bc:	f507 7302 	add.w	r3, r7, #520	@ 0x208
 80070c0:	f5a3 73dc 	sub.w	r3, r3, #440	@ 0x1b8
 80070c4:	681b      	ldr	r3, [r3, #0]
        while(__HAL_RCC_GET_FLAG(RCC_FLAG_PLLRDY)  == RESET)
 80070c6:	fab3 f383 	clz	r3, r3
 80070ca:	b2db      	uxtb	r3, r3
 80070cc:	2b3f      	cmp	r3, #63	@ 0x3f
 80070ce:	d802      	bhi.n	80070d6 <HAL_RCC_OscConfig+0xde2>
 80070d0:	4b7e      	ldr	r3, [pc, #504]	@ (80072cc <HAL_RCC_OscConfig+0xfd8>)
 80070d2:	681b      	ldr	r3, [r3, #0]
 80070d4:	e027      	b.n	8007126 <HAL_RCC_OscConfig+0xe32>
 80070d6:	f507 7302 	add.w	r3, r7, #520	@ 0x208
 80070da:	f5a3 73de 	sub.w	r3, r3, #444	@ 0x1bc
 80070de:	f04f 7200 	mov.w	r2, #33554432	@ 0x2000000
 80070e2:	601a      	str	r2, [r3, #0]
   __ASM volatile ("rbit %0, %1" : "=r" (result) : "r" (value) );
 80070e4:	f507 7302 	add.w	r3, r7, #520	@ 0x208
 80070e8:	f5a3 73de 	sub.w	r3, r3, #444	@ 0x1bc
 80070ec:	681b      	ldr	r3, [r3, #0]
 80070ee:	fa93 f2a3 	rbit	r2, r3
 80070f2:	f507 7302 	add.w	r3, r7, #520	@ 0x208
 80070f6:	f5a3 73e0 	sub.w	r3, r3, #448	@ 0x1c0
 80070fa:	601a      	str	r2, [r3, #0]
 80070fc:	f507 7302 	add.w	r3, r7, #520	@ 0x208
 8007100:	f5a3 73e2 	sub.w	r3, r3, #452	@ 0x1c4
 8007104:	f04f 7200 	mov.w	r2, #33554432	@ 0x2000000
 8007108:	601a      	str	r2, [r3, #0]
 800710a:	f507 7302 	add.w	r3, r7, #520	@ 0x208
 800710e:	f5a3 73e2 	sub.w	r3, r3, #452	@ 0x1c4
 8007112:	681b      	ldr	r3, [r3, #0]
 8007114:	fa93 f2a3 	rbit	r2, r3
 8007118:	f507 7302 	add.w	r3, r7, #520	@ 0x208
 800711c:	f5a3 73e4 	sub.w	r3, r3, #456	@ 0x1c8
 8007120:	601a      	str	r2, [r3, #0]
 8007122:	4b6a      	ldr	r3, [pc, #424]	@ (80072cc <HAL_RCC_OscConfig+0xfd8>)
 8007124:	6a5b      	ldr	r3, [r3, #36]	@ 0x24
 8007126:	f507 7202 	add.w	r2, r7, #520	@ 0x208
 800712a:	f5a2 72e6 	sub.w	r2, r2, #460	@ 0x1cc
 800712e:	f04f 7100 	mov.w	r1, #33554432	@ 0x2000000
 8007132:	6011      	str	r1, [r2, #0]
 8007134:	f507 7202 	add.w	r2, r7, #520	@ 0x208
 8007138:	f5a2 72e6 	sub.w	r2, r2, #460	@ 0x1cc
 800713c:	6812      	ldr	r2, [r2, #0]
 800713e:	fa92 f1a2 	rbit	r1, r2
 8007142:	f507 7202 	add.w	r2, r7, #520	@ 0x208
 8007146:	f5a2 72e8 	sub.w	r2, r2, #464	@ 0x1d0
 800714a:	6011      	str	r1, [r2, #0]
  return result;
 800714c:	f507 7202 	add.w	r2, r7, #520	@ 0x208
 8007150:	f5a2 72e8 	sub.w	r2, r2, #464	@ 0x1d0
 8007154:	6812      	ldr	r2, [r2, #0]
 8007156:	fab2 f282 	clz	r2, r2
 800715a:	b2d2      	uxtb	r2, r2
 800715c:	f042 0220 	orr.w	r2, r2, #32
 8007160:	b2d2      	uxtb	r2, r2
 8007162:	f002 021f 	and.w	r2, r2, #31
 8007166:	2101      	movs	r1, #1
 8007168:	fa01 f202 	lsl.w	r2, r1, r2
 800716c:	4013      	ands	r3, r2
 800716e:	2b00      	cmp	r3, #0
 8007170:	d087      	beq.n	8007082 <HAL_RCC_OscConfig+0xd8e>
 8007172:	e0db      	b.n	800732c <HAL_RCC_OscConfig+0x1038>
 8007174:	f507 7302 	add.w	r3, r7, #520	@ 0x208
 8007178:	f5a3 73ea 	sub.w	r3, r3, #468	@ 0x1d4
 800717c:	f04f 7280 	mov.w	r2, #16777216	@ 0x1000000
 8007180:	601a      	str	r2, [r3, #0]
   __ASM volatile ("rbit %0, %1" : "=r" (result) : "r" (value) );
 8007182:	f507 7302 	add.w	r3, r7, #520	@ 0x208
 8007186:	f5a3 73ea 	sub.w	r3, r3, #468	@ 0x1d4
 800718a:	681b      	ldr	r3, [r3, #0]
 800718c:	fa93 f2a3 	rbit	r2, r3
 8007190:	f507 7302 	add.w	r3, r7, #520	@ 0x208
 8007194:	f5a3 73ec 	sub.w	r3, r3, #472	@ 0x1d8
 8007198:	601a      	str	r2, [r3, #0]
  return result;
 800719a:	f507 7302 	add.w	r3, r7, #520	@ 0x208
 800719e:	f5a3 73ec 	sub.w	r3, r3, #472	@ 0x1d8
 80071a2:	681b      	ldr	r3, [r3, #0]
        }
      }
      else
      {
        /* Disable the main PLL. */
        __HAL_RCC_PLL_DISABLE();
 80071a4:	fab3 f383 	clz	r3, r3
 80071a8:	b2db      	uxtb	r3, r3
 80071aa:	f103 5384 	add.w	r3, r3, #276824064	@ 0x10800000
 80071ae:	f503 1384 	add.w	r3, r3, #1081344	@ 0x108000
 80071b2:	009b      	lsls	r3, r3, #2
 80071b4:	461a      	mov	r2, r3
 80071b6:	2300      	movs	r3, #0
 80071b8:	6013      	str	r3, [r2, #0]
 
        /* Get Start Tick */
        tickstart = HAL_GetTick();
 80071ba:	f7fe fb2b 	bl	8005814 <HAL_GetTick>
 80071be:	f8c7 0200 	str.w	r0, [r7, #512]	@ 0x200
        
        /* Wait till PLL is disabled */  
        while(__HAL_RCC_GET_FLAG(RCC_FLAG_PLLRDY)  != RESET)
 80071c2:	e009      	b.n	80071d8 <HAL_RCC_OscConfig+0xee4>
        {
          if((HAL_GetTick() - tickstart ) > PLL_TIMEOUT_VALUE)
 80071c4:	f7fe fb26 	bl	8005814 <HAL_GetTick>
 80071c8:	4602      	mov	r2, r0
 80071ca:	f8d7 3200 	ldr.w	r3, [r7, #512]	@ 0x200
 80071ce:	1ad3      	subs	r3, r2, r3
 80071d0:	2b02      	cmp	r3, #2
 80071d2:	d901      	bls.n	80071d8 <HAL_RCC_OscConfig+0xee4>
          {
            return HAL_TIMEOUT;
 80071d4:	2303      	movs	r3, #3
 80071d6:	e0aa      	b.n	800732e <HAL_RCC_OscConfig+0x103a>
 80071d8:	f507 7302 	add.w	r3, r7, #520	@ 0x208
 80071dc:	f5a3 73ee 	sub.w	r3, r3, #476	@ 0x1dc
 80071e0:	f04f 7200 	mov.w	r2, #33554432	@ 0x2000000
 80071e4:	601a      	str	r2, [r3, #0]
   __ASM volatile ("rbit %0, %1" : "=r" (result) : "r" (value) );
 80071e6:	f507 7302 	add.w	r3, r7, #520	@ 0x208
 80071ea:	f5a3 73ee 	sub.w	r3, r3, #476	@ 0x1dc
 80071ee:	681b      	ldr	r3, [r3, #0]
 80071f0:	fa93 f2a3 	rbit	r2, r3
 80071f4:	f507 7302 	add.w	r3, r7, #520	@ 0x208
 80071f8:	f5a3 73f0 	sub.w	r3, r3, #480	@ 0x1e0
 80071fc:	601a      	str	r2, [r3, #0]
  return result;
 80071fe:	f507 7302 	add.w	r3, r7, #520	@ 0x208
 8007202:	f5a3 73f0 	sub.w	r3, r3, #480	@ 0x1e0
 8007206:	681b      	ldr	r3, [r3, #0]
        while(__HAL_RCC_GET_FLAG(RCC_FLAG_PLLRDY)  != RESET)
 8007208:	fab3 f383 	clz	r3, r3
 800720c:	b2db      	uxtb	r3, r3
 800720e:	2b3f      	cmp	r3, #63	@ 0x3f
 8007210:	d802      	bhi.n	8007218 <HAL_RCC_OscConfig+0xf24>
 8007212:	4b2e      	ldr	r3, [pc, #184]	@ (80072cc <HAL_RCC_OscConfig+0xfd8>)
 8007214:	681b      	ldr	r3, [r3, #0]
 8007216:	e027      	b.n	8007268 <HAL_RCC_OscConfig+0xf74>
 8007218:	f507 7302 	add.w	r3, r7, #520	@ 0x208
 800721c:	f5a3 73f2 	sub.w	r3, r3, #484	@ 0x1e4
 8007220:	f04f 7200 	mov.w	r2, #33554432	@ 0x2000000
 8007224:	601a      	str	r2, [r3, #0]
   __ASM volatile ("rbit %0, %1" : "=r" (result) : "r" (value) );
 8007226:	f507 7302 	add.w	r3, r7, #520	@ 0x208
 800722a:	f5a3 73f2 	sub.w	r3, r3, #484	@ 0x1e4
 800722e:	681b      	ldr	r3, [r3, #0]
 8007230:	fa93 f2a3 	rbit	r2, r3
 8007234:	f507 7302 	add.w	r3, r7, #520	@ 0x208
 8007238:	f5a3 73f4 	sub.w	r3, r3, #488	@ 0x1e8
 800723c:	601a      	str	r2, [r3, #0]
 800723e:	f507 7302 	add.w	r3, r7, #520	@ 0x208
 8007242:	f5a3 73f6 	sub.w	r3, r3, #492	@ 0x1ec
 8007246:	f04f 7200 	mov.w	r2, #33554432	@ 0x2000000
 800724a:	601a      	str	r2, [r3, #0]
 800724c:	f507 7302 	add.w	r3, r7, #520	@ 0x208
 8007250:	f5a3 73f6 	sub.w	r3, r3, #492	@ 0x1ec
 8007254:	681b      	ldr	r3, [r3, #0]
 8007256:	fa93 f2a3 	rbit	r2, r3
 800725a:	f507 7302 	add.w	r3, r7, #520	@ 0x208
 800725e:	f5a3 73f8 	sub.w	r3, r3, #496	@ 0x1f0
 8007262:	601a      	str	r2, [r3, #0]
 8007264:	4b19      	ldr	r3, [pc, #100]	@ (80072cc <HAL_RCC_OscConfig+0xfd8>)
 8007266:	6a5b      	ldr	r3, [r3, #36]	@ 0x24
 8007268:	f507 7202 	add.w	r2, r7, #520	@ 0x208
 800726c:	f5a2 72fa 	sub.w	r2, r2, #500	@ 0x1f4
 8007270:	f04f 7100 	mov.w	r1, #33554432	@ 0x2000000
 8007274:	6011      	str	r1, [r2, #0]
 8007276:	f507 7202 	add.w	r2, r7, #520	@ 0x208
 800727a:	f5a2 72fa 	sub.w	r2, r2, #500	@ 0x1f4
 800727e:	6812      	ldr	r2, [r2, #0]
 8007280:	fa92 f1a2 	rbit	r1, r2
 8007284:	f507 7202 	add.w	r2, r7, #520	@ 0x208
 8007288:	f5a2 72fc 	sub.w	r2, r2, #504	@ 0x1f8
 800728c:	6011      	str	r1, [r2, #0]
  return result;
 800728e:	f507 7202 	add.w	r2, r7, #520	@ 0x208
 8007292:	f5a2 72fc 	sub.w	r2, r2, #504	@ 0x1f8
 8007296:	6812      	ldr	r2, [r2, #0]
 8007298:	fab2 f282 	clz	r2, r2
 800729c:	b2d2      	uxtb	r2, r2
 800729e:	f042 0220 	orr.w	r2, r2, #32
 80072a2:	b2d2      	uxtb	r2, r2
 80072a4:	f002 021f 	and.w	r2, r2, #31
 80072a8:	2101      	movs	r1, #1
 80072aa:	fa01 f202 	lsl.w	r2, r1, r2
 80072ae:	4013      	ands	r3, r2
 80072b0:	2b00      	cmp	r3, #0
 80072b2:	d187      	bne.n	80071c4 <HAL_RCC_OscConfig+0xed0>
 80072b4:	e03a      	b.n	800732c <HAL_RCC_OscConfig+0x1038>
      }
    }
    else
    {
      /* Check if there is a request to disable the PLL used as System clock source */
      if((RCC_OscInitStruct->PLL.PLLState) == RCC_PLL_OFF)
 80072b6:	f507 7302 	add.w	r3, r7, #520	@ 0x208
 80072ba:	f5a3 7301 	sub.w	r3, r3, #516	@ 0x204
 80072be:	681b      	ldr	r3, [r3, #0]
 80072c0:	699b      	ldr	r3, [r3, #24]
 80072c2:	2b01      	cmp	r3, #1
 80072c4:	d104      	bne.n	80072d0 <HAL_RCC_OscConfig+0xfdc>
      {
        return HAL_ERROR;
 80072c6:	2301      	movs	r3, #1
 80072c8:	e031      	b.n	800732e <HAL_RCC_OscConfig+0x103a>
 80072ca:	bf00      	nop
 80072cc:	40021000 	.word	0x40021000
      }
      else
      {
        /* Do not return HAL_ERROR if request repeats the current configuration */
        pll_config = RCC->CFGR;
 80072d0:	4b19      	ldr	r3, [pc, #100]	@ (8007338 <HAL_RCC_OscConfig+0x1044>)
 80072d2:	685b      	ldr	r3, [r3, #4]
 80072d4:	f8c7 31fc 	str.w	r3, [r7, #508]	@ 0x1fc
#if defined(RCC_CFGR_PLLSRC_HSI_PREDIV)
        pll_config2 = RCC->CFGR2;
 80072d8:	4b17      	ldr	r3, [pc, #92]	@ (8007338 <HAL_RCC_OscConfig+0x1044>)
 80072da:	6adb      	ldr	r3, [r3, #44]	@ 0x2c
 80072dc:	f8c7 31f8 	str.w	r3, [r7, #504]	@ 0x1f8
        if((READ_BIT(pll_config, RCC_CFGR_PLLSRC)   != RCC_OscInitStruct->PLL.PLLSource) ||      
 80072e0:	f8d7 31fc 	ldr.w	r3, [r7, #508]	@ 0x1fc
 80072e4:	f403 32c0 	and.w	r2, r3, #98304	@ 0x18000
 80072e8:	f507 7302 	add.w	r3, r7, #520	@ 0x208
 80072ec:	f5a3 7301 	sub.w	r3, r3, #516	@ 0x204
 80072f0:	681b      	ldr	r3, [r3, #0]
 80072f2:	69db      	ldr	r3, [r3, #28]
 80072f4:	429a      	cmp	r2, r3
 80072f6:	d117      	bne.n	8007328 <HAL_RCC_OscConfig+0x1034>
           (READ_BIT(pll_config, RCC_CFGR_PLLMUL)   != RCC_OscInitStruct->PLL.PLLMUL)    ||      
 80072f8:	f8d7 31fc 	ldr.w	r3, [r7, #508]	@ 0x1fc
 80072fc:	f403 1270 	and.w	r2, r3, #3932160	@ 0x3c0000
 8007300:	f507 7302 	add.w	r3, r7, #520	@ 0x208
 8007304:	f5a3 7301 	sub.w	r3, r3, #516	@ 0x204
 8007308:	681b      	ldr	r3, [r3, #0]
 800730a:	6a1b      	ldr	r3, [r3, #32]
        if((READ_BIT(pll_config, RCC_CFGR_PLLSRC)   != RCC_OscInitStruct->PLL.PLLSource) ||      
 800730c:	429a      	cmp	r2, r3
 800730e:	d10b      	bne.n	8007328 <HAL_RCC_OscConfig+0x1034>
           (READ_BIT(pll_config2, RCC_CFGR2_PREDIV)  != RCC_OscInitStruct->PLL.PREDIV))     
 8007310:	f8d7 31f8 	ldr.w	r3, [r7, #504]	@ 0x1f8
 8007314:	f003 020f 	and.w	r2, r3, #15
 8007318:	f507 7302 	add.w	r3, r7, #520	@ 0x208
 800731c:	f5a3 7301 	sub.w	r3, r3, #516	@ 0x204
 8007320:	681b      	ldr	r3, [r3, #0]
 8007322:	6a5b      	ldr	r3, [r3, #36]	@ 0x24
           (READ_BIT(pll_config, RCC_CFGR_PLLMUL)   != RCC_OscInitStruct->PLL.PLLMUL)    ||      
 8007324:	429a      	cmp	r2, r3
 8007326:	d001      	beq.n	800732c <HAL_RCC_OscConfig+0x1038>
#else
        if((READ_BIT(pll_config, RCC_CFGR_PLLSRC)   != RCC_OscInitStruct->PLL.PLLSource) ||      
           (READ_BIT(pll_config, RCC_CFGR_PLLMUL)   != RCC_OscInitStruct->PLL.PLLMUL))
#endif
        {
          return HAL_ERROR;
 8007328:	2301      	movs	r3, #1
 800732a:	e000      	b.n	800732e <HAL_RCC_OscConfig+0x103a>
        }
      }
    }
  }

  return HAL_OK;
 800732c:	2300      	movs	r3, #0
}
 800732e:	4618      	mov	r0, r3
 8007330:	f507 7702 	add.w	r7, r7, #520	@ 0x208
 8007334:	46bd      	mov	sp, r7
 8007336:	bd80      	pop	{r7, pc}
 8007338:	40021000 	.word	0x40021000

0800733c <HAL_RCC_ClockConfig>:
  *         You can use @ref HAL_RCC_GetClockConfig() function to know which clock is
  *         currently used as system clock source.
  * @retval HAL status
  */
HAL_StatusTypeDef HAL_RCC_ClockConfig(RCC_ClkInitTypeDef  *RCC_ClkInitStruct, uint32_t FLatency)
{
 800733c:	b580      	push	{r7, lr}
 800733e:	b09e      	sub	sp, #120	@ 0x78
 8007340:	af00      	add	r7, sp, #0
 8007342:	6078      	str	r0, [r7, #4]
 8007344:	6039      	str	r1, [r7, #0]
  uint32_t tickstart = 0U;
 8007346:	2300      	movs	r3, #0
 8007348:	677b      	str	r3, [r7, #116]	@ 0x74

  /* Check Null pointer */
  if(RCC_ClkInitStruct == NULL)
 800734a:	687b      	ldr	r3, [r7, #4]
 800734c:	2b00      	cmp	r3, #0
 800734e:	d101      	bne.n	8007354 <HAL_RCC_ClockConfig+0x18>
  {
    return HAL_ERROR;
 8007350:	2301      	movs	r3, #1
 8007352:	e154      	b.n	80075fe <HAL_RCC_ClockConfig+0x2c2>
  /* To correctly read data from FLASH memory, the number of wait states (LATENCY) 
  must be correctly programmed according to the frequency of the CPU clock 
    (HCLK) of the device. */

  /* Increasing the number of wait states because of higher CPU frequency */
  if(FLatency > __HAL_FLASH_GET_LATENCY())
 8007354:	4b89      	ldr	r3, [pc, #548]	@ (800757c <HAL_RCC_ClockConfig+0x240>)
 8007356:	681b      	ldr	r3, [r3, #0]
 8007358:	f003 0307 	and.w	r3, r3, #7
 800735c:	683a      	ldr	r2, [r7, #0]
 800735e:	429a      	cmp	r2, r3
 8007360:	d910      	bls.n	8007384 <HAL_RCC_ClockConfig+0x48>
  {    
    /* Program the new number of wait states to the LATENCY bits in the FLASH_ACR register */
    __HAL_FLASH_SET_LATENCY(FLatency);
 8007362:	4b86      	ldr	r3, [pc, #536]	@ (800757c <HAL_RCC_ClockConfig+0x240>)
 8007364:	681b      	ldr	r3, [r3, #0]
 8007366:	f023 0207 	bic.w	r2, r3, #7
 800736a:	4984      	ldr	r1, [pc, #528]	@ (800757c <HAL_RCC_ClockConfig+0x240>)
 800736c:	683b      	ldr	r3, [r7, #0]
 800736e:	4313      	orrs	r3, r2
 8007370:	600b      	str	r3, [r1, #0]
    
    /* Check that the new number of wait states is taken into account to access the Flash
    memory by reading the FLASH_ACR register */
    if(__HAL_FLASH_GET_LATENCY() != FLatency)
 8007372:	4b82      	ldr	r3, [pc, #520]	@ (800757c <HAL_RCC_ClockConfig+0x240>)
 8007374:	681b      	ldr	r3, [r3, #0]
 8007376:	f003 0307 	and.w	r3, r3, #7
 800737a:	683a      	ldr	r2, [r7, #0]
 800737c:	429a      	cmp	r2, r3
 800737e:	d001      	beq.n	8007384 <HAL_RCC_ClockConfig+0x48>
    {
      return HAL_ERROR;
 8007380:	2301      	movs	r3, #1
 8007382:	e13c      	b.n	80075fe <HAL_RCC_ClockConfig+0x2c2>
    }
  }

  /*-------------------------- HCLK Configuration --------------------------*/
  if(((RCC_ClkInitStruct->ClockType) & RCC_CLOCKTYPE_HCLK) == RCC_CLOCKTYPE_HCLK)
 8007384:	687b      	ldr	r3, [r7, #4]
 8007386:	681b      	ldr	r3, [r3, #0]
 8007388:	f003 0302 	and.w	r3, r3, #2
 800738c:	2b00      	cmp	r3, #0
 800738e:	d008      	beq.n	80073a2 <HAL_RCC_ClockConfig+0x66>
  {
    assert_param(IS_RCC_HCLK(RCC_ClkInitStruct->AHBCLKDivider));
    MODIFY_REG(RCC->CFGR, RCC_CFGR_HPRE, RCC_ClkInitStruct->AHBCLKDivider);
 8007390:	4b7b      	ldr	r3, [pc, #492]	@ (8007580 <HAL_RCC_ClockConfig+0x244>)
 8007392:	685b      	ldr	r3, [r3, #4]
 8007394:	f023 02f0 	bic.w	r2, r3, #240	@ 0xf0
 8007398:	687b      	ldr	r3, [r7, #4]
 800739a:	689b      	ldr	r3, [r3, #8]
 800739c:	4978      	ldr	r1, [pc, #480]	@ (8007580 <HAL_RCC_ClockConfig+0x244>)
 800739e:	4313      	orrs	r3, r2
 80073a0:	604b      	str	r3, [r1, #4]
  }

  /*------------------------- SYSCLK Configuration ---------------------------*/ 
  if(((RCC_ClkInitStruct->ClockType) & RCC_CLOCKTYPE_SYSCLK) == RCC_CLOCKTYPE_SYSCLK)
 80073a2:	687b      	ldr	r3, [r7, #4]
 80073a4:	681b      	ldr	r3, [r3, #0]
 80073a6:	f003 0301 	and.w	r3, r3, #1
 80073aa:	2b00      	cmp	r3, #0
 80073ac:	f000 80cd 	beq.w	800754a <HAL_RCC_ClockConfig+0x20e>
  {    
    assert_param(IS_RCC_SYSCLKSOURCE(RCC_ClkInitStruct->SYSCLKSource));
    
    /* HSE is selected as System Clock Source */
    if(RCC_ClkInitStruct->SYSCLKSource == RCC_SYSCLKSOURCE_HSE)
 80073b0:	687b      	ldr	r3, [r7, #4]
 80073b2:	685b      	ldr	r3, [r3, #4]
 80073b4:	2b01      	cmp	r3, #1
 80073b6:	d137      	bne.n	8007428 <HAL_RCC_ClockConfig+0xec>
 80073b8:	f44f 3300 	mov.w	r3, #131072	@ 0x20000
 80073bc:	66fb      	str	r3, [r7, #108]	@ 0x6c
   __ASM volatile ("rbit %0, %1" : "=r" (result) : "r" (value) );
 80073be:	6efb      	ldr	r3, [r7, #108]	@ 0x6c
 80073c0:	fa93 f3a3 	rbit	r3, r3
 80073c4:	673b      	str	r3, [r7, #112]	@ 0x70
  return result;
 80073c6:	6f3b      	ldr	r3, [r7, #112]	@ 0x70
    {
      /* Check the HSE ready flag */  
      if(__HAL_RCC_GET_FLAG(RCC_FLAG_HSERDY) == RESET)
 80073c8:	fab3 f383 	clz	r3, r3
 80073cc:	b2db      	uxtb	r3, r3
 80073ce:	2b3f      	cmp	r3, #63	@ 0x3f
 80073d0:	d802      	bhi.n	80073d8 <HAL_RCC_ClockConfig+0x9c>
 80073d2:	4b6b      	ldr	r3, [pc, #428]	@ (8007580 <HAL_RCC_ClockConfig+0x244>)
 80073d4:	681b      	ldr	r3, [r3, #0]
 80073d6:	e00f      	b.n	80073f8 <HAL_RCC_ClockConfig+0xbc>
 80073d8:	f44f 3300 	mov.w	r3, #131072	@ 0x20000
 80073dc:	66bb      	str	r3, [r7, #104]	@ 0x68
   __ASM volatile ("rbit %0, %1" : "=r" (result) : "r" (value) );
 80073de:	6ebb      	ldr	r3, [r7, #104]	@ 0x68
 80073e0:	fa93 f3a3 	rbit	r3, r3
 80073e4:	667b      	str	r3, [r7, #100]	@ 0x64
 80073e6:	f44f 3300 	mov.w	r3, #131072	@ 0x20000
 80073ea:	663b      	str	r3, [r7, #96]	@ 0x60
 80073ec:	6e3b      	ldr	r3, [r7, #96]	@ 0x60
 80073ee:	fa93 f3a3 	rbit	r3, r3
 80073f2:	65fb      	str	r3, [r7, #92]	@ 0x5c
 80073f4:	4b62      	ldr	r3, [pc, #392]	@ (8007580 <HAL_RCC_ClockConfig+0x244>)
 80073f6:	6a5b      	ldr	r3, [r3, #36]	@ 0x24
 80073f8:	f44f 3200 	mov.w	r2, #131072	@ 0x20000
 80073fc:	65ba      	str	r2, [r7, #88]	@ 0x58
 80073fe:	6dba      	ldr	r2, [r7, #88]	@ 0x58
 8007400:	fa92 f2a2 	rbit	r2, r2
 8007404:	657a      	str	r2, [r7, #84]	@ 0x54
  return result;
 8007406:	6d7a      	ldr	r2, [r7, #84]	@ 0x54
 8007408:	fab2 f282 	clz	r2, r2
 800740c:	b2d2      	uxtb	r2, r2
 800740e:	f042 0220 	orr.w	r2, r2, #32
 8007412:	b2d2      	uxtb	r2, r2
 8007414:	f002 021f 	and.w	r2, r2, #31
 8007418:	2101      	movs	r1, #1
 800741a:	fa01 f202 	lsl.w	r2, r1, r2
 800741e:	4013      	ands	r3, r2
 8007420:	2b00      	cmp	r3, #0
 8007422:	d171      	bne.n	8007508 <HAL_RCC_ClockConfig+0x1cc>
      {
        return HAL_ERROR;
 8007424:	2301      	movs	r3, #1
 8007426:	e0ea      	b.n	80075fe <HAL_RCC_ClockConfig+0x2c2>
      }
    }
    /* PLL is selected as System Clock Source */
    else if(RCC_ClkInitStruct->SYSCLKSource == RCC_SYSCLKSOURCE_PLLCLK)
 8007428:	687b      	ldr	r3, [r7, #4]
 800742a:	685b      	ldr	r3, [r3, #4]
 800742c:	2b02      	cmp	r3, #2
 800742e:	d137      	bne.n	80074a0 <HAL_RCC_ClockConfig+0x164>
 8007430:	f04f 7300 	mov.w	r3, #33554432	@ 0x2000000
 8007434:	653b      	str	r3, [r7, #80]	@ 0x50
   __ASM volatile ("rbit %0, %1" : "=r" (result) : "r" (value) );
 8007436:	6d3b      	ldr	r3, [r7, #80]	@ 0x50
 8007438:	fa93 f3a3 	rbit	r3, r3
 800743c:	64fb      	str	r3, [r7, #76]	@ 0x4c
  return result;
 800743e:	6cfb      	ldr	r3, [r7, #76]	@ 0x4c
    {
      /* Check the PLL ready flag */  
      if(__HAL_RCC_GET_FLAG(RCC_FLAG_PLLRDY) == RESET)
 8007440:	fab3 f383 	clz	r3, r3
 8007444:	b2db      	uxtb	r3, r3
 8007446:	2b3f      	cmp	r3, #63	@ 0x3f
 8007448:	d802      	bhi.n	8007450 <HAL_RCC_ClockConfig+0x114>
 800744a:	4b4d      	ldr	r3, [pc, #308]	@ (8007580 <HAL_RCC_ClockConfig+0x244>)
 800744c:	681b      	ldr	r3, [r3, #0]
 800744e:	e00f      	b.n	8007470 <HAL_RCC_ClockConfig+0x134>
 8007450:	f04f 7300 	mov.w	r3, #33554432	@ 0x2000000
 8007454:	64bb      	str	r3, [r7, #72]	@ 0x48
   __ASM volatile ("rbit %0, %1" : "=r" (result) : "r" (value) );
 8007456:	6cbb      	ldr	r3, [r7, #72]	@ 0x48
 8007458:	fa93 f3a3 	rbit	r3, r3
 800745c:	647b      	str	r3, [r7, #68]	@ 0x44
 800745e:	f04f 7300 	mov.w	r3, #33554432	@ 0x2000000
 8007462:	643b      	str	r3, [r7, #64]	@ 0x40
 8007464:	6c3b      	ldr	r3, [r7, #64]	@ 0x40
 8007466:	fa93 f3a3 	rbit	r3, r3
 800746a:	63fb      	str	r3, [r7, #60]	@ 0x3c
 800746c:	4b44      	ldr	r3, [pc, #272]	@ (8007580 <HAL_RCC_ClockConfig+0x244>)
 800746e:	6a5b      	ldr	r3, [r3, #36]	@ 0x24
 8007470:	f04f 7200 	mov.w	r2, #33554432	@ 0x2000000
 8007474:	63ba      	str	r2, [r7, #56]	@ 0x38
 8007476:	6bba      	ldr	r2, [r7, #56]	@ 0x38
 8007478:	fa92 f2a2 	rbit	r2, r2
 800747c:	637a      	str	r2, [r7, #52]	@ 0x34
  return result;
 800747e:	6b7a      	ldr	r2, [r7, #52]	@ 0x34
 8007480:	fab2 f282 	clz	r2, r2
 8007484:	b2d2      	uxtb	r2, r2
 8007486:	f042 0220 	orr.w	r2, r2, #32
 800748a:	b2d2      	uxtb	r2, r2
 800748c:	f002 021f 	and.w	r2, r2, #31
 8007490:	2101      	movs	r1, #1
 8007492:	fa01 f202 	lsl.w	r2, r1, r2
 8007496:	4013      	ands	r3, r2
 8007498:	2b00      	cmp	r3, #0
 800749a:	d135      	bne.n	8007508 <HAL_RCC_ClockConfig+0x1cc>
      {
        return HAL_ERROR;
 800749c:	2301      	movs	r3, #1
 800749e:	e0ae      	b.n	80075fe <HAL_RCC_ClockConfig+0x2c2>
 80074a0:	2302      	movs	r3, #2
 80074a2:	633b      	str	r3, [r7, #48]	@ 0x30
   __ASM volatile ("rbit %0, %1" : "=r" (result) : "r" (value) );
 80074a4:	6b3b      	ldr	r3, [r7, #48]	@ 0x30
 80074a6:	fa93 f3a3 	rbit	r3, r3
 80074aa:	62fb      	str	r3, [r7, #44]	@ 0x2c
  return result;
 80074ac:	6afb      	ldr	r3, [r7, #44]	@ 0x2c
    }
    /* HSI is selected as System Clock Source */
    else
    {
      /* Check the HSI ready flag */  
      if(__HAL_RCC_GET_FLAG(RCC_FLAG_HSIRDY) == RESET)
 80074ae:	fab3 f383 	clz	r3, r3
 80074b2:	b2db      	uxtb	r3, r3
 80074b4:	2b3f      	cmp	r3, #63	@ 0x3f
 80074b6:	d802      	bhi.n	80074be <HAL_RCC_ClockConfig+0x182>
 80074b8:	4b31      	ldr	r3, [pc, #196]	@ (8007580 <HAL_RCC_ClockConfig+0x244>)
 80074ba:	681b      	ldr	r3, [r3, #0]
 80074bc:	e00d      	b.n	80074da <HAL_RCC_ClockConfig+0x19e>
 80074be:	2302      	movs	r3, #2
 80074c0:	62bb      	str	r3, [r7, #40]	@ 0x28
   __ASM volatile ("rbit %0, %1" : "=r" (result) : "r" (value) );
 80074c2:	6abb      	ldr	r3, [r7, #40]	@ 0x28
 80074c4:	fa93 f3a3 	rbit	r3, r3
 80074c8:	627b      	str	r3, [r7, #36]	@ 0x24
 80074ca:	2302      	movs	r3, #2
 80074cc:	623b      	str	r3, [r7, #32]
 80074ce:	6a3b      	ldr	r3, [r7, #32]
 80074d0:	fa93 f3a3 	rbit	r3, r3
 80074d4:	61fb      	str	r3, [r7, #28]
 80074d6:	4b2a      	ldr	r3, [pc, #168]	@ (8007580 <HAL_RCC_ClockConfig+0x244>)
 80074d8:	6a5b      	ldr	r3, [r3, #36]	@ 0x24
 80074da:	2202      	movs	r2, #2
 80074dc:	61ba      	str	r2, [r7, #24]
 80074de:	69ba      	ldr	r2, [r7, #24]
 80074e0:	fa92 f2a2 	rbit	r2, r2
 80074e4:	617a      	str	r2, [r7, #20]
  return result;
 80074e6:	697a      	ldr	r2, [r7, #20]
 80074e8:	fab2 f282 	clz	r2, r2
 80074ec:	b2d2      	uxtb	r2, r2
 80074ee:	f042 0220 	orr.w	r2, r2, #32
 80074f2:	b2d2      	uxtb	r2, r2
 80074f4:	f002 021f 	and.w	r2, r2, #31
 80074f8:	2101      	movs	r1, #1
 80074fa:	fa01 f202 	lsl.w	r2, r1, r2
 80074fe:	4013      	ands	r3, r2
 8007500:	2b00      	cmp	r3, #0
 8007502:	d101      	bne.n	8007508 <HAL_RCC_ClockConfig+0x1cc>
      {
        return HAL_ERROR;
 8007504:	2301      	movs	r3, #1
 8007506:	e07a      	b.n	80075fe <HAL_RCC_ClockConfig+0x2c2>
      }
    }

    __HAL_RCC_SYSCLK_CONFIG(RCC_ClkInitStruct->SYSCLKSource);
 8007508:	4b1d      	ldr	r3, [pc, #116]	@ (8007580 <HAL_RCC_ClockConfig+0x244>)
 800750a:	685b      	ldr	r3, [r3, #4]
 800750c:	f023 0203 	bic.w	r2, r3, #3
 8007510:	687b      	ldr	r3, [r7, #4]
 8007512:	685b      	ldr	r3, [r3, #4]
 8007514:	491a      	ldr	r1, [pc, #104]	@ (8007580 <HAL_RCC_ClockConfig+0x244>)
 8007516:	4313      	orrs	r3, r2
 8007518:	604b      	str	r3, [r1, #4]

    /* Get Start Tick */
    tickstart = HAL_GetTick();
 800751a:	f7fe f97b 	bl	8005814 <HAL_GetTick>
 800751e:	6778      	str	r0, [r7, #116]	@ 0x74
    
    while (__HAL_RCC_GET_SYSCLK_SOURCE() != (RCC_ClkInitStruct->SYSCLKSource << RCC_CFGR_SWS_Pos))
 8007520:	e00a      	b.n	8007538 <HAL_RCC_ClockConfig+0x1fc>
    {
      if ((HAL_GetTick() - tickstart) > CLOCKSWITCH_TIMEOUT_VALUE)
 8007522:	f7fe f977 	bl	8005814 <HAL_GetTick>
 8007526:	4602      	mov	r2, r0
 8007528:	6f7b      	ldr	r3, [r7, #116]	@ 0x74
 800752a:	1ad3      	subs	r3, r2, r3
 800752c:	f241 3288 	movw	r2, #5000	@ 0x1388
 8007530:	4293      	cmp	r3, r2
 8007532:	d901      	bls.n	8007538 <HAL_RCC_ClockConfig+0x1fc>
      {
        return HAL_TIMEOUT;
 8007534:	2303      	movs	r3, #3
 8007536:	e062      	b.n	80075fe <HAL_RCC_ClockConfig+0x2c2>
    while (__HAL_RCC_GET_SYSCLK_SOURCE() != (RCC_ClkInitStruct->SYSCLKSource << RCC_CFGR_SWS_Pos))
 8007538:	4b11      	ldr	r3, [pc, #68]	@ (8007580 <HAL_RCC_ClockConfig+0x244>)
 800753a:	685b      	ldr	r3, [r3, #4]
 800753c:	f003 020c 	and.w	r2, r3, #12
 8007540:	687b      	ldr	r3, [r7, #4]
 8007542:	685b      	ldr	r3, [r3, #4]
 8007544:	009b      	lsls	r3, r3, #2
 8007546:	429a      	cmp	r2, r3
 8007548:	d1eb      	bne.n	8007522 <HAL_RCC_ClockConfig+0x1e6>
      }
    }
  }
  /* Decreasing the number of wait states because of lower CPU frequency */
  if(FLatency < __HAL_FLASH_GET_LATENCY())
 800754a:	4b0c      	ldr	r3, [pc, #48]	@ (800757c <HAL_RCC_ClockConfig+0x240>)
 800754c:	681b      	ldr	r3, [r3, #0]
 800754e:	f003 0307 	and.w	r3, r3, #7
 8007552:	683a      	ldr	r2, [r7, #0]
 8007554:	429a      	cmp	r2, r3
 8007556:	d215      	bcs.n	8007584 <HAL_RCC_ClockConfig+0x248>
  {    
    /* Program the new number of wait states to the LATENCY bits in the FLASH_ACR register */
    __HAL_FLASH_SET_LATENCY(FLatency);
 8007558:	4b08      	ldr	r3, [pc, #32]	@ (800757c <HAL_RCC_ClockConfig+0x240>)
 800755a:	681b      	ldr	r3, [r3, #0]
 800755c:	f023 0207 	bic.w	r2, r3, #7
 8007560:	4906      	ldr	r1, [pc, #24]	@ (800757c <HAL_RCC_ClockConfig+0x240>)
 8007562:	683b      	ldr	r3, [r7, #0]
 8007564:	4313      	orrs	r3, r2
 8007566:	600b      	str	r3, [r1, #0]
    
    /* Check that the new number of wait states is taken into account to access the Flash
    memory by reading the FLASH_ACR register */
    if(__HAL_FLASH_GET_LATENCY() != FLatency)
 8007568:	4b04      	ldr	r3, [pc, #16]	@ (800757c <HAL_RCC_ClockConfig+0x240>)
 800756a:	681b      	ldr	r3, [r3, #0]
 800756c:	f003 0307 	and.w	r3, r3, #7
 8007570:	683a      	ldr	r2, [r7, #0]
 8007572:	429a      	cmp	r2, r3
 8007574:	d006      	beq.n	8007584 <HAL_RCC_ClockConfig+0x248>
    {
      return HAL_ERROR;
 8007576:	2301      	movs	r3, #1
 8007578:	e041      	b.n	80075fe <HAL_RCC_ClockConfig+0x2c2>
 800757a:	bf00      	nop
 800757c:	40022000 	.word	0x40022000
 8007580:	40021000 	.word	0x40021000
    }
  }    

  /*-------------------------- PCLK1 Configuration ---------------------------*/ 
  if(((RCC_ClkInitStruct->ClockType) & RCC_CLOCKTYPE_PCLK1) == RCC_CLOCKTYPE_PCLK1)
 8007584:	687b      	ldr	r3, [r7, #4]
 8007586:	681b      	ldr	r3, [r3, #0]
 8007588:	f003 0304 	and.w	r3, r3, #4
 800758c:	2b00      	cmp	r3, #0
 800758e:	d008      	beq.n	80075a2 <HAL_RCC_ClockConfig+0x266>
  {
    assert_param(IS_RCC_PCLK(RCC_ClkInitStruct->APB1CLKDivider));
    MODIFY_REG(RCC->CFGR, RCC_CFGR_PPRE1, RCC_ClkInitStruct->APB1CLKDivider);
 8007590:	4b1d      	ldr	r3, [pc, #116]	@ (8007608 <HAL_RCC_ClockConfig+0x2cc>)
 8007592:	685b      	ldr	r3, [r3, #4]
 8007594:	f423 62e0 	bic.w	r2, r3, #1792	@ 0x700
 8007598:	687b      	ldr	r3, [r7, #4]
 800759a:	68db      	ldr	r3, [r3, #12]
 800759c:	491a      	ldr	r1, [pc, #104]	@ (8007608 <HAL_RCC_ClockConfig+0x2cc>)
 800759e:	4313      	orrs	r3, r2
 80075a0:	604b      	str	r3, [r1, #4]
  }
  
  /*-------------------------- PCLK2 Configuration ---------------------------*/ 
  if(((RCC_ClkInitStruct->ClockType) & RCC_CLOCKTYPE_PCLK2) == RCC_CLOCKTYPE_PCLK2)
 80075a2:	687b      	ldr	r3, [r7, #4]
 80075a4:	681b      	ldr	r3, [r3, #0]
 80075a6:	f003 0308 	and.w	r3, r3, #8
 80075aa:	2b00      	cmp	r3, #0
 80075ac:	d009      	beq.n	80075c2 <HAL_RCC_ClockConfig+0x286>
  {
    assert_param(IS_RCC_PCLK(RCC_ClkInitStruct->APB2CLKDivider));
    MODIFY_REG(RCC->CFGR, RCC_CFGR_PPRE2, ((RCC_ClkInitStruct->APB2CLKDivider) << 3U));
 80075ae:	4b16      	ldr	r3, [pc, #88]	@ (8007608 <HAL_RCC_ClockConfig+0x2cc>)
 80075b0:	685b      	ldr	r3, [r3, #4]
 80075b2:	f423 5260 	bic.w	r2, r3, #14336	@ 0x3800
 80075b6:	687b      	ldr	r3, [r7, #4]
 80075b8:	691b      	ldr	r3, [r3, #16]
 80075ba:	00db      	lsls	r3, r3, #3
 80075bc:	4912      	ldr	r1, [pc, #72]	@ (8007608 <HAL_RCC_ClockConfig+0x2cc>)
 80075be:	4313      	orrs	r3, r2
 80075c0:	604b      	str	r3, [r1, #4]
  }
 
  /* Update the SystemCoreClock global variable */
  SystemCoreClock = HAL_RCC_GetSysClockFreq() >> AHBPrescTable[(RCC->CFGR & RCC_CFGR_HPRE)>> RCC_CFGR_HPRE_BITNUMBER];
 80075c2:	f000 f829 	bl	8007618 <HAL_RCC_GetSysClockFreq>
 80075c6:	4601      	mov	r1, r0
 80075c8:	4b0f      	ldr	r3, [pc, #60]	@ (8007608 <HAL_RCC_ClockConfig+0x2cc>)
 80075ca:	685b      	ldr	r3, [r3, #4]
 80075cc:	f003 03f0 	and.w	r3, r3, #240	@ 0xf0
 80075d0:	22f0      	movs	r2, #240	@ 0xf0
 80075d2:	613a      	str	r2, [r7, #16]
   __ASM volatile ("rbit %0, %1" : "=r" (result) : "r" (value) );
 80075d4:	693a      	ldr	r2, [r7, #16]
 80075d6:	fa92 f2a2 	rbit	r2, r2
 80075da:	60fa      	str	r2, [r7, #12]
  return result;
 80075dc:	68fa      	ldr	r2, [r7, #12]
 80075de:	fab2 f282 	clz	r2, r2
 80075e2:	b2d2      	uxtb	r2, r2
 80075e4:	40d3      	lsrs	r3, r2
 80075e6:	4a09      	ldr	r2, [pc, #36]	@ (800760c <HAL_RCC_ClockConfig+0x2d0>)
 80075e8:	5cd3      	ldrb	r3, [r2, r3]
 80075ea:	fa21 f303 	lsr.w	r3, r1, r3
 80075ee:	4a08      	ldr	r2, [pc, #32]	@ (8007610 <HAL_RCC_ClockConfig+0x2d4>)
 80075f0:	6013      	str	r3, [r2, #0]

  /* Configure the source of time base considering new system clocks settings*/
  HAL_InitTick (uwTickPrio);
 80075f2:	4b08      	ldr	r3, [pc, #32]	@ (8007614 <HAL_RCC_ClockConfig+0x2d8>)
 80075f4:	681b      	ldr	r3, [r3, #0]
 80075f6:	4618      	mov	r0, r3
 80075f8:	f7fe f8ca 	bl	8005790 <HAL_InitTick>
  
  return HAL_OK;
 80075fc:	2300      	movs	r3, #0
}
 80075fe:	4618      	mov	r0, r3
 8007600:	3778      	adds	r7, #120	@ 0x78
 8007602:	46bd      	mov	sp, r7
 8007604:	bd80      	pop	{r7, pc}
 8007606:	bf00      	nop
 8007608:	40021000 	.word	0x40021000
 800760c:	08009614 	.word	0x08009614
 8007610:	20000040 	.word	0x20000040
 8007614:	20000044 	.word	0x20000044

08007618 <HAL_RCC_GetSysClockFreq>:
  *         right SYSCLK value. Otherwise, any configuration based on this function will be incorrect.
  *         
  * @retval SYSCLK frequency
  */
uint32_t HAL_RCC_GetSysClockFreq(void)
{
 8007618:	b480      	push	{r7}
 800761a:	b087      	sub	sp, #28
 800761c:	af00      	add	r7, sp, #0
  uint32_t tmpreg = 0U, prediv = 0U, pllclk = 0U, pllmul = 0U;
 800761e:	2300      	movs	r3, #0
 8007620:	60fb      	str	r3, [r7, #12]
 8007622:	2300      	movs	r3, #0
 8007624:	60bb      	str	r3, [r7, #8]
 8007626:	2300      	movs	r3, #0
 8007628:	617b      	str	r3, [r7, #20]
 800762a:	2300      	movs	r3, #0
 800762c:	607b      	str	r3, [r7, #4]
  uint32_t sysclockfreq = 0U;
 800762e:	2300      	movs	r3, #0
 8007630:	613b      	str	r3, [r7, #16]
  
  tmpreg = RCC->CFGR;
 8007632:	4b1f      	ldr	r3, [pc, #124]	@ (80076b0 <HAL_RCC_GetSysClockFreq+0x98>)
 8007634:	685b      	ldr	r3, [r3, #4]
 8007636:	60fb      	str	r3, [r7, #12]
  
  /* Get SYSCLK source -------------------------------------------------------*/
  switch (tmpreg & RCC_CFGR_SWS)
 8007638:	68fb      	ldr	r3, [r7, #12]
 800763a:	f003 030c 	and.w	r3, r3, #12
 800763e:	2b04      	cmp	r3, #4
 8007640:	d002      	beq.n	8007648 <HAL_RCC_GetSysClockFreq+0x30>
 8007642:	2b08      	cmp	r3, #8
 8007644:	d003      	beq.n	800764e <HAL_RCC_GetSysClockFreq+0x36>
 8007646:	e029      	b.n	800769c <HAL_RCC_GetSysClockFreq+0x84>
  {
    case RCC_SYSCLKSOURCE_STATUS_HSE:  /* HSE used as system clock */
    {
      sysclockfreq = HSE_VALUE;
 8007648:	4b1a      	ldr	r3, [pc, #104]	@ (80076b4 <HAL_RCC_GetSysClockFreq+0x9c>)
 800764a:	613b      	str	r3, [r7, #16]
      break;
 800764c:	e029      	b.n	80076a2 <HAL_RCC_GetSysClockFreq+0x8a>
    }
    case RCC_SYSCLKSOURCE_STATUS_PLLCLK:  /* PLL used as system clock */
    {
      pllmul = aPLLMULFactorTable[(uint32_t)(tmpreg & RCC_CFGR_PLLMUL) >> RCC_CFGR_PLLMUL_Pos];
 800764e:	68fb      	ldr	r3, [r7, #12]
 8007650:	0c9b      	lsrs	r3, r3, #18
 8007652:	f003 030f 	and.w	r3, r3, #15
 8007656:	4a18      	ldr	r2, [pc, #96]	@ (80076b8 <HAL_RCC_GetSysClockFreq+0xa0>)
 8007658:	5cd3      	ldrb	r3, [r2, r3]
 800765a:	607b      	str	r3, [r7, #4]
      prediv = aPredivFactorTable[(uint32_t)(RCC->CFGR2 & RCC_CFGR2_PREDIV) >> RCC_CFGR2_PREDIV_Pos];
 800765c:	4b14      	ldr	r3, [pc, #80]	@ (80076b0 <HAL_RCC_GetSysClockFreq+0x98>)
 800765e:	6adb      	ldr	r3, [r3, #44]	@ 0x2c
 8007660:	f003 030f 	and.w	r3, r3, #15
 8007664:	4a15      	ldr	r2, [pc, #84]	@ (80076bc <HAL_RCC_GetSysClockFreq+0xa4>)
 8007666:	5cd3      	ldrb	r3, [r2, r3]
 8007668:	60bb      	str	r3, [r7, #8]
      {
        /* HSI used as PLL clock source : PLLCLK = HSI/2 * PLLMUL */
        pllclk = (uint32_t)((uint64_t) (HSI_VALUE >> 1U) * ((uint64_t) pllmul));
      }
#else
      if ((tmpreg & RCC_CFGR_PLLSRC_HSE_PREDIV) == RCC_CFGR_PLLSRC_HSE_PREDIV)
 800766a:	68fb      	ldr	r3, [r7, #12]
 800766c:	f403 3380 	and.w	r3, r3, #65536	@ 0x10000
 8007670:	2b00      	cmp	r3, #0
 8007672:	d008      	beq.n	8007686 <HAL_RCC_GetSysClockFreq+0x6e>
      {
        /* HSE used as PLL clock source : PLLCLK = HSE/PREDIV * PLLMUL */
        pllclk = (uint32_t)((uint64_t) HSE_VALUE / (uint64_t) (prediv)) * ((uint64_t) pllmul);
 8007674:	4a0f      	ldr	r2, [pc, #60]	@ (80076b4 <HAL_RCC_GetSysClockFreq+0x9c>)
 8007676:	68bb      	ldr	r3, [r7, #8]
 8007678:	fbb2 f2f3 	udiv	r2, r2, r3
 800767c:	687b      	ldr	r3, [r7, #4]
 800767e:	fb02 f303 	mul.w	r3, r2, r3
 8007682:	617b      	str	r3, [r7, #20]
 8007684:	e007      	b.n	8007696 <HAL_RCC_GetSysClockFreq+0x7e>
      }
      else
      {
        /* HSI used as PLL clock source : PLLCLK = HSI/PREDIV * PLLMUL */
        pllclk = (uint32_t)((uint64_t) HSI_VALUE / (uint64_t) (prediv)) * ((uint64_t) pllmul);
 8007686:	4a0b      	ldr	r2, [pc, #44]	@ (80076b4 <HAL_RCC_GetSysClockFreq+0x9c>)
 8007688:	68bb      	ldr	r3, [r7, #8]
 800768a:	fbb2 f2f3 	udiv	r2, r2, r3
 800768e:	687b      	ldr	r3, [r7, #4]
 8007690:	fb02 f303 	mul.w	r3, r2, r3
 8007694:	617b      	str	r3, [r7, #20]
      }
#endif /* RCC_CFGR_PLLSRC_HSI_DIV2 */
      sysclockfreq = pllclk;
 8007696:	697b      	ldr	r3, [r7, #20]
 8007698:	613b      	str	r3, [r7, #16]
      break;
 800769a:	e002      	b.n	80076a2 <HAL_RCC_GetSysClockFreq+0x8a>
    }
    case RCC_SYSCLKSOURCE_STATUS_HSI:  /* HSI used as system clock source */
    default: /* HSI used as system clock */
    {
      sysclockfreq = HSI_VALUE;
 800769c:	4b05      	ldr	r3, [pc, #20]	@ (80076b4 <HAL_RCC_GetSysClockFreq+0x9c>)
 800769e:	613b      	str	r3, [r7, #16]
      break;
 80076a0:	bf00      	nop
    }
  }
  return sysclockfreq;
 80076a2:	693b      	ldr	r3, [r7, #16]
}
 80076a4:	4618      	mov	r0, r3
 80076a6:	371c      	adds	r7, #28
 80076a8:	46bd      	mov	sp, r7
 80076aa:	bc80      	pop	{r7}
 80076ac:	4770      	bx	lr
 80076ae:	bf00      	nop
 80076b0:	40021000 	.word	0x40021000
 80076b4:	007a1200 	.word	0x007a1200
 80076b8:	0800962c 	.word	0x0800962c
 80076bc:	0800963c 	.word	0x0800963c

080076c0 <HAL_RCC_GetHCLKFreq>:
  * @note   The SystemCoreClock CMSIS variable is used to store System Clock Frequency 
  *         and updated within this function
  * @retval HCLK frequency
  */
uint32_t HAL_RCC_GetHCLKFreq(void)
{
 80076c0:	b480      	push	{r7}
 80076c2:	af00      	add	r7, sp, #0
  return SystemCoreClock;
 80076c4:	4b02      	ldr	r3, [pc, #8]	@ (80076d0 <HAL_RCC_GetHCLKFreq+0x10>)
 80076c6:	681b      	ldr	r3, [r3, #0]
}
 80076c8:	4618      	mov	r0, r3
 80076ca:	46bd      	mov	sp, r7
 80076cc:	bc80      	pop	{r7}
 80076ce:	4770      	bx	lr
 80076d0:	20000040 	.word	0x20000040

080076d4 <HAL_RCC_GetPCLK1Freq>:
  * @note   Each time PCLK1 changes, this function must be called to update the
  *         right PCLK1 value. Otherwise, any configuration based on this function will be incorrect.
  * @retval PCLK1 frequency
  */
uint32_t HAL_RCC_GetPCLK1Freq(void)
{
 80076d4:	b580      	push	{r7, lr}
 80076d6:	b082      	sub	sp, #8
 80076d8:	af00      	add	r7, sp, #0
  /* Get HCLK source and Compute PCLK1 frequency ---------------------------*/
  return (HAL_RCC_GetHCLKFreq() >> APBPrescTable[(RCC->CFGR & RCC_CFGR_PPRE1) >> RCC_CFGR_PPRE1_BITNUMBER]);
 80076da:	f7ff fff1 	bl	80076c0 <HAL_RCC_GetHCLKFreq>
 80076de:	4601      	mov	r1, r0
 80076e0:	4b0b      	ldr	r3, [pc, #44]	@ (8007710 <HAL_RCC_GetPCLK1Freq+0x3c>)
 80076e2:	685b      	ldr	r3, [r3, #4]
 80076e4:	f403 63e0 	and.w	r3, r3, #1792	@ 0x700
 80076e8:	f44f 62e0 	mov.w	r2, #1792	@ 0x700
 80076ec:	607a      	str	r2, [r7, #4]
   __ASM volatile ("rbit %0, %1" : "=r" (result) : "r" (value) );
 80076ee:	687a      	ldr	r2, [r7, #4]
 80076f0:	fa92 f2a2 	rbit	r2, r2
 80076f4:	603a      	str	r2, [r7, #0]
  return result;
 80076f6:	683a      	ldr	r2, [r7, #0]
 80076f8:	fab2 f282 	clz	r2, r2
 80076fc:	b2d2      	uxtb	r2, r2
 80076fe:	40d3      	lsrs	r3, r2
 8007700:	4a04      	ldr	r2, [pc, #16]	@ (8007714 <HAL_RCC_GetPCLK1Freq+0x40>)
 8007702:	5cd3      	ldrb	r3, [r2, r3]
 8007704:	fa21 f303 	lsr.w	r3, r1, r3
}    
 8007708:	4618      	mov	r0, r3
 800770a:	3708      	adds	r7, #8
 800770c:	46bd      	mov	sp, r7
 800770e:	bd80      	pop	{r7, pc}
 8007710:	40021000 	.word	0x40021000
 8007714:	08009624 	.word	0x08009624

08007718 <HAL_RCC_GetPCLK2Freq>:
  * @note   Each time PCLK2 changes, this function must be called to update the
  *         right PCLK2 value. Otherwise, any configuration based on this function will be incorrect.
  * @retval PCLK2 frequency
  */
uint32_t HAL_RCC_GetPCLK2Freq(void)
{
 8007718:	b580      	push	{r7, lr}
 800771a:	b082      	sub	sp, #8
 800771c:	af00      	add	r7, sp, #0
  /* Get HCLK source and Compute PCLK2 frequency ---------------------------*/
  return (HAL_RCC_GetHCLKFreq()>> APBPrescTable[(RCC->CFGR & RCC_CFGR_PPRE2) >> RCC_CFGR_PPRE2_BITNUMBER]);
 800771e:	f7ff ffcf 	bl	80076c0 <HAL_RCC_GetHCLKFreq>
 8007722:	4601      	mov	r1, r0
 8007724:	4b0b      	ldr	r3, [pc, #44]	@ (8007754 <HAL_RCC_GetPCLK2Freq+0x3c>)
 8007726:	685b      	ldr	r3, [r3, #4]
 8007728:	f403 5360 	and.w	r3, r3, #14336	@ 0x3800
 800772c:	f44f 5260 	mov.w	r2, #14336	@ 0x3800
 8007730:	607a      	str	r2, [r7, #4]
   __ASM volatile ("rbit %0, %1" : "=r" (result) : "r" (value) );
 8007732:	687a      	ldr	r2, [r7, #4]
 8007734:	fa92 f2a2 	rbit	r2, r2
 8007738:	603a      	str	r2, [r7, #0]
  return result;
 800773a:	683a      	ldr	r2, [r7, #0]
 800773c:	fab2 f282 	clz	r2, r2
 8007740:	b2d2      	uxtb	r2, r2
 8007742:	40d3      	lsrs	r3, r2
 8007744:	4a04      	ldr	r2, [pc, #16]	@ (8007758 <HAL_RCC_GetPCLK2Freq+0x40>)
 8007746:	5cd3      	ldrb	r3, [r2, r3]
 8007748:	fa21 f303 	lsr.w	r3, r1, r3
} 
 800774c:	4618      	mov	r0, r3
 800774e:	3708      	adds	r7, #8
 8007750:	46bd      	mov	sp, r7
 8007752:	bd80      	pop	{r7, pc}
 8007754:	40021000 	.word	0x40021000
 8007758:	08009624 	.word	0x08009624

0800775c <HAL_RCCEx_PeriphCLKConfig>:
  *         When the TIMx clock source is PLL clock, so the TIMx clock is PLL clock x 2.
  *
  * @retval HAL status
  */
HAL_StatusTypeDef HAL_RCCEx_PeriphCLKConfig(RCC_PeriphCLKInitTypeDef  *PeriphClkInit)
{
 800775c:	b580      	push	{r7, lr}
 800775e:	b092      	sub	sp, #72	@ 0x48
 8007760:	af00      	add	r7, sp, #0
 8007762:	6078      	str	r0, [r7, #4]
  uint32_t tickstart = 0U;
 8007764:	2300      	movs	r3, #0
 8007766:	643b      	str	r3, [r7, #64]	@ 0x40
  uint32_t temp_reg = 0U;
 8007768:	2300      	movs	r3, #0
 800776a:	63fb      	str	r3, [r7, #60]	@ 0x3c
  FlagStatus       pwrclkchanged = RESET;
 800776c:	2300      	movs	r3, #0
 800776e:	f887 3047 	strb.w	r3, [r7, #71]	@ 0x47
    
  /* Check the parameters */
  assert_param(IS_RCC_PERIPHCLOCK(PeriphClkInit->PeriphClockSelection));
  
  /*---------------------------- RTC configuration -------------------------------*/
  if(((PeriphClkInit->PeriphClockSelection) & RCC_PERIPHCLK_RTC) == (RCC_PERIPHCLK_RTC))
 8007772:	687b      	ldr	r3, [r7, #4]
 8007774:	681b      	ldr	r3, [r3, #0]
 8007776:	f403 3380 	and.w	r3, r3, #65536	@ 0x10000
 800777a:	2b00      	cmp	r3, #0
 800777c:	f000 80d2 	beq.w	8007924 <HAL_RCCEx_PeriphCLKConfig+0x1c8>


    /* As soon as function is called to change RTC clock source, activation of the 
       power domain is done. */
    /* Requires to enable write access to Backup Domain of necessary */
    if(__HAL_RCC_PWR_IS_CLK_DISABLED())
 8007780:	4b4d      	ldr	r3, [pc, #308]	@ (80078b8 <HAL_RCCEx_PeriphCLKConfig+0x15c>)
 8007782:	69db      	ldr	r3, [r3, #28]
 8007784:	f003 5380 	and.w	r3, r3, #268435456	@ 0x10000000
 8007788:	2b00      	cmp	r3, #0
 800778a:	d10e      	bne.n	80077aa <HAL_RCCEx_PeriphCLKConfig+0x4e>
    {
      __HAL_RCC_PWR_CLK_ENABLE();
 800778c:	4b4a      	ldr	r3, [pc, #296]	@ (80078b8 <HAL_RCCEx_PeriphCLKConfig+0x15c>)
 800778e:	69db      	ldr	r3, [r3, #28]
 8007790:	4a49      	ldr	r2, [pc, #292]	@ (80078b8 <HAL_RCCEx_PeriphCLKConfig+0x15c>)
 8007792:	f043 5380 	orr.w	r3, r3, #268435456	@ 0x10000000
 8007796:	61d3      	str	r3, [r2, #28]
 8007798:	4b47      	ldr	r3, [pc, #284]	@ (80078b8 <HAL_RCCEx_PeriphCLKConfig+0x15c>)
 800779a:	69db      	ldr	r3, [r3, #28]
 800779c:	f003 5380 	and.w	r3, r3, #268435456	@ 0x10000000
 80077a0:	60bb      	str	r3, [r7, #8]
 80077a2:	68bb      	ldr	r3, [r7, #8]
      pwrclkchanged = SET;
 80077a4:	2301      	movs	r3, #1
 80077a6:	f887 3047 	strb.w	r3, [r7, #71]	@ 0x47
    }
    
    if(HAL_IS_BIT_CLR(PWR->CR, PWR_CR_DBP))
 80077aa:	4b44      	ldr	r3, [pc, #272]	@ (80078bc <HAL_RCCEx_PeriphCLKConfig+0x160>)
 80077ac:	681b      	ldr	r3, [r3, #0]
 80077ae:	f403 7380 	and.w	r3, r3, #256	@ 0x100
 80077b2:	2b00      	cmp	r3, #0
 80077b4:	d118      	bne.n	80077e8 <HAL_RCCEx_PeriphCLKConfig+0x8c>
    {
      /* Enable write access to Backup domain */
      SET_BIT(PWR->CR, PWR_CR_DBP);
 80077b6:	4b41      	ldr	r3, [pc, #260]	@ (80078bc <HAL_RCCEx_PeriphCLKConfig+0x160>)
 80077b8:	681b      	ldr	r3, [r3, #0]
 80077ba:	4a40      	ldr	r2, [pc, #256]	@ (80078bc <HAL_RCCEx_PeriphCLKConfig+0x160>)
 80077bc:	f443 7380 	orr.w	r3, r3, #256	@ 0x100
 80077c0:	6013      	str	r3, [r2, #0]
      
      /* Wait for Backup domain Write protection disable */
      tickstart = HAL_GetTick();
 80077c2:	f7fe f827 	bl	8005814 <HAL_GetTick>
 80077c6:	6438      	str	r0, [r7, #64]	@ 0x40
      
      while(HAL_IS_BIT_CLR(PWR->CR, PWR_CR_DBP))
 80077c8:	e008      	b.n	80077dc <HAL_RCCEx_PeriphCLKConfig+0x80>
      {
          if((HAL_GetTick() - tickstart) > RCC_DBP_TIMEOUT_VALUE)
 80077ca:	f7fe f823 	bl	8005814 <HAL_GetTick>
 80077ce:	4602      	mov	r2, r0
 80077d0:	6c3b      	ldr	r3, [r7, #64]	@ 0x40
 80077d2:	1ad3      	subs	r3, r2, r3
 80077d4:	2b64      	cmp	r3, #100	@ 0x64
 80077d6:	d901      	bls.n	80077dc <HAL_RCCEx_PeriphCLKConfig+0x80>
        {
          return HAL_TIMEOUT;
 80077d8:	2303      	movs	r3, #3
 80077da:	e1d4      	b.n	8007b86 <HAL_RCCEx_PeriphCLKConfig+0x42a>
      while(HAL_IS_BIT_CLR(PWR->CR, PWR_CR_DBP))
 80077dc:	4b37      	ldr	r3, [pc, #220]	@ (80078bc <HAL_RCCEx_PeriphCLKConfig+0x160>)
 80077de:	681b      	ldr	r3, [r3, #0]
 80077e0:	f403 7380 	and.w	r3, r3, #256	@ 0x100
 80077e4:	2b00      	cmp	r3, #0
 80077e6:	d0f0      	beq.n	80077ca <HAL_RCCEx_PeriphCLKConfig+0x6e>
        }
      }
    }
    
    /* Reset the Backup domain only if the RTC Clock source selection is modified from reset value */ 
    temp_reg = (RCC->BDCR & RCC_BDCR_RTCSEL);
 80077e8:	4b33      	ldr	r3, [pc, #204]	@ (80078b8 <HAL_RCCEx_PeriphCLKConfig+0x15c>)
 80077ea:	6a1b      	ldr	r3, [r3, #32]
 80077ec:	f403 7340 	and.w	r3, r3, #768	@ 0x300
 80077f0:	63fb      	str	r3, [r7, #60]	@ 0x3c
    if((temp_reg != 0x00000000U) && (temp_reg != (PeriphClkInit->RTCClockSelection & RCC_BDCR_RTCSEL)))
 80077f2:	6bfb      	ldr	r3, [r7, #60]	@ 0x3c
 80077f4:	2b00      	cmp	r3, #0
 80077f6:	f000 8082 	beq.w	80078fe <HAL_RCCEx_PeriphCLKConfig+0x1a2>
 80077fa:	687b      	ldr	r3, [r7, #4]
 80077fc:	685b      	ldr	r3, [r3, #4]
 80077fe:	f403 7340 	and.w	r3, r3, #768	@ 0x300
 8007802:	6bfa      	ldr	r2, [r7, #60]	@ 0x3c
 8007804:	429a      	cmp	r2, r3
 8007806:	d07a      	beq.n	80078fe <HAL_RCCEx_PeriphCLKConfig+0x1a2>
    {
      /* Store the content of BDCR register before the reset of Backup Domain */
      temp_reg = (RCC->BDCR & ~(RCC_BDCR_RTCSEL));
 8007808:	4b2b      	ldr	r3, [pc, #172]	@ (80078b8 <HAL_RCCEx_PeriphCLKConfig+0x15c>)
 800780a:	6a1b      	ldr	r3, [r3, #32]
 800780c:	f423 7340 	bic.w	r3, r3, #768	@ 0x300
 8007810:	63fb      	str	r3, [r7, #60]	@ 0x3c
 8007812:	f44f 3380 	mov.w	r3, #65536	@ 0x10000
 8007816:	633b      	str	r3, [r7, #48]	@ 0x30
   __ASM volatile ("rbit %0, %1" : "=r" (result) : "r" (value) );
 8007818:	6b3b      	ldr	r3, [r7, #48]	@ 0x30
 800781a:	fa93 f3a3 	rbit	r3, r3
 800781e:	62fb      	str	r3, [r7, #44]	@ 0x2c
  return result;
 8007820:	6afb      	ldr	r3, [r7, #44]	@ 0x2c
      /* RTC Clock selection can be changed only if the Backup Domain is reset */
      __HAL_RCC_BACKUPRESET_FORCE();
 8007822:	fab3 f383 	clz	r3, r3
 8007826:	b2db      	uxtb	r3, r3
 8007828:	461a      	mov	r2, r3
 800782a:	4b25      	ldr	r3, [pc, #148]	@ (80078c0 <HAL_RCCEx_PeriphCLKConfig+0x164>)
 800782c:	4413      	add	r3, r2
 800782e:	009b      	lsls	r3, r3, #2
 8007830:	461a      	mov	r2, r3
 8007832:	2301      	movs	r3, #1
 8007834:	6013      	str	r3, [r2, #0]
 8007836:	f44f 3380 	mov.w	r3, #65536	@ 0x10000
 800783a:	63bb      	str	r3, [r7, #56]	@ 0x38
   __ASM volatile ("rbit %0, %1" : "=r" (result) : "r" (value) );
 800783c:	6bbb      	ldr	r3, [r7, #56]	@ 0x38
 800783e:	fa93 f3a3 	rbit	r3, r3
 8007842:	637b      	str	r3, [r7, #52]	@ 0x34
  return result;
 8007844:	6b7b      	ldr	r3, [r7, #52]	@ 0x34
      __HAL_RCC_BACKUPRESET_RELEASE();
 8007846:	fab3 f383 	clz	r3, r3
 800784a:	b2db      	uxtb	r3, r3
 800784c:	461a      	mov	r2, r3
 800784e:	4b1c      	ldr	r3, [pc, #112]	@ (80078c0 <HAL_RCCEx_PeriphCLKConfig+0x164>)
 8007850:	4413      	add	r3, r2
 8007852:	009b      	lsls	r3, r3, #2
 8007854:	461a      	mov	r2, r3
 8007856:	2300      	movs	r3, #0
 8007858:	6013      	str	r3, [r2, #0]
      /* Restore the Content of BDCR register */
      RCC->BDCR = temp_reg;
 800785a:	4a17      	ldr	r2, [pc, #92]	@ (80078b8 <HAL_RCCEx_PeriphCLKConfig+0x15c>)
 800785c:	6bfb      	ldr	r3, [r7, #60]	@ 0x3c
 800785e:	6213      	str	r3, [r2, #32]
    
      /* Wait for LSERDY if LSE was enabled */
      if (HAL_IS_BIT_SET(temp_reg, RCC_BDCR_LSEON))
 8007860:	6bfb      	ldr	r3, [r7, #60]	@ 0x3c
 8007862:	f003 0301 	and.w	r3, r3, #1
 8007866:	2b00      	cmp	r3, #0
 8007868:	d049      	beq.n	80078fe <HAL_RCCEx_PeriphCLKConfig+0x1a2>
      {
        /* Get Start Tick */
        tickstart = HAL_GetTick();
 800786a:	f7fd ffd3 	bl	8005814 <HAL_GetTick>
 800786e:	6438      	str	r0, [r7, #64]	@ 0x40
        
        /* Wait till LSE is ready */  
        while(__HAL_RCC_GET_FLAG(RCC_FLAG_LSERDY) == RESET)
 8007870:	e00a      	b.n	8007888 <HAL_RCCEx_PeriphCLKConfig+0x12c>
        {
            if((HAL_GetTick() - tickstart) > RCC_LSE_TIMEOUT_VALUE)
 8007872:	f7fd ffcf 	bl	8005814 <HAL_GetTick>
 8007876:	4602      	mov	r2, r0
 8007878:	6c3b      	ldr	r3, [r7, #64]	@ 0x40
 800787a:	1ad3      	subs	r3, r2, r3
 800787c:	f241 3288 	movw	r2, #5000	@ 0x1388
 8007880:	4293      	cmp	r3, r2
 8007882:	d901      	bls.n	8007888 <HAL_RCCEx_PeriphCLKConfig+0x12c>
          {
            return HAL_TIMEOUT;
 8007884:	2303      	movs	r3, #3
 8007886:	e17e      	b.n	8007b86 <HAL_RCCEx_PeriphCLKConfig+0x42a>
 8007888:	2302      	movs	r3, #2
 800788a:	62bb      	str	r3, [r7, #40]	@ 0x28
   __ASM volatile ("rbit %0, %1" : "=r" (result) : "r" (value) );
 800788c:	6abb      	ldr	r3, [r7, #40]	@ 0x28
 800788e:	fa93 f3a3 	rbit	r3, r3
 8007892:	627b      	str	r3, [r7, #36]	@ 0x24
 8007894:	2302      	movs	r3, #2
 8007896:	623b      	str	r3, [r7, #32]
 8007898:	6a3b      	ldr	r3, [r7, #32]
 800789a:	fa93 f3a3 	rbit	r3, r3
 800789e:	61fb      	str	r3, [r7, #28]
  return result;
 80078a0:	69fb      	ldr	r3, [r7, #28]
        while(__HAL_RCC_GET_FLAG(RCC_FLAG_LSERDY) == RESET)
 80078a2:	fab3 f383 	clz	r3, r3
 80078a6:	b2db      	uxtb	r3, r3
 80078a8:	f023 035f 	bic.w	r3, r3, #95	@ 0x5f
 80078ac:	b2db      	uxtb	r3, r3
 80078ae:	2b00      	cmp	r3, #0
 80078b0:	d108      	bne.n	80078c4 <HAL_RCCEx_PeriphCLKConfig+0x168>
 80078b2:	4b01      	ldr	r3, [pc, #4]	@ (80078b8 <HAL_RCCEx_PeriphCLKConfig+0x15c>)
 80078b4:	6a1b      	ldr	r3, [r3, #32]
 80078b6:	e00d      	b.n	80078d4 <HAL_RCCEx_PeriphCLKConfig+0x178>
 80078b8:	40021000 	.word	0x40021000
 80078bc:	40007000 	.word	0x40007000
 80078c0:	10908100 	.word	0x10908100
 80078c4:	2302      	movs	r3, #2
 80078c6:	61bb      	str	r3, [r7, #24]
   __ASM volatile ("rbit %0, %1" : "=r" (result) : "r" (value) );
 80078c8:	69bb      	ldr	r3, [r7, #24]
 80078ca:	fa93 f3a3 	rbit	r3, r3
 80078ce:	617b      	str	r3, [r7, #20]
 80078d0:	4b9a      	ldr	r3, [pc, #616]	@ (8007b3c <HAL_RCCEx_PeriphCLKConfig+0x3e0>)
 80078d2:	6a5b      	ldr	r3, [r3, #36]	@ 0x24
 80078d4:	2202      	movs	r2, #2
 80078d6:	613a      	str	r2, [r7, #16]
 80078d8:	693a      	ldr	r2, [r7, #16]
 80078da:	fa92 f2a2 	rbit	r2, r2
 80078de:	60fa      	str	r2, [r7, #12]
  return result;
 80078e0:	68fa      	ldr	r2, [r7, #12]
 80078e2:	fab2 f282 	clz	r2, r2
 80078e6:	b2d2      	uxtb	r2, r2
 80078e8:	f042 0240 	orr.w	r2, r2, #64	@ 0x40
 80078ec:	b2d2      	uxtb	r2, r2
 80078ee:	f002 021f 	and.w	r2, r2, #31
 80078f2:	2101      	movs	r1, #1
 80078f4:	fa01 f202 	lsl.w	r2, r1, r2
 80078f8:	4013      	ands	r3, r2
 80078fa:	2b00      	cmp	r3, #0
 80078fc:	d0b9      	beq.n	8007872 <HAL_RCCEx_PeriphCLKConfig+0x116>
          }      
        }  
      }
    }
    __HAL_RCC_RTC_CONFIG(PeriphClkInit->RTCClockSelection); 
 80078fe:	4b8f      	ldr	r3, [pc, #572]	@ (8007b3c <HAL_RCCEx_PeriphCLKConfig+0x3e0>)
 8007900:	6a1b      	ldr	r3, [r3, #32]
 8007902:	f423 7240 	bic.w	r2, r3, #768	@ 0x300
 8007906:	687b      	ldr	r3, [r7, #4]
 8007908:	685b      	ldr	r3, [r3, #4]
 800790a:	498c      	ldr	r1, [pc, #560]	@ (8007b3c <HAL_RCCEx_PeriphCLKConfig+0x3e0>)
 800790c:	4313      	orrs	r3, r2
 800790e:	620b      	str	r3, [r1, #32]

    /* Require to disable power clock if necessary */
    if(pwrclkchanged == SET)
 8007910:	f897 3047 	ldrb.w	r3, [r7, #71]	@ 0x47
 8007914:	2b01      	cmp	r3, #1
 8007916:	d105      	bne.n	8007924 <HAL_RCCEx_PeriphCLKConfig+0x1c8>
    {
      __HAL_RCC_PWR_CLK_DISABLE();
 8007918:	4b88      	ldr	r3, [pc, #544]	@ (8007b3c <HAL_RCCEx_PeriphCLKConfig+0x3e0>)
 800791a:	69db      	ldr	r3, [r3, #28]
 800791c:	4a87      	ldr	r2, [pc, #540]	@ (8007b3c <HAL_RCCEx_PeriphCLKConfig+0x3e0>)
 800791e:	f023 5380 	bic.w	r3, r3, #268435456	@ 0x10000000
 8007922:	61d3      	str	r3, [r2, #28]
    }
  }

  /*------------------------------- USART1 Configuration ------------------------*/
  if(((PeriphClkInit->PeriphClockSelection) & RCC_PERIPHCLK_USART1) == RCC_PERIPHCLK_USART1)
 8007924:	687b      	ldr	r3, [r7, #4]
 8007926:	681b      	ldr	r3, [r3, #0]
 8007928:	f003 0301 	and.w	r3, r3, #1
 800792c:	2b00      	cmp	r3, #0
 800792e:	d008      	beq.n	8007942 <HAL_RCCEx_PeriphCLKConfig+0x1e6>
  {
    /* Check the parameters */
    assert_param(IS_RCC_USART1CLKSOURCE(PeriphClkInit->Usart1ClockSelection));
    
    /* Configure the USART1 clock source */
    __HAL_RCC_USART1_CONFIG(PeriphClkInit->Usart1ClockSelection);
 8007930:	4b82      	ldr	r3, [pc, #520]	@ (8007b3c <HAL_RCCEx_PeriphCLKConfig+0x3e0>)
 8007932:	6b1b      	ldr	r3, [r3, #48]	@ 0x30
 8007934:	f023 0203 	bic.w	r2, r3, #3
 8007938:	687b      	ldr	r3, [r7, #4]
 800793a:	689b      	ldr	r3, [r3, #8]
 800793c:	497f      	ldr	r1, [pc, #508]	@ (8007b3c <HAL_RCCEx_PeriphCLKConfig+0x3e0>)
 800793e:	4313      	orrs	r3, r2
 8007940:	630b      	str	r3, [r1, #48]	@ 0x30
  }

#if defined(RCC_CFGR3_USART2SW)
  /*----------------------------- USART2 Configuration --------------------------*/ 
  if(((PeriphClkInit->PeriphClockSelection) & RCC_PERIPHCLK_USART2) == RCC_PERIPHCLK_USART2)
 8007942:	687b      	ldr	r3, [r7, #4]
 8007944:	681b      	ldr	r3, [r3, #0]
 8007946:	f003 0302 	and.w	r3, r3, #2
 800794a:	2b00      	cmp	r3, #0
 800794c:	d008      	beq.n	8007960 <HAL_RCCEx_PeriphCLKConfig+0x204>
  {
    /* Check the parameters */
    assert_param(IS_RCC_USART2CLKSOURCE(PeriphClkInit->Usart2ClockSelection));
    
    /* Configure the USART2 clock source */
    __HAL_RCC_USART2_CONFIG(PeriphClkInit->Usart2ClockSelection);
 800794e:	4b7b      	ldr	r3, [pc, #492]	@ (8007b3c <HAL_RCCEx_PeriphCLKConfig+0x3e0>)
 8007950:	6b1b      	ldr	r3, [r3, #48]	@ 0x30
 8007952:	f423 3240 	bic.w	r2, r3, #196608	@ 0x30000
 8007956:	687b      	ldr	r3, [r7, #4]
 8007958:	68db      	ldr	r3, [r3, #12]
 800795a:	4978      	ldr	r1, [pc, #480]	@ (8007b3c <HAL_RCCEx_PeriphCLKConfig+0x3e0>)
 800795c:	4313      	orrs	r3, r2
 800795e:	630b      	str	r3, [r1, #48]	@ 0x30
  }
#endif /* RCC_CFGR3_USART2SW */

#if defined(RCC_CFGR3_USART3SW)
  /*------------------------------ USART3 Configuration ------------------------*/ 
  if(((PeriphClkInit->PeriphClockSelection) & RCC_PERIPHCLK_USART3) == RCC_PERIPHCLK_USART3)
 8007960:	687b      	ldr	r3, [r7, #4]
 8007962:	681b      	ldr	r3, [r3, #0]
 8007964:	f003 0304 	and.w	r3, r3, #4
 8007968:	2b00      	cmp	r3, #0
 800796a:	d008      	beq.n	800797e <HAL_RCCEx_PeriphCLKConfig+0x222>
  {
    /* Check the parameters */
    assert_param(IS_RCC_USART3CLKSOURCE(PeriphClkInit->Usart3ClockSelection));
    
    /* Configure the USART3 clock source */
    __HAL_RCC_USART3_CONFIG(PeriphClkInit->Usart3ClockSelection);
 800796c:	4b73      	ldr	r3, [pc, #460]	@ (8007b3c <HAL_RCCEx_PeriphCLKConfig+0x3e0>)
 800796e:	6b1b      	ldr	r3, [r3, #48]	@ 0x30
 8007970:	f423 2240 	bic.w	r2, r3, #786432	@ 0xc0000
 8007974:	687b      	ldr	r3, [r7, #4]
 8007976:	691b      	ldr	r3, [r3, #16]
 8007978:	4970      	ldr	r1, [pc, #448]	@ (8007b3c <HAL_RCCEx_PeriphCLKConfig+0x3e0>)
 800797a:	4313      	orrs	r3, r2
 800797c:	630b      	str	r3, [r1, #48]	@ 0x30
  }
#endif /* RCC_CFGR3_USART3SW */

  /*------------------------------ I2C1 Configuration ------------------------*/ 
  if(((PeriphClkInit->PeriphClockSelection) & RCC_PERIPHCLK_I2C1) == RCC_PERIPHCLK_I2C1)
 800797e:	687b      	ldr	r3, [r7, #4]
 8007980:	681b      	ldr	r3, [r3, #0]
 8007982:	f003 0320 	and.w	r3, r3, #32
 8007986:	2b00      	cmp	r3, #0
 8007988:	d008      	beq.n	800799c <HAL_RCCEx_PeriphCLKConfig+0x240>
  {
    /* Check the parameters */
    assert_param(IS_RCC_I2C1CLKSOURCE(PeriphClkInit->I2c1ClockSelection));
    
    /* Configure the I2C1 clock source */
    __HAL_RCC_I2C1_CONFIG(PeriphClkInit->I2c1ClockSelection);
 800798a:	4b6c      	ldr	r3, [pc, #432]	@ (8007b3c <HAL_RCCEx_PeriphCLKConfig+0x3e0>)
 800798c:	6b1b      	ldr	r3, [r3, #48]	@ 0x30
 800798e:	f023 0210 	bic.w	r2, r3, #16
 8007992:	687b      	ldr	r3, [r7, #4]
 8007994:	69db      	ldr	r3, [r3, #28]
 8007996:	4969      	ldr	r1, [pc, #420]	@ (8007b3c <HAL_RCCEx_PeriphCLKConfig+0x3e0>)
 8007998:	4313      	orrs	r3, r2
 800799a:	630b      	str	r3, [r1, #48]	@ 0x30
#if defined(STM32F302xE) || defined(STM32F303xE)\
 || defined(STM32F302xC) || defined(STM32F303xC)\
 || defined(STM32F302x8)                        \
 || defined(STM32F373xC)
  /*------------------------------ USB Configuration ------------------------*/ 
  if(((PeriphClkInit->PeriphClockSelection) & RCC_PERIPHCLK_USB) == RCC_PERIPHCLK_USB)
 800799c:	687b      	ldr	r3, [r7, #4]
 800799e:	681b      	ldr	r3, [r3, #0]
 80079a0:	f403 3300 	and.w	r3, r3, #131072	@ 0x20000
 80079a4:	2b00      	cmp	r3, #0
 80079a6:	d008      	beq.n	80079ba <HAL_RCCEx_PeriphCLKConfig+0x25e>
  {
    /* Check the parameters */
    assert_param(IS_RCC_USBCLKSOURCE(PeriphClkInit->USBClockSelection));
    
    /* Configure the USB clock source */
    __HAL_RCC_USB_CONFIG(PeriphClkInit->USBClockSelection);
 80079a8:	4b64      	ldr	r3, [pc, #400]	@ (8007b3c <HAL_RCCEx_PeriphCLKConfig+0x3e0>)
 80079aa:	685b      	ldr	r3, [r3, #4]
 80079ac:	f423 0280 	bic.w	r2, r3, #4194304	@ 0x400000
 80079b0:	687b      	ldr	r3, [r7, #4]
 80079b2:	6d5b      	ldr	r3, [r3, #84]	@ 0x54
 80079b4:	4961      	ldr	r1, [pc, #388]	@ (8007b3c <HAL_RCCEx_PeriphCLKConfig+0x3e0>)
 80079b6:	4313      	orrs	r3, r2
 80079b8:	604b      	str	r3, [r1, #4]
 || defined(STM32F302xC) || defined(STM32F303xC) || defined(STM32F358xx)\
 || defined(STM32F301x8) || defined(STM32F302x8) || defined(STM32F318xx)\
 || defined(STM32F373xC) || defined(STM32F378xx)

  /*------------------------------ I2C2 Configuration ------------------------*/ 
  if(((PeriphClkInit->PeriphClockSelection) & RCC_PERIPHCLK_I2C2) == RCC_PERIPHCLK_I2C2)
 80079ba:	687b      	ldr	r3, [r7, #4]
 80079bc:	681b      	ldr	r3, [r3, #0]
 80079be:	f003 0340 	and.w	r3, r3, #64	@ 0x40
 80079c2:	2b00      	cmp	r3, #0
 80079c4:	d008      	beq.n	80079d8 <HAL_RCCEx_PeriphCLKConfig+0x27c>
  {
    /* Check the parameters */
    assert_param(IS_RCC_I2C2CLKSOURCE(PeriphClkInit->I2c2ClockSelection));
    
    /* Configure the I2C2 clock source */
    __HAL_RCC_I2C2_CONFIG(PeriphClkInit->I2c2ClockSelection);
 80079c6:	4b5d      	ldr	r3, [pc, #372]	@ (8007b3c <HAL_RCCEx_PeriphCLKConfig+0x3e0>)
 80079c8:	6b1b      	ldr	r3, [r3, #48]	@ 0x30
 80079ca:	f023 0220 	bic.w	r2, r3, #32
 80079ce:	687b      	ldr	r3, [r7, #4]
 80079d0:	6a1b      	ldr	r3, [r3, #32]
 80079d2:	495a      	ldr	r1, [pc, #360]	@ (8007b3c <HAL_RCCEx_PeriphCLKConfig+0x3e0>)
 80079d4:	4313      	orrs	r3, r2
 80079d6:	630b      	str	r3, [r1, #48]	@ 0x30
  
#if defined(STM32F302xE) || defined(STM32F303xE) || defined(STM32F398xx)\
 || defined(STM32F301x8) || defined(STM32F302x8) || defined(STM32F318xx)

  /*------------------------------ I2C3 Configuration ------------------------*/ 
  if(((PeriphClkInit->PeriphClockSelection) & RCC_PERIPHCLK_I2C3) == RCC_PERIPHCLK_I2C3)
 80079d8:	687b      	ldr	r3, [r7, #4]
 80079da:	681b      	ldr	r3, [r3, #0]
 80079dc:	f403 2380 	and.w	r3, r3, #262144	@ 0x40000
 80079e0:	2b00      	cmp	r3, #0
 80079e2:	d008      	beq.n	80079f6 <HAL_RCCEx_PeriphCLKConfig+0x29a>
  {
    /* Check the parameters */
    assert_param(IS_RCC_I2C3CLKSOURCE(PeriphClkInit->I2c3ClockSelection));
    
    /* Configure the I2C3 clock source */
    __HAL_RCC_I2C3_CONFIG(PeriphClkInit->I2c3ClockSelection);
 80079e4:	4b55      	ldr	r3, [pc, #340]	@ (8007b3c <HAL_RCCEx_PeriphCLKConfig+0x3e0>)
 80079e6:	6b1b      	ldr	r3, [r3, #48]	@ 0x30
 80079e8:	f023 0240 	bic.w	r2, r3, #64	@ 0x40
 80079ec:	687b      	ldr	r3, [r7, #4]
 80079ee:	6a5b      	ldr	r3, [r3, #36]	@ 0x24
 80079f0:	4952      	ldr	r1, [pc, #328]	@ (8007b3c <HAL_RCCEx_PeriphCLKConfig+0x3e0>)
 80079f2:	4313      	orrs	r3, r2
 80079f4:	630b      	str	r3, [r1, #48]	@ 0x30
  
#if defined(STM32F302xE) || defined(STM32F303xE) || defined(STM32F398xx)\
 || defined(STM32F302xC) || defined(STM32F303xC) || defined(STM32F358xx)

  /*------------------------------ UART4 Configuration ------------------------*/ 
  if(((PeriphClkInit->PeriphClockSelection) & RCC_PERIPHCLK_UART4) == RCC_PERIPHCLK_UART4)
 80079f6:	687b      	ldr	r3, [r7, #4]
 80079f8:	681b      	ldr	r3, [r3, #0]
 80079fa:	f003 0308 	and.w	r3, r3, #8
 80079fe:	2b00      	cmp	r3, #0
 8007a00:	d008      	beq.n	8007a14 <HAL_RCCEx_PeriphCLKConfig+0x2b8>
  {
    /* Check the parameters */
    assert_param(IS_RCC_UART4CLKSOURCE(PeriphClkInit->Uart4ClockSelection));
    
    /* Configure the UART4 clock source */
    __HAL_RCC_UART4_CONFIG(PeriphClkInit->Uart4ClockSelection);
 8007a02:	4b4e      	ldr	r3, [pc, #312]	@ (8007b3c <HAL_RCCEx_PeriphCLKConfig+0x3e0>)
 8007a04:	6b1b      	ldr	r3, [r3, #48]	@ 0x30
 8007a06:	f423 1240 	bic.w	r2, r3, #3145728	@ 0x300000
 8007a0a:	687b      	ldr	r3, [r7, #4]
 8007a0c:	695b      	ldr	r3, [r3, #20]
 8007a0e:	494b      	ldr	r1, [pc, #300]	@ (8007b3c <HAL_RCCEx_PeriphCLKConfig+0x3e0>)
 8007a10:	4313      	orrs	r3, r2
 8007a12:	630b      	str	r3, [r1, #48]	@ 0x30
  }

  /*------------------------------ UART5 Configuration ------------------------*/ 
  if(((PeriphClkInit->PeriphClockSelection) & RCC_PERIPHCLK_UART5) == RCC_PERIPHCLK_UART5)
 8007a14:	687b      	ldr	r3, [r7, #4]
 8007a16:	681b      	ldr	r3, [r3, #0]
 8007a18:	f003 0310 	and.w	r3, r3, #16
 8007a1c:	2b00      	cmp	r3, #0
 8007a1e:	d008      	beq.n	8007a32 <HAL_RCCEx_PeriphCLKConfig+0x2d6>
  {
    /* Check the parameters */
    assert_param(IS_RCC_UART5CLKSOURCE(PeriphClkInit->Uart5ClockSelection));
    
    /* Configure the UART5 clock source */
    __HAL_RCC_UART5_CONFIG(PeriphClkInit->Uart5ClockSelection);
 8007a20:	4b46      	ldr	r3, [pc, #280]	@ (8007b3c <HAL_RCCEx_PeriphCLKConfig+0x3e0>)
 8007a22:	6b1b      	ldr	r3, [r3, #48]	@ 0x30
 8007a24:	f423 0240 	bic.w	r2, r3, #12582912	@ 0xc00000
 8007a28:	687b      	ldr	r3, [r7, #4]
 8007a2a:	699b      	ldr	r3, [r3, #24]
 8007a2c:	4943      	ldr	r1, [pc, #268]	@ (8007b3c <HAL_RCCEx_PeriphCLKConfig+0x3e0>)
 8007a2e:	4313      	orrs	r3, r2
 8007a30:	630b      	str	r3, [r1, #48]	@ 0x30

#if defined(STM32F302xE) || defined(STM32F303xE) || defined(STM32F398xx)\
 || defined(STM32F302xC) || defined(STM32F303xC) || defined(STM32F358xx)\
 || defined(STM32F301x8) || defined(STM32F302x8) || defined(STM32F318xx)
  /*------------------------------ I2S Configuration ------------------------*/ 
  if(((PeriphClkInit->PeriphClockSelection) & RCC_PERIPHCLK_I2S) == RCC_PERIPHCLK_I2S)
 8007a32:	687b      	ldr	r3, [r7, #4]
 8007a34:	681b      	ldr	r3, [r3, #0]
 8007a36:	f403 7300 	and.w	r3, r3, #512	@ 0x200
 8007a3a:	2b00      	cmp	r3, #0
 8007a3c:	d008      	beq.n	8007a50 <HAL_RCCEx_PeriphCLKConfig+0x2f4>
  {
    /* Check the parameters */
    assert_param(IS_RCC_I2SCLKSOURCE(PeriphClkInit->I2sClockSelection));
    
    /* Configure the I2S clock source */
    __HAL_RCC_I2S_CONFIG(PeriphClkInit->I2sClockSelection);
 8007a3e:	4b3f      	ldr	r3, [pc, #252]	@ (8007b3c <HAL_RCCEx_PeriphCLKConfig+0x3e0>)
 8007a40:	685b      	ldr	r3, [r3, #4]
 8007a42:	f423 0200 	bic.w	r2, r3, #8388608	@ 0x800000
 8007a46:	687b      	ldr	r3, [r7, #4]
 8007a48:	6b1b      	ldr	r3, [r3, #48]	@ 0x30
 8007a4a:	493c      	ldr	r1, [pc, #240]	@ (8007b3c <HAL_RCCEx_PeriphCLKConfig+0x3e0>)
 8007a4c:	4313      	orrs	r3, r2
 8007a4e:	604b      	str	r3, [r1, #4]
#if defined(STM32F302xE) || defined(STM32F303xE) || defined(STM32F398xx)\
 || defined(STM32F302xC) || defined(STM32F303xC) || defined(STM32F358xx)\
 || defined(STM32F303x8) || defined(STM32F334x8) || defined(STM32F328xx)
      
  /*------------------------------ ADC1 & ADC2 clock Configuration -------------*/ 
  if(((PeriphClkInit->PeriphClockSelection) & RCC_PERIPHCLK_ADC12) == RCC_PERIPHCLK_ADC12)
 8007a50:	687b      	ldr	r3, [r7, #4]
 8007a52:	681b      	ldr	r3, [r3, #0]
 8007a54:	f003 0380 	and.w	r3, r3, #128	@ 0x80
 8007a58:	2b00      	cmp	r3, #0
 8007a5a:	d008      	beq.n	8007a6e <HAL_RCCEx_PeriphCLKConfig+0x312>
  {
    /* Check the parameters */
    assert_param(IS_RCC_ADC12PLLCLK_DIV(PeriphClkInit->Adc12ClockSelection));
    
    /* Configure the ADC12 clock source */
    __HAL_RCC_ADC12_CONFIG(PeriphClkInit->Adc12ClockSelection);
 8007a5c:	4b37      	ldr	r3, [pc, #220]	@ (8007b3c <HAL_RCCEx_PeriphCLKConfig+0x3e0>)
 8007a5e:	6adb      	ldr	r3, [r3, #44]	@ 0x2c
 8007a60:	f423 72f8 	bic.w	r2, r3, #496	@ 0x1f0
 8007a64:	687b      	ldr	r3, [r7, #4]
 8007a66:	6a9b      	ldr	r3, [r3, #40]	@ 0x28
 8007a68:	4934      	ldr	r1, [pc, #208]	@ (8007b3c <HAL_RCCEx_PeriphCLKConfig+0x3e0>)
 8007a6a:	4313      	orrs	r3, r2
 8007a6c:	62cb      	str	r3, [r1, #44]	@ 0x2c
  
#if defined(STM32F303xE) || defined(STM32F398xx)\
 || defined(STM32F303xC) || defined(STM32F358xx)

  /*------------------------------ ADC3 & ADC4 clock Configuration -------------*/ 
  if(((PeriphClkInit->PeriphClockSelection) & RCC_PERIPHCLK_ADC34) == RCC_PERIPHCLK_ADC34)
 8007a6e:	687b      	ldr	r3, [r7, #4]
 8007a70:	681b      	ldr	r3, [r3, #0]
 8007a72:	f403 7380 	and.w	r3, r3, #256	@ 0x100
 8007a76:	2b00      	cmp	r3, #0
 8007a78:	d008      	beq.n	8007a8c <HAL_RCCEx_PeriphCLKConfig+0x330>
  {
    /* Check the parameters */
    assert_param(IS_RCC_ADC34PLLCLK_DIV(PeriphClkInit->Adc34ClockSelection));
    
    /* Configure the ADC34 clock source */
    __HAL_RCC_ADC34_CONFIG(PeriphClkInit->Adc34ClockSelection);
 8007a7a:	4b30      	ldr	r3, [pc, #192]	@ (8007b3c <HAL_RCCEx_PeriphCLKConfig+0x3e0>)
 8007a7c:	6adb      	ldr	r3, [r3, #44]	@ 0x2c
 8007a7e:	f423 5278 	bic.w	r2, r3, #15872	@ 0x3e00
 8007a82:	687b      	ldr	r3, [r7, #4]
 8007a84:	6adb      	ldr	r3, [r3, #44]	@ 0x2c
 8007a86:	492d      	ldr	r1, [pc, #180]	@ (8007b3c <HAL_RCCEx_PeriphCLKConfig+0x3e0>)
 8007a88:	4313      	orrs	r3, r2
 8007a8a:	62cb      	str	r3, [r1, #44]	@ 0x2c
 || defined(STM32F302xC) || defined(STM32F303xC) || defined(STM32F358xx)\
 || defined(STM32F303x8) || defined(STM32F334x8) || defined(STM32F328xx)\
 || defined(STM32F301x8) || defined(STM32F302x8) || defined(STM32F318xx)

  /*------------------------------ TIM1 clock Configuration ----------------*/ 
  if(((PeriphClkInit->PeriphClockSelection) & RCC_PERIPHCLK_TIM1) == RCC_PERIPHCLK_TIM1)
 8007a8c:	687b      	ldr	r3, [r7, #4]
 8007a8e:	681b      	ldr	r3, [r3, #0]
 8007a90:	f403 5380 	and.w	r3, r3, #4096	@ 0x1000
 8007a94:	2b00      	cmp	r3, #0
 8007a96:	d008      	beq.n	8007aaa <HAL_RCCEx_PeriphCLKConfig+0x34e>
  {
    /* Check the parameters */
    assert_param(IS_RCC_TIM1CLKSOURCE(PeriphClkInit->Tim1ClockSelection));
    
    /* Configure the TIM1 clock source */
    __HAL_RCC_TIM1_CONFIG(PeriphClkInit->Tim1ClockSelection);
 8007a98:	4b28      	ldr	r3, [pc, #160]	@ (8007b3c <HAL_RCCEx_PeriphCLKConfig+0x3e0>)
 8007a9a:	6b1b      	ldr	r3, [r3, #48]	@ 0x30
 8007a9c:	f423 7280 	bic.w	r2, r3, #256	@ 0x100
 8007aa0:	687b      	ldr	r3, [r7, #4]
 8007aa2:	6b5b      	ldr	r3, [r3, #52]	@ 0x34
 8007aa4:	4925      	ldr	r1, [pc, #148]	@ (8007b3c <HAL_RCCEx_PeriphCLKConfig+0x3e0>)
 8007aa6:	4313      	orrs	r3, r2
 8007aa8:	630b      	str	r3, [r1, #48]	@ 0x30
  
#if defined(STM32F303xE) || defined(STM32F398xx)\
 || defined(STM32F303xC) || defined(STM32F358xx)

  /*------------------------------ TIM8 clock Configuration ----------------*/ 
  if(((PeriphClkInit->PeriphClockSelection) & RCC_PERIPHCLK_TIM8) == RCC_PERIPHCLK_TIM8)
 8007aaa:	687b      	ldr	r3, [r7, #4]
 8007aac:	681b      	ldr	r3, [r3, #0]
 8007aae:	f403 5300 	and.w	r3, r3, #8192	@ 0x2000
 8007ab2:	2b00      	cmp	r3, #0
 8007ab4:	d008      	beq.n	8007ac8 <HAL_RCCEx_PeriphCLKConfig+0x36c>
  {
    /* Check the parameters */
    assert_param(IS_RCC_TIM8CLKSOURCE(PeriphClkInit->Tim8ClockSelection));
    
    /* Configure the TIM8 clock source */
    __HAL_RCC_TIM8_CONFIG(PeriphClkInit->Tim8ClockSelection);
 8007ab6:	4b21      	ldr	r3, [pc, #132]	@ (8007b3c <HAL_RCCEx_PeriphCLKConfig+0x3e0>)
 8007ab8:	6b1b      	ldr	r3, [r3, #48]	@ 0x30
 8007aba:	f423 7200 	bic.w	r2, r3, #512	@ 0x200
 8007abe:	687b      	ldr	r3, [r7, #4]
 8007ac0:	6c1b      	ldr	r3, [r3, #64]	@ 0x40
 8007ac2:	491e      	ldr	r1, [pc, #120]	@ (8007b3c <HAL_RCCEx_PeriphCLKConfig+0x3e0>)
 8007ac4:	4313      	orrs	r3, r2
 8007ac6:	630b      	str	r3, [r1, #48]	@ 0x30
#endif /* STM32F373xC || STM32F378xx */
  
#if defined(STM32F302xE) || defined(STM32F303xE) || defined(STM32F398xx)
  
  /*------------------------------ TIM2 clock Configuration -------------------*/ 
  if(((PeriphClkInit->PeriphClockSelection) & RCC_PERIPHCLK_TIM2) == RCC_PERIPHCLK_TIM2)
 8007ac8:	687b      	ldr	r3, [r7, #4]
 8007aca:	681b      	ldr	r3, [r3, #0]
 8007acc:	f403 1380 	and.w	r3, r3, #1048576	@ 0x100000
 8007ad0:	2b00      	cmp	r3, #0
 8007ad2:	d008      	beq.n	8007ae6 <HAL_RCCEx_PeriphCLKConfig+0x38a>
  {
    /* Check the parameters */
    assert_param(IS_RCC_TIM2CLKSOURCE(PeriphClkInit->Tim2ClockSelection));
    
    /* Configure the CEC clock source */
    __HAL_RCC_TIM2_CONFIG(PeriphClkInit->Tim2ClockSelection);
 8007ad4:	4b19      	ldr	r3, [pc, #100]	@ (8007b3c <HAL_RCCEx_PeriphCLKConfig+0x3e0>)
 8007ad6:	6b1b      	ldr	r3, [r3, #48]	@ 0x30
 8007ad8:	f023 7280 	bic.w	r2, r3, #16777216	@ 0x1000000
 8007adc:	687b      	ldr	r3, [r7, #4]
 8007ade:	6b9b      	ldr	r3, [r3, #56]	@ 0x38
 8007ae0:	4916      	ldr	r1, [pc, #88]	@ (8007b3c <HAL_RCCEx_PeriphCLKConfig+0x3e0>)
 8007ae2:	4313      	orrs	r3, r2
 8007ae4:	630b      	str	r3, [r1, #48]	@ 0x30
  }

  /*------------------------------ TIM3 clock Configuration -------------------*/ 
  if(((PeriphClkInit->PeriphClockSelection) & RCC_PERIPHCLK_TIM34) == RCC_PERIPHCLK_TIM34)
 8007ae6:	687b      	ldr	r3, [r7, #4]
 8007ae8:	681b      	ldr	r3, [r3, #0]
 8007aea:	f403 1300 	and.w	r3, r3, #2097152	@ 0x200000
 8007aee:	2b00      	cmp	r3, #0
 8007af0:	d008      	beq.n	8007b04 <HAL_RCCEx_PeriphCLKConfig+0x3a8>
  {
    /* Check the parameters */
    assert_param(IS_RCC_TIM3CLKSOURCE(PeriphClkInit->Tim34ClockSelection));
    
    /* Configure the CEC clock source */
    __HAL_RCC_TIM34_CONFIG(PeriphClkInit->Tim34ClockSelection);
 8007af2:	4b12      	ldr	r3, [pc, #72]	@ (8007b3c <HAL_RCCEx_PeriphCLKConfig+0x3e0>)
 8007af4:	6b1b      	ldr	r3, [r3, #48]	@ 0x30
 8007af6:	f023 7200 	bic.w	r2, r3, #33554432	@ 0x2000000
 8007afa:	687b      	ldr	r3, [r7, #4]
 8007afc:	6bdb      	ldr	r3, [r3, #60]	@ 0x3c
 8007afe:	490f      	ldr	r1, [pc, #60]	@ (8007b3c <HAL_RCCEx_PeriphCLKConfig+0x3e0>)
 8007b00:	4313      	orrs	r3, r2
 8007b02:	630b      	str	r3, [r1, #48]	@ 0x30
  }

  /*------------------------------ TIM15 clock Configuration ------------------*/ 
  if(((PeriphClkInit->PeriphClockSelection) & RCC_PERIPHCLK_TIM15) == RCC_PERIPHCLK_TIM15)
 8007b04:	687b      	ldr	r3, [r7, #4]
 8007b06:	681b      	ldr	r3, [r3, #0]
 8007b08:	f403 0380 	and.w	r3, r3, #4194304	@ 0x400000
 8007b0c:	2b00      	cmp	r3, #0
 8007b0e:	d008      	beq.n	8007b22 <HAL_RCCEx_PeriphCLKConfig+0x3c6>
  {
    /* Check the parameters */
    assert_param(IS_RCC_TIM15CLKSOURCE(PeriphClkInit->Tim15ClockSelection));
    
    /* Configure the CEC clock source */
    __HAL_RCC_TIM15_CONFIG(PeriphClkInit->Tim15ClockSelection);
 8007b10:	4b0a      	ldr	r3, [pc, #40]	@ (8007b3c <HAL_RCCEx_PeriphCLKConfig+0x3e0>)
 8007b12:	6b1b      	ldr	r3, [r3, #48]	@ 0x30
 8007b14:	f423 6280 	bic.w	r2, r3, #1024	@ 0x400
 8007b18:	687b      	ldr	r3, [r7, #4]
 8007b1a:	6c5b      	ldr	r3, [r3, #68]	@ 0x44
 8007b1c:	4907      	ldr	r1, [pc, #28]	@ (8007b3c <HAL_RCCEx_PeriphCLKConfig+0x3e0>)
 8007b1e:	4313      	orrs	r3, r2
 8007b20:	630b      	str	r3, [r1, #48]	@ 0x30
  }

  /*------------------------------ TIM16 clock Configuration ------------------*/ 
  if(((PeriphClkInit->PeriphClockSelection) & RCC_PERIPHCLK_TIM16) == RCC_PERIPHCLK_TIM16)
 8007b22:	687b      	ldr	r3, [r7, #4]
 8007b24:	681b      	ldr	r3, [r3, #0]
 8007b26:	f403 0300 	and.w	r3, r3, #8388608	@ 0x800000
 8007b2a:	2b00      	cmp	r3, #0
 8007b2c:	d00c      	beq.n	8007b48 <HAL_RCCEx_PeriphCLKConfig+0x3ec>
  {
    /* Check the parameters */
    assert_param(IS_RCC_TIM16CLKSOURCE(PeriphClkInit->Tim16ClockSelection));
    
    /* Configure the CEC clock source */
    __HAL_RCC_TIM16_CONFIG(PeriphClkInit->Tim16ClockSelection);
 8007b2e:	4b03      	ldr	r3, [pc, #12]	@ (8007b3c <HAL_RCCEx_PeriphCLKConfig+0x3e0>)
 8007b30:	6b1b      	ldr	r3, [r3, #48]	@ 0x30
 8007b32:	f423 6200 	bic.w	r2, r3, #2048	@ 0x800
 8007b36:	687b      	ldr	r3, [r7, #4]
 8007b38:	e002      	b.n	8007b40 <HAL_RCCEx_PeriphCLKConfig+0x3e4>
 8007b3a:	bf00      	nop
 8007b3c:	40021000 	.word	0x40021000
 8007b40:	6c9b      	ldr	r3, [r3, #72]	@ 0x48
 8007b42:	4913      	ldr	r1, [pc, #76]	@ (8007b90 <HAL_RCCEx_PeriphCLKConfig+0x434>)
 8007b44:	4313      	orrs	r3, r2
 8007b46:	630b      	str	r3, [r1, #48]	@ 0x30
  }

  /*------------------------------ TIM17 clock Configuration ------------------*/ 
  if(((PeriphClkInit->PeriphClockSelection) & RCC_PERIPHCLK_TIM17) == RCC_PERIPHCLK_TIM17)
 8007b48:	687b      	ldr	r3, [r7, #4]
 8007b4a:	681b      	ldr	r3, [r3, #0]
 8007b4c:	f003 7380 	and.w	r3, r3, #16777216	@ 0x1000000
 8007b50:	2b00      	cmp	r3, #0
 8007b52:	d008      	beq.n	8007b66 <HAL_RCCEx_PeriphCLKConfig+0x40a>
  {
    /* Check the parameters */
    assert_param(IS_RCC_TIM17CLKSOURCE(PeriphClkInit->Tim17ClockSelection));
    
    /* Configure the CEC clock source */
    __HAL_RCC_TIM17_CONFIG(PeriphClkInit->Tim17ClockSelection);
 8007b54:	4b0e      	ldr	r3, [pc, #56]	@ (8007b90 <HAL_RCCEx_PeriphCLKConfig+0x434>)
 8007b56:	6b1b      	ldr	r3, [r3, #48]	@ 0x30
 8007b58:	f423 5200 	bic.w	r2, r3, #8192	@ 0x2000
 8007b5c:	687b      	ldr	r3, [r7, #4]
 8007b5e:	6cdb      	ldr	r3, [r3, #76]	@ 0x4c
 8007b60:	490b      	ldr	r1, [pc, #44]	@ (8007b90 <HAL_RCCEx_PeriphCLKConfig+0x434>)
 8007b62:	4313      	orrs	r3, r2
 8007b64:	630b      	str	r3, [r1, #48]	@ 0x30

#endif /* STM32F302xE || STM32F303xE || STM32F398xx */  

#if defined(STM32F303xE) || defined(STM32F398xx)
  /*------------------------------ TIM20 clock Configuration ------------------*/ 
  if(((PeriphClkInit->PeriphClockSelection) & RCC_PERIPHCLK_TIM20) == RCC_PERIPHCLK_TIM20)
 8007b66:	687b      	ldr	r3, [r7, #4]
 8007b68:	681b      	ldr	r3, [r3, #0]
 8007b6a:	f003 7300 	and.w	r3, r3, #33554432	@ 0x2000000
 8007b6e:	2b00      	cmp	r3, #0
 8007b70:	d008      	beq.n	8007b84 <HAL_RCCEx_PeriphCLKConfig+0x428>
  {
    /* Check the parameters */
    assert_param(IS_RCC_TIM20CLKSOURCE(PeriphClkInit->Tim20ClockSelection));
    
    /* Configure the CEC clock source */
    __HAL_RCC_TIM20_CONFIG(PeriphClkInit->Tim20ClockSelection);
 8007b72:	4b07      	ldr	r3, [pc, #28]	@ (8007b90 <HAL_RCCEx_PeriphCLKConfig+0x434>)
 8007b74:	6b1b      	ldr	r3, [r3, #48]	@ 0x30
 8007b76:	f423 4200 	bic.w	r2, r3, #32768	@ 0x8000
 8007b7a:	687b      	ldr	r3, [r7, #4]
 8007b7c:	6d1b      	ldr	r3, [r3, #80]	@ 0x50
 8007b7e:	4904      	ldr	r1, [pc, #16]	@ (8007b90 <HAL_RCCEx_PeriphCLKConfig+0x434>)
 8007b80:	4313      	orrs	r3, r2
 8007b82:	630b      	str	r3, [r1, #48]	@ 0x30
  }
#endif /* STM32F303xE || STM32F398xx */  

  
  return HAL_OK;
 8007b84:	2300      	movs	r3, #0
}
 8007b86:	4618      	mov	r0, r3
 8007b88:	3748      	adds	r7, #72	@ 0x48
 8007b8a:	46bd      	mov	sp, r7
 8007b8c:	bd80      	pop	{r7, pc}
 8007b8e:	bf00      	nop
 8007b90:	40021000 	.word	0x40021000

08007b94 <HAL_UART_Init>:
  *        parameters in the UART_InitTypeDef and initialize the associated handle.
  * @param huart UART handle.
  * @retval HAL status
  */
HAL_StatusTypeDef HAL_UART_Init(UART_HandleTypeDef *huart)
{
 8007b94:	b580      	push	{r7, lr}
 8007b96:	b082      	sub	sp, #8
 8007b98:	af00      	add	r7, sp, #0
 8007b9a:	6078      	str	r0, [r7, #4]
  /* Check the UART handle allocation */
  if (huart == NULL)
 8007b9c:	687b      	ldr	r3, [r7, #4]
 8007b9e:	2b00      	cmp	r3, #0
 8007ba0:	d101      	bne.n	8007ba6 <HAL_UART_Init+0x12>
  {
    return HAL_ERROR;
 8007ba2:	2301      	movs	r3, #1
 8007ba4:	e040      	b.n	8007c28 <HAL_UART_Init+0x94>
  {
    /* Check the parameters */
    assert_param(IS_UART_INSTANCE(huart->Instance));
  }

  if (huart->gState == HAL_UART_STATE_RESET)
 8007ba6:	687b      	ldr	r3, [r7, #4]
 8007ba8:	6fdb      	ldr	r3, [r3, #124]	@ 0x7c
 8007baa:	2b00      	cmp	r3, #0
 8007bac:	d106      	bne.n	8007bbc <HAL_UART_Init+0x28>
  {
    /* Allocate lock resource and initialize it */
    huart->Lock = HAL_UNLOCKED;
 8007bae:	687b      	ldr	r3, [r7, #4]
 8007bb0:	2200      	movs	r2, #0
 8007bb2:	f883 2078 	strb.w	r2, [r3, #120]	@ 0x78

    /* Init the low level hardware */
    huart->MspInitCallback(huart);
#else
    /* Init the low level hardware : GPIO, CLOCK */
    HAL_UART_MspInit(huart);
 8007bb6:	6878      	ldr	r0, [r7, #4]
 8007bb8:	f7fd fccc 	bl	8005554 <HAL_UART_MspInit>
#endif /* (USE_HAL_UART_REGISTER_CALLBACKS) */
  }

  huart->gState = HAL_UART_STATE_BUSY;
 8007bbc:	687b      	ldr	r3, [r7, #4]
 8007bbe:	2224      	movs	r2, #36	@ 0x24
 8007bc0:	67da      	str	r2, [r3, #124]	@ 0x7c

  __HAL_UART_DISABLE(huart);
 8007bc2:	687b      	ldr	r3, [r7, #4]
 8007bc4:	681b      	ldr	r3, [r3, #0]
 8007bc6:	681a      	ldr	r2, [r3, #0]
 8007bc8:	687b      	ldr	r3, [r7, #4]
 8007bca:	681b      	ldr	r3, [r3, #0]
 8007bcc:	f022 0201 	bic.w	r2, r2, #1
 8007bd0:	601a      	str	r2, [r3, #0]

  /* Perform advanced settings configuration */
  /* For some items, configuration requires to be done prior TE and RE bits are set */
  if (huart->AdvancedInit.AdvFeatureInit != UART_ADVFEATURE_NO_INIT)
 8007bd2:	687b      	ldr	r3, [r7, #4]
 8007bd4:	6a5b      	ldr	r3, [r3, #36]	@ 0x24
 8007bd6:	2b00      	cmp	r3, #0
 8007bd8:	d002      	beq.n	8007be0 <HAL_UART_Init+0x4c>
  {
    UART_AdvFeatureConfig(huart);
 8007bda:	6878      	ldr	r0, [r7, #4]
 8007bdc:	f000 fb4e 	bl	800827c <UART_AdvFeatureConfig>
  }

  /* Set the UART Communication parameters */
  if (UART_SetConfig(huart) == HAL_ERROR)
 8007be0:	6878      	ldr	r0, [r7, #4]
 8007be2:	f000 f977 	bl	8007ed4 <UART_SetConfig>
 8007be6:	4603      	mov	r3, r0
 8007be8:	2b01      	cmp	r3, #1
 8007bea:	d101      	bne.n	8007bf0 <HAL_UART_Init+0x5c>
  {
    return HAL_ERROR;
 8007bec:	2301      	movs	r3, #1
 8007bee:	e01b      	b.n	8007c28 <HAL_UART_Init+0x94>
  }

  /* In asynchronous mode, the following bits must be kept cleared:
  - LINEN and CLKEN bits in the USART_CR2 register,
  - SCEN, HDSEL and IREN  bits in the USART_CR3 register.*/
  CLEAR_BIT(huart->Instance->CR2, (USART_CR2_LINEN | USART_CR2_CLKEN));
 8007bf0:	687b      	ldr	r3, [r7, #4]
 8007bf2:	681b      	ldr	r3, [r3, #0]
 8007bf4:	685a      	ldr	r2, [r3, #4]
 8007bf6:	687b      	ldr	r3, [r7, #4]
 8007bf8:	681b      	ldr	r3, [r3, #0]
 8007bfa:	f422 4290 	bic.w	r2, r2, #18432	@ 0x4800
 8007bfe:	605a      	str	r2, [r3, #4]
  CLEAR_BIT(huart->Instance->CR3, (USART_CR3_SCEN | USART_CR3_HDSEL | USART_CR3_IREN));
 8007c00:	687b      	ldr	r3, [r7, #4]
 8007c02:	681b      	ldr	r3, [r3, #0]
 8007c04:	689a      	ldr	r2, [r3, #8]
 8007c06:	687b      	ldr	r3, [r7, #4]
 8007c08:	681b      	ldr	r3, [r3, #0]
 8007c0a:	f022 022a 	bic.w	r2, r2, #42	@ 0x2a
 8007c0e:	609a      	str	r2, [r3, #8]

  __HAL_UART_ENABLE(huart);
 8007c10:	687b      	ldr	r3, [r7, #4]
 8007c12:	681b      	ldr	r3, [r3, #0]
 8007c14:	681a      	ldr	r2, [r3, #0]
 8007c16:	687b      	ldr	r3, [r7, #4]
 8007c18:	681b      	ldr	r3, [r3, #0]
 8007c1a:	f042 0201 	orr.w	r2, r2, #1
 8007c1e:	601a      	str	r2, [r3, #0]

  /* TEACK and/or REACK to check before moving huart->gState and huart->RxState to Ready */
  return (UART_CheckIdleState(huart));
 8007c20:	6878      	ldr	r0, [r7, #4]
 8007c22:	f000 fbcc 	bl	80083be <UART_CheckIdleState>
 8007c26:	4603      	mov	r3, r0
}
 8007c28:	4618      	mov	r0, r3
 8007c2a:	3708      	adds	r7, #8
 8007c2c:	46bd      	mov	sp, r7
 8007c2e:	bd80      	pop	{r7, pc}

08007c30 <HAL_UART_Transmit>:
  * @param Size    Amount of data elements (u8 or u16) to be sent.
  * @param Timeout Timeout duration.
  * @retval HAL status
  */
HAL_StatusTypeDef HAL_UART_Transmit(UART_HandleTypeDef *huart, const uint8_t *pData, uint16_t Size, uint32_t Timeout)
{
 8007c30:	b580      	push	{r7, lr}
 8007c32:	b08a      	sub	sp, #40	@ 0x28
 8007c34:	af02      	add	r7, sp, #8
 8007c36:	60f8      	str	r0, [r7, #12]
 8007c38:	60b9      	str	r1, [r7, #8]
 8007c3a:	603b      	str	r3, [r7, #0]
 8007c3c:	4613      	mov	r3, r2
 8007c3e:	80fb      	strh	r3, [r7, #6]
  const uint8_t  *pdata8bits;
  const uint16_t *pdata16bits;
  uint32_t tickstart;

  /* Check that a Tx process is not already ongoing */
  if (huart->gState == HAL_UART_STATE_READY)
 8007c40:	68fb      	ldr	r3, [r7, #12]
 8007c42:	6fdb      	ldr	r3, [r3, #124]	@ 0x7c
 8007c44:	2b20      	cmp	r3, #32
 8007c46:	d177      	bne.n	8007d38 <HAL_UART_Transmit+0x108>
  {
    if ((pData == NULL) || (Size == 0U))
 8007c48:	68bb      	ldr	r3, [r7, #8]
 8007c4a:	2b00      	cmp	r3, #0
 8007c4c:	d002      	beq.n	8007c54 <HAL_UART_Transmit+0x24>
 8007c4e:	88fb      	ldrh	r3, [r7, #6]
 8007c50:	2b00      	cmp	r3, #0
 8007c52:	d101      	bne.n	8007c58 <HAL_UART_Transmit+0x28>
    {
      return  HAL_ERROR;
 8007c54:	2301      	movs	r3, #1
 8007c56:	e070      	b.n	8007d3a <HAL_UART_Transmit+0x10a>
    }

    huart->ErrorCode = HAL_UART_ERROR_NONE;
 8007c58:	68fb      	ldr	r3, [r7, #12]
 8007c5a:	2200      	movs	r2, #0
 8007c5c:	f8c3 2084 	str.w	r2, [r3, #132]	@ 0x84
    huart->gState = HAL_UART_STATE_BUSY_TX;
 8007c60:	68fb      	ldr	r3, [r7, #12]
 8007c62:	2221      	movs	r2, #33	@ 0x21
 8007c64:	67da      	str	r2, [r3, #124]	@ 0x7c

    /* Init tickstart for timeout management */
    tickstart = HAL_GetTick();
 8007c66:	f7fd fdd5 	bl	8005814 <HAL_GetTick>
 8007c6a:	6178      	str	r0, [r7, #20]

    huart->TxXferSize  = Size;
 8007c6c:	68fb      	ldr	r3, [r7, #12]
 8007c6e:	88fa      	ldrh	r2, [r7, #6]
 8007c70:	f8a3 2050 	strh.w	r2, [r3, #80]	@ 0x50
    huart->TxXferCount = Size;
 8007c74:	68fb      	ldr	r3, [r7, #12]
 8007c76:	88fa      	ldrh	r2, [r7, #6]
 8007c78:	f8a3 2052 	strh.w	r2, [r3, #82]	@ 0x52

    /* In case of 9bits/No Parity transfer, pData needs to be handled as a uint16_t pointer */
    if ((huart->Init.WordLength == UART_WORDLENGTH_9B) && (huart->Init.Parity == UART_PARITY_NONE))
 8007c7c:	68fb      	ldr	r3, [r7, #12]
 8007c7e:	689b      	ldr	r3, [r3, #8]
 8007c80:	f5b3 5f80 	cmp.w	r3, #4096	@ 0x1000
 8007c84:	d108      	bne.n	8007c98 <HAL_UART_Transmit+0x68>
 8007c86:	68fb      	ldr	r3, [r7, #12]
 8007c88:	691b      	ldr	r3, [r3, #16]
 8007c8a:	2b00      	cmp	r3, #0
 8007c8c:	d104      	bne.n	8007c98 <HAL_UART_Transmit+0x68>
    {
      pdata8bits  = NULL;
 8007c8e:	2300      	movs	r3, #0
 8007c90:	61fb      	str	r3, [r7, #28]
      pdata16bits = (const uint16_t *) pData;
 8007c92:	68bb      	ldr	r3, [r7, #8]
 8007c94:	61bb      	str	r3, [r7, #24]
 8007c96:	e003      	b.n	8007ca0 <HAL_UART_Transmit+0x70>
    }
    else
    {
      pdata8bits  = pData;
 8007c98:	68bb      	ldr	r3, [r7, #8]
 8007c9a:	61fb      	str	r3, [r7, #28]
      pdata16bits = NULL;
 8007c9c:	2300      	movs	r3, #0
 8007c9e:	61bb      	str	r3, [r7, #24]
    }

    while (huart->TxXferCount > 0U)
 8007ca0:	e02f      	b.n	8007d02 <HAL_UART_Transmit+0xd2>
    {
      if (UART_WaitOnFlagUntilTimeout(huart, UART_FLAG_TXE, RESET, tickstart, Timeout) != HAL_OK)
 8007ca2:	683b      	ldr	r3, [r7, #0]
 8007ca4:	9300      	str	r3, [sp, #0]
 8007ca6:	697b      	ldr	r3, [r7, #20]
 8007ca8:	2200      	movs	r2, #0
 8007caa:	2180      	movs	r1, #128	@ 0x80
 8007cac:	68f8      	ldr	r0, [r7, #12]
 8007cae:	f000 fc2e 	bl	800850e <UART_WaitOnFlagUntilTimeout>
 8007cb2:	4603      	mov	r3, r0
 8007cb4:	2b00      	cmp	r3, #0
 8007cb6:	d004      	beq.n	8007cc2 <HAL_UART_Transmit+0x92>
      {

        huart->gState = HAL_UART_STATE_READY;
 8007cb8:	68fb      	ldr	r3, [r7, #12]
 8007cba:	2220      	movs	r2, #32
 8007cbc:	67da      	str	r2, [r3, #124]	@ 0x7c

        return HAL_TIMEOUT;
 8007cbe:	2303      	movs	r3, #3
 8007cc0:	e03b      	b.n	8007d3a <HAL_UART_Transmit+0x10a>
      }
      if (pdata8bits == NULL)
 8007cc2:	69fb      	ldr	r3, [r7, #28]
 8007cc4:	2b00      	cmp	r3, #0
 8007cc6:	d10b      	bne.n	8007ce0 <HAL_UART_Transmit+0xb0>
      {
        huart->Instance->TDR = (uint16_t)(*pdata16bits & 0x01FFU);
 8007cc8:	69bb      	ldr	r3, [r7, #24]
 8007cca:	881a      	ldrh	r2, [r3, #0]
 8007ccc:	68fb      	ldr	r3, [r7, #12]
 8007cce:	681b      	ldr	r3, [r3, #0]
 8007cd0:	f3c2 0208 	ubfx	r2, r2, #0, #9
 8007cd4:	b292      	uxth	r2, r2
 8007cd6:	851a      	strh	r2, [r3, #40]	@ 0x28
        pdata16bits++;
 8007cd8:	69bb      	ldr	r3, [r7, #24]
 8007cda:	3302      	adds	r3, #2
 8007cdc:	61bb      	str	r3, [r7, #24]
 8007cde:	e007      	b.n	8007cf0 <HAL_UART_Transmit+0xc0>
      }
      else
      {
        huart->Instance->TDR = (uint8_t)(*pdata8bits & 0xFFU);
 8007ce0:	69fb      	ldr	r3, [r7, #28]
 8007ce2:	781a      	ldrb	r2, [r3, #0]
 8007ce4:	68fb      	ldr	r3, [r7, #12]
 8007ce6:	681b      	ldr	r3, [r3, #0]
 8007ce8:	851a      	strh	r2, [r3, #40]	@ 0x28
        pdata8bits++;
 8007cea:	69fb      	ldr	r3, [r7, #28]
 8007cec:	3301      	adds	r3, #1
 8007cee:	61fb      	str	r3, [r7, #28]
      }
      huart->TxXferCount--;
 8007cf0:	68fb      	ldr	r3, [r7, #12]
 8007cf2:	f8b3 3052 	ldrh.w	r3, [r3, #82]	@ 0x52
 8007cf6:	b29b      	uxth	r3, r3
 8007cf8:	3b01      	subs	r3, #1
 8007cfa:	b29a      	uxth	r2, r3
 8007cfc:	68fb      	ldr	r3, [r7, #12]
 8007cfe:	f8a3 2052 	strh.w	r2, [r3, #82]	@ 0x52
    while (huart->TxXferCount > 0U)
 8007d02:	68fb      	ldr	r3, [r7, #12]
 8007d04:	f8b3 3052 	ldrh.w	r3, [r3, #82]	@ 0x52
 8007d08:	b29b      	uxth	r3, r3
 8007d0a:	2b00      	cmp	r3, #0
 8007d0c:	d1c9      	bne.n	8007ca2 <HAL_UART_Transmit+0x72>
    }

    if (UART_WaitOnFlagUntilTimeout(huart, UART_FLAG_TC, RESET, tickstart, Timeout) != HAL_OK)
 8007d0e:	683b      	ldr	r3, [r7, #0]
 8007d10:	9300      	str	r3, [sp, #0]
 8007d12:	697b      	ldr	r3, [r7, #20]
 8007d14:	2200      	movs	r2, #0
 8007d16:	2140      	movs	r1, #64	@ 0x40
 8007d18:	68f8      	ldr	r0, [r7, #12]
 8007d1a:	f000 fbf8 	bl	800850e <UART_WaitOnFlagUntilTimeout>
 8007d1e:	4603      	mov	r3, r0
 8007d20:	2b00      	cmp	r3, #0
 8007d22:	d004      	beq.n	8007d2e <HAL_UART_Transmit+0xfe>
    {
      huart->gState = HAL_UART_STATE_READY;
 8007d24:	68fb      	ldr	r3, [r7, #12]
 8007d26:	2220      	movs	r2, #32
 8007d28:	67da      	str	r2, [r3, #124]	@ 0x7c

      return HAL_TIMEOUT;
 8007d2a:	2303      	movs	r3, #3
 8007d2c:	e005      	b.n	8007d3a <HAL_UART_Transmit+0x10a>
    }

    /* At end of Tx process, restore huart->gState to Ready */
    huart->gState = HAL_UART_STATE_READY;
 8007d2e:	68fb      	ldr	r3, [r7, #12]
 8007d30:	2220      	movs	r2, #32
 8007d32:	67da      	str	r2, [r3, #124]	@ 0x7c

    return HAL_OK;
 8007d34:	2300      	movs	r3, #0
 8007d36:	e000      	b.n	8007d3a <HAL_UART_Transmit+0x10a>
  }
  else
  {
    return HAL_BUSY;
 8007d38:	2302      	movs	r3, #2
  }
}
 8007d3a:	4618      	mov	r0, r3
 8007d3c:	3720      	adds	r7, #32
 8007d3e:	46bd      	mov	sp, r7
 8007d40:	bd80      	pop	{r7, pc}

08007d42 <HAL_UART_Receive>:
  * @param Size    Amount of data elements (u8 or u16) to be received.
  * @param Timeout Timeout duration.
  * @retval HAL status
  */
HAL_StatusTypeDef HAL_UART_Receive(UART_HandleTypeDef *huart, uint8_t *pData, uint16_t Size, uint32_t Timeout)
{
 8007d42:	b580      	push	{r7, lr}
 8007d44:	b08a      	sub	sp, #40	@ 0x28
 8007d46:	af02      	add	r7, sp, #8
 8007d48:	60f8      	str	r0, [r7, #12]
 8007d4a:	60b9      	str	r1, [r7, #8]
 8007d4c:	603b      	str	r3, [r7, #0]
 8007d4e:	4613      	mov	r3, r2
 8007d50:	80fb      	strh	r3, [r7, #6]
  uint16_t *pdata16bits;
  uint16_t uhMask;
  uint32_t tickstart;

  /* Check that a Rx process is not already ongoing */
  if (huart->RxState == HAL_UART_STATE_READY)
 8007d52:	68fb      	ldr	r3, [r7, #12]
 8007d54:	f8d3 3080 	ldr.w	r3, [r3, #128]	@ 0x80
 8007d58:	2b20      	cmp	r3, #32
 8007d5a:	f040 80b6 	bne.w	8007eca <HAL_UART_Receive+0x188>
  {
    if ((pData == NULL) || (Size == 0U))
 8007d5e:	68bb      	ldr	r3, [r7, #8]
 8007d60:	2b00      	cmp	r3, #0
 8007d62:	d002      	beq.n	8007d6a <HAL_UART_Receive+0x28>
 8007d64:	88fb      	ldrh	r3, [r7, #6]
 8007d66:	2b00      	cmp	r3, #0
 8007d68:	d101      	bne.n	8007d6e <HAL_UART_Receive+0x2c>
    {
      return  HAL_ERROR;
 8007d6a:	2301      	movs	r3, #1
 8007d6c:	e0ae      	b.n	8007ecc <HAL_UART_Receive+0x18a>
    }

    huart->ErrorCode = HAL_UART_ERROR_NONE;
 8007d6e:	68fb      	ldr	r3, [r7, #12]
 8007d70:	2200      	movs	r2, #0
 8007d72:	f8c3 2084 	str.w	r2, [r3, #132]	@ 0x84
    huart->RxState = HAL_UART_STATE_BUSY_RX;
 8007d76:	68fb      	ldr	r3, [r7, #12]
 8007d78:	2222      	movs	r2, #34	@ 0x22
 8007d7a:	f8c3 2080 	str.w	r2, [r3, #128]	@ 0x80
    huart->ReceptionType = HAL_UART_RECEPTION_STANDARD;
 8007d7e:	68fb      	ldr	r3, [r7, #12]
 8007d80:	2200      	movs	r2, #0
 8007d82:	661a      	str	r2, [r3, #96]	@ 0x60

    /* Init tickstart for timeout management */
    tickstart = HAL_GetTick();
 8007d84:	f7fd fd46 	bl	8005814 <HAL_GetTick>
 8007d88:	6178      	str	r0, [r7, #20]

    huart->RxXferSize  = Size;
 8007d8a:	68fb      	ldr	r3, [r7, #12]
 8007d8c:	88fa      	ldrh	r2, [r7, #6]
 8007d8e:	f8a3 2058 	strh.w	r2, [r3, #88]	@ 0x58
    huart->RxXferCount = Size;
 8007d92:	68fb      	ldr	r3, [r7, #12]
 8007d94:	88fa      	ldrh	r2, [r7, #6]
 8007d96:	f8a3 205a 	strh.w	r2, [r3, #90]	@ 0x5a

    /* Computation of UART mask to apply to RDR register */
    UART_MASK_COMPUTATION(huart);
 8007d9a:	68fb      	ldr	r3, [r7, #12]
 8007d9c:	689b      	ldr	r3, [r3, #8]
 8007d9e:	f5b3 5f80 	cmp.w	r3, #4096	@ 0x1000
 8007da2:	d10e      	bne.n	8007dc2 <HAL_UART_Receive+0x80>
 8007da4:	68fb      	ldr	r3, [r7, #12]
 8007da6:	691b      	ldr	r3, [r3, #16]
 8007da8:	2b00      	cmp	r3, #0
 8007daa:	d105      	bne.n	8007db8 <HAL_UART_Receive+0x76>
 8007dac:	68fb      	ldr	r3, [r7, #12]
 8007dae:	f240 12ff 	movw	r2, #511	@ 0x1ff
 8007db2:	f8a3 205c 	strh.w	r2, [r3, #92]	@ 0x5c
 8007db6:	e02d      	b.n	8007e14 <HAL_UART_Receive+0xd2>
 8007db8:	68fb      	ldr	r3, [r7, #12]
 8007dba:	22ff      	movs	r2, #255	@ 0xff
 8007dbc:	f8a3 205c 	strh.w	r2, [r3, #92]	@ 0x5c
 8007dc0:	e028      	b.n	8007e14 <HAL_UART_Receive+0xd2>
 8007dc2:	68fb      	ldr	r3, [r7, #12]
 8007dc4:	689b      	ldr	r3, [r3, #8]
 8007dc6:	2b00      	cmp	r3, #0
 8007dc8:	d10d      	bne.n	8007de6 <HAL_UART_Receive+0xa4>
 8007dca:	68fb      	ldr	r3, [r7, #12]
 8007dcc:	691b      	ldr	r3, [r3, #16]
 8007dce:	2b00      	cmp	r3, #0
 8007dd0:	d104      	bne.n	8007ddc <HAL_UART_Receive+0x9a>
 8007dd2:	68fb      	ldr	r3, [r7, #12]
 8007dd4:	22ff      	movs	r2, #255	@ 0xff
 8007dd6:	f8a3 205c 	strh.w	r2, [r3, #92]	@ 0x5c
 8007dda:	e01b      	b.n	8007e14 <HAL_UART_Receive+0xd2>
 8007ddc:	68fb      	ldr	r3, [r7, #12]
 8007dde:	227f      	movs	r2, #127	@ 0x7f
 8007de0:	f8a3 205c 	strh.w	r2, [r3, #92]	@ 0x5c
 8007de4:	e016      	b.n	8007e14 <HAL_UART_Receive+0xd2>
 8007de6:	68fb      	ldr	r3, [r7, #12]
 8007de8:	689b      	ldr	r3, [r3, #8]
 8007dea:	f1b3 5f80 	cmp.w	r3, #268435456	@ 0x10000000
 8007dee:	d10d      	bne.n	8007e0c <HAL_UART_Receive+0xca>
 8007df0:	68fb      	ldr	r3, [r7, #12]
 8007df2:	691b      	ldr	r3, [r3, #16]
 8007df4:	2b00      	cmp	r3, #0
 8007df6:	d104      	bne.n	8007e02 <HAL_UART_Receive+0xc0>
 8007df8:	68fb      	ldr	r3, [r7, #12]
 8007dfa:	227f      	movs	r2, #127	@ 0x7f
 8007dfc:	f8a3 205c 	strh.w	r2, [r3, #92]	@ 0x5c
 8007e00:	e008      	b.n	8007e14 <HAL_UART_Receive+0xd2>
 8007e02:	68fb      	ldr	r3, [r7, #12]
 8007e04:	223f      	movs	r2, #63	@ 0x3f
 8007e06:	f8a3 205c 	strh.w	r2, [r3, #92]	@ 0x5c
 8007e0a:	e003      	b.n	8007e14 <HAL_UART_Receive+0xd2>
 8007e0c:	68fb      	ldr	r3, [r7, #12]
 8007e0e:	2200      	movs	r2, #0
 8007e10:	f8a3 205c 	strh.w	r2, [r3, #92]	@ 0x5c
    uhMask = huart->Mask;
 8007e14:	68fb      	ldr	r3, [r7, #12]
 8007e16:	f8b3 305c 	ldrh.w	r3, [r3, #92]	@ 0x5c
 8007e1a:	827b      	strh	r3, [r7, #18]

    /* In case of 9bits/No Parity transfer, pRxData needs to be handled as a uint16_t pointer */
    if ((huart->Init.WordLength == UART_WORDLENGTH_9B) && (huart->Init.Parity == UART_PARITY_NONE))
 8007e1c:	68fb      	ldr	r3, [r7, #12]
 8007e1e:	689b      	ldr	r3, [r3, #8]
 8007e20:	f5b3 5f80 	cmp.w	r3, #4096	@ 0x1000
 8007e24:	d108      	bne.n	8007e38 <HAL_UART_Receive+0xf6>
 8007e26:	68fb      	ldr	r3, [r7, #12]
 8007e28:	691b      	ldr	r3, [r3, #16]
 8007e2a:	2b00      	cmp	r3, #0
 8007e2c:	d104      	bne.n	8007e38 <HAL_UART_Receive+0xf6>
    {
      pdata8bits  = NULL;
 8007e2e:	2300      	movs	r3, #0
 8007e30:	61fb      	str	r3, [r7, #28]
      pdata16bits = (uint16_t *) pData;
 8007e32:	68bb      	ldr	r3, [r7, #8]
 8007e34:	61bb      	str	r3, [r7, #24]
 8007e36:	e003      	b.n	8007e40 <HAL_UART_Receive+0xfe>
    }
    else
    {
      pdata8bits  = pData;
 8007e38:	68bb      	ldr	r3, [r7, #8]
 8007e3a:	61fb      	str	r3, [r7, #28]
      pdata16bits = NULL;
 8007e3c:	2300      	movs	r3, #0
 8007e3e:	61bb      	str	r3, [r7, #24]
    }

    /* as long as data have to be received */
    while (huart->RxXferCount > 0U)
 8007e40:	e037      	b.n	8007eb2 <HAL_UART_Receive+0x170>
    {
      if (UART_WaitOnFlagUntilTimeout(huart, UART_FLAG_RXNE, RESET, tickstart, Timeout) != HAL_OK)
 8007e42:	683b      	ldr	r3, [r7, #0]
 8007e44:	9300      	str	r3, [sp, #0]
 8007e46:	697b      	ldr	r3, [r7, #20]
 8007e48:	2200      	movs	r2, #0
 8007e4a:	2120      	movs	r1, #32
 8007e4c:	68f8      	ldr	r0, [r7, #12]
 8007e4e:	f000 fb5e 	bl	800850e <UART_WaitOnFlagUntilTimeout>
 8007e52:	4603      	mov	r3, r0
 8007e54:	2b00      	cmp	r3, #0
 8007e56:	d005      	beq.n	8007e64 <HAL_UART_Receive+0x122>
      {
        huart->RxState = HAL_UART_STATE_READY;
 8007e58:	68fb      	ldr	r3, [r7, #12]
 8007e5a:	2220      	movs	r2, #32
 8007e5c:	f8c3 2080 	str.w	r2, [r3, #128]	@ 0x80

        return HAL_TIMEOUT;
 8007e60:	2303      	movs	r3, #3
 8007e62:	e033      	b.n	8007ecc <HAL_UART_Receive+0x18a>
      }
      if (pdata8bits == NULL)
 8007e64:	69fb      	ldr	r3, [r7, #28]
 8007e66:	2b00      	cmp	r3, #0
 8007e68:	d10c      	bne.n	8007e84 <HAL_UART_Receive+0x142>
      {
        *pdata16bits = (uint16_t)(huart->Instance->RDR & uhMask);
 8007e6a:	68fb      	ldr	r3, [r7, #12]
 8007e6c:	681b      	ldr	r3, [r3, #0]
 8007e6e:	8c9b      	ldrh	r3, [r3, #36]	@ 0x24
 8007e70:	b29a      	uxth	r2, r3
 8007e72:	8a7b      	ldrh	r3, [r7, #18]
 8007e74:	4013      	ands	r3, r2
 8007e76:	b29a      	uxth	r2, r3
 8007e78:	69bb      	ldr	r3, [r7, #24]
 8007e7a:	801a      	strh	r2, [r3, #0]
        pdata16bits++;
 8007e7c:	69bb      	ldr	r3, [r7, #24]
 8007e7e:	3302      	adds	r3, #2
 8007e80:	61bb      	str	r3, [r7, #24]
 8007e82:	e00d      	b.n	8007ea0 <HAL_UART_Receive+0x15e>
      }
      else
      {
        *pdata8bits = (uint8_t)(huart->Instance->RDR & (uint8_t)uhMask);
 8007e84:	68fb      	ldr	r3, [r7, #12]
 8007e86:	681b      	ldr	r3, [r3, #0]
 8007e88:	8c9b      	ldrh	r3, [r3, #36]	@ 0x24
 8007e8a:	b29b      	uxth	r3, r3
 8007e8c:	b2da      	uxtb	r2, r3
 8007e8e:	8a7b      	ldrh	r3, [r7, #18]
 8007e90:	b2db      	uxtb	r3, r3
 8007e92:	4013      	ands	r3, r2
 8007e94:	b2da      	uxtb	r2, r3
 8007e96:	69fb      	ldr	r3, [r7, #28]
 8007e98:	701a      	strb	r2, [r3, #0]
        pdata8bits++;
 8007e9a:	69fb      	ldr	r3, [r7, #28]
 8007e9c:	3301      	adds	r3, #1
 8007e9e:	61fb      	str	r3, [r7, #28]
      }
      huart->RxXferCount--;
 8007ea0:	68fb      	ldr	r3, [r7, #12]
 8007ea2:	f8b3 305a 	ldrh.w	r3, [r3, #90]	@ 0x5a
 8007ea6:	b29b      	uxth	r3, r3
 8007ea8:	3b01      	subs	r3, #1
 8007eaa:	b29a      	uxth	r2, r3
 8007eac:	68fb      	ldr	r3, [r7, #12]
 8007eae:	f8a3 205a 	strh.w	r2, [r3, #90]	@ 0x5a
    while (huart->RxXferCount > 0U)
 8007eb2:	68fb      	ldr	r3, [r7, #12]
 8007eb4:	f8b3 305a 	ldrh.w	r3, [r3, #90]	@ 0x5a
 8007eb8:	b29b      	uxth	r3, r3
 8007eba:	2b00      	cmp	r3, #0
 8007ebc:	d1c1      	bne.n	8007e42 <HAL_UART_Receive+0x100>
    }

    /* At end of Rx process, restore huart->RxState to Ready */
    huart->RxState = HAL_UART_STATE_READY;
 8007ebe:	68fb      	ldr	r3, [r7, #12]
 8007ec0:	2220      	movs	r2, #32
 8007ec2:	f8c3 2080 	str.w	r2, [r3, #128]	@ 0x80

    return HAL_OK;
 8007ec6:	2300      	movs	r3, #0
 8007ec8:	e000      	b.n	8007ecc <HAL_UART_Receive+0x18a>
  }
  else
  {
    return HAL_BUSY;
 8007eca:	2302      	movs	r3, #2
  }
}
 8007ecc:	4618      	mov	r0, r3
 8007ece:	3720      	adds	r7, #32
 8007ed0:	46bd      	mov	sp, r7
 8007ed2:	bd80      	pop	{r7, pc}

08007ed4 <UART_SetConfig>:
  * @brief Configure the UART peripheral.
  * @param huart UART handle.
  * @retval HAL status
  */
HAL_StatusTypeDef UART_SetConfig(UART_HandleTypeDef *huart)
{
 8007ed4:	b580      	push	{r7, lr}
 8007ed6:	b088      	sub	sp, #32
 8007ed8:	af00      	add	r7, sp, #0
 8007eda:	6078      	str	r0, [r7, #4]
  uint32_t tmpreg;
  uint16_t brrtemp;
  UART_ClockSourceTypeDef clocksource;
  uint32_t usartdiv;
  HAL_StatusTypeDef ret               = HAL_OK;
 8007edc:	2300      	movs	r3, #0
 8007ede:	77bb      	strb	r3, [r7, #30]
  *  the UART Word Length, Parity, Mode and oversampling:
  *  set the M bits according to huart->Init.WordLength value
  *  set PCE and PS bits according to huart->Init.Parity value
  *  set TE and RE bits according to huart->Init.Mode value
  *  set OVER8 bit according to huart->Init.OverSampling value */
  tmpreg = (uint32_t)huart->Init.WordLength | huart->Init.Parity | huart->Init.Mode | huart->Init.OverSampling ;
 8007ee0:	687b      	ldr	r3, [r7, #4]
 8007ee2:	689a      	ldr	r2, [r3, #8]
 8007ee4:	687b      	ldr	r3, [r7, #4]
 8007ee6:	691b      	ldr	r3, [r3, #16]
 8007ee8:	431a      	orrs	r2, r3
 8007eea:	687b      	ldr	r3, [r7, #4]
 8007eec:	695b      	ldr	r3, [r3, #20]
 8007eee:	431a      	orrs	r2, r3
 8007ef0:	687b      	ldr	r3, [r7, #4]
 8007ef2:	69db      	ldr	r3, [r3, #28]
 8007ef4:	4313      	orrs	r3, r2
 8007ef6:	617b      	str	r3, [r7, #20]
  MODIFY_REG(huart->Instance->CR1, USART_CR1_FIELDS, tmpreg);
 8007ef8:	687b      	ldr	r3, [r7, #4]
 8007efa:	681b      	ldr	r3, [r3, #0]
 8007efc:	681a      	ldr	r2, [r3, #0]
 8007efe:	4b92      	ldr	r3, [pc, #584]	@ (8008148 <UART_SetConfig+0x274>)
 8007f00:	4013      	ands	r3, r2
 8007f02:	687a      	ldr	r2, [r7, #4]
 8007f04:	6812      	ldr	r2, [r2, #0]
 8007f06:	6979      	ldr	r1, [r7, #20]
 8007f08:	430b      	orrs	r3, r1
 8007f0a:	6013      	str	r3, [r2, #0]

  /*-------------------------- USART CR2 Configuration -----------------------*/
  /* Configure the UART Stop Bits: Set STOP[13:12] bits according
  * to huart->Init.StopBits value */
  MODIFY_REG(huart->Instance->CR2, USART_CR2_STOP, huart->Init.StopBits);
 8007f0c:	687b      	ldr	r3, [r7, #4]
 8007f0e:	681b      	ldr	r3, [r3, #0]
 8007f10:	685b      	ldr	r3, [r3, #4]
 8007f12:	f423 5140 	bic.w	r1, r3, #12288	@ 0x3000
 8007f16:	687b      	ldr	r3, [r7, #4]
 8007f18:	68da      	ldr	r2, [r3, #12]
 8007f1a:	687b      	ldr	r3, [r7, #4]
 8007f1c:	681b      	ldr	r3, [r3, #0]
 8007f1e:	430a      	orrs	r2, r1
 8007f20:	605a      	str	r2, [r3, #4]
  /* Configure
  * - UART HardWare Flow Control: set CTSE and RTSE bits according
  *   to huart->Init.HwFlowCtl value
  * - one-bit sampling method versus three samples' majority rule according
  *   to huart->Init.OneBitSampling (not applicable to LPUART) */
  tmpreg = (uint32_t)huart->Init.HwFlowCtl;
 8007f22:	687b      	ldr	r3, [r7, #4]
 8007f24:	699b      	ldr	r3, [r3, #24]
 8007f26:	617b      	str	r3, [r7, #20]

  tmpreg |= huart->Init.OneBitSampling;
 8007f28:	687b      	ldr	r3, [r7, #4]
 8007f2a:	6a1b      	ldr	r3, [r3, #32]
 8007f2c:	697a      	ldr	r2, [r7, #20]
 8007f2e:	4313      	orrs	r3, r2
 8007f30:	617b      	str	r3, [r7, #20]
  MODIFY_REG(huart->Instance->CR3, USART_CR3_FIELDS, tmpreg);
 8007f32:	687b      	ldr	r3, [r7, #4]
 8007f34:	681b      	ldr	r3, [r3, #0]
 8007f36:	689b      	ldr	r3, [r3, #8]
 8007f38:	f423 6130 	bic.w	r1, r3, #2816	@ 0xb00
 8007f3c:	687b      	ldr	r3, [r7, #4]
 8007f3e:	681b      	ldr	r3, [r3, #0]
 8007f40:	697a      	ldr	r2, [r7, #20]
 8007f42:	430a      	orrs	r2, r1
 8007f44:	609a      	str	r2, [r3, #8]


  /*-------------------------- USART BRR Configuration -----------------------*/
  UART_GETCLOCKSOURCE(huart, clocksource);
 8007f46:	687b      	ldr	r3, [r7, #4]
 8007f48:	681b      	ldr	r3, [r3, #0]
 8007f4a:	4a80      	ldr	r2, [pc, #512]	@ (800814c <UART_SetConfig+0x278>)
 8007f4c:	4293      	cmp	r3, r2
 8007f4e:	d120      	bne.n	8007f92 <UART_SetConfig+0xbe>
 8007f50:	4b7f      	ldr	r3, [pc, #508]	@ (8008150 <UART_SetConfig+0x27c>)
 8007f52:	6b1b      	ldr	r3, [r3, #48]	@ 0x30
 8007f54:	f003 0303 	and.w	r3, r3, #3
 8007f58:	2b03      	cmp	r3, #3
 8007f5a:	d817      	bhi.n	8007f8c <UART_SetConfig+0xb8>
 8007f5c:	a201      	add	r2, pc, #4	@ (adr r2, 8007f64 <UART_SetConfig+0x90>)
 8007f5e:	f852 f023 	ldr.w	pc, [r2, r3, lsl #2]
 8007f62:	bf00      	nop
 8007f64:	08007f75 	.word	0x08007f75
 8007f68:	08007f81 	.word	0x08007f81
 8007f6c:	08007f87 	.word	0x08007f87
 8007f70:	08007f7b 	.word	0x08007f7b
 8007f74:	2301      	movs	r3, #1
 8007f76:	77fb      	strb	r3, [r7, #31]
 8007f78:	e0b5      	b.n	80080e6 <UART_SetConfig+0x212>
 8007f7a:	2302      	movs	r3, #2
 8007f7c:	77fb      	strb	r3, [r7, #31]
 8007f7e:	e0b2      	b.n	80080e6 <UART_SetConfig+0x212>
 8007f80:	2304      	movs	r3, #4
 8007f82:	77fb      	strb	r3, [r7, #31]
 8007f84:	e0af      	b.n	80080e6 <UART_SetConfig+0x212>
 8007f86:	2308      	movs	r3, #8
 8007f88:	77fb      	strb	r3, [r7, #31]
 8007f8a:	e0ac      	b.n	80080e6 <UART_SetConfig+0x212>
 8007f8c:	2310      	movs	r3, #16
 8007f8e:	77fb      	strb	r3, [r7, #31]
 8007f90:	e0a9      	b.n	80080e6 <UART_SetConfig+0x212>
 8007f92:	687b      	ldr	r3, [r7, #4]
 8007f94:	681b      	ldr	r3, [r3, #0]
 8007f96:	4a6f      	ldr	r2, [pc, #444]	@ (8008154 <UART_SetConfig+0x280>)
 8007f98:	4293      	cmp	r3, r2
 8007f9a:	d124      	bne.n	8007fe6 <UART_SetConfig+0x112>
 8007f9c:	4b6c      	ldr	r3, [pc, #432]	@ (8008150 <UART_SetConfig+0x27c>)
 8007f9e:	6b1b      	ldr	r3, [r3, #48]	@ 0x30
 8007fa0:	f403 3340 	and.w	r3, r3, #196608	@ 0x30000
 8007fa4:	f5b3 3f40 	cmp.w	r3, #196608	@ 0x30000
 8007fa8:	d011      	beq.n	8007fce <UART_SetConfig+0xfa>
 8007faa:	f5b3 3f40 	cmp.w	r3, #196608	@ 0x30000
 8007fae:	d817      	bhi.n	8007fe0 <UART_SetConfig+0x10c>
 8007fb0:	f5b3 3f00 	cmp.w	r3, #131072	@ 0x20000
 8007fb4:	d011      	beq.n	8007fda <UART_SetConfig+0x106>
 8007fb6:	f5b3 3f00 	cmp.w	r3, #131072	@ 0x20000
 8007fba:	d811      	bhi.n	8007fe0 <UART_SetConfig+0x10c>
 8007fbc:	2b00      	cmp	r3, #0
 8007fbe:	d003      	beq.n	8007fc8 <UART_SetConfig+0xf4>
 8007fc0:	f5b3 3f80 	cmp.w	r3, #65536	@ 0x10000
 8007fc4:	d006      	beq.n	8007fd4 <UART_SetConfig+0x100>
 8007fc6:	e00b      	b.n	8007fe0 <UART_SetConfig+0x10c>
 8007fc8:	2300      	movs	r3, #0
 8007fca:	77fb      	strb	r3, [r7, #31]
 8007fcc:	e08b      	b.n	80080e6 <UART_SetConfig+0x212>
 8007fce:	2302      	movs	r3, #2
 8007fd0:	77fb      	strb	r3, [r7, #31]
 8007fd2:	e088      	b.n	80080e6 <UART_SetConfig+0x212>
 8007fd4:	2304      	movs	r3, #4
 8007fd6:	77fb      	strb	r3, [r7, #31]
 8007fd8:	e085      	b.n	80080e6 <UART_SetConfig+0x212>
 8007fda:	2308      	movs	r3, #8
 8007fdc:	77fb      	strb	r3, [r7, #31]
 8007fde:	e082      	b.n	80080e6 <UART_SetConfig+0x212>
 8007fe0:	2310      	movs	r3, #16
 8007fe2:	77fb      	strb	r3, [r7, #31]
 8007fe4:	e07f      	b.n	80080e6 <UART_SetConfig+0x212>
 8007fe6:	687b      	ldr	r3, [r7, #4]
 8007fe8:	681b      	ldr	r3, [r3, #0]
 8007fea:	4a5b      	ldr	r2, [pc, #364]	@ (8008158 <UART_SetConfig+0x284>)
 8007fec:	4293      	cmp	r3, r2
 8007fee:	d124      	bne.n	800803a <UART_SetConfig+0x166>
 8007ff0:	4b57      	ldr	r3, [pc, #348]	@ (8008150 <UART_SetConfig+0x27c>)
 8007ff2:	6b1b      	ldr	r3, [r3, #48]	@ 0x30
 8007ff4:	f403 2340 	and.w	r3, r3, #786432	@ 0xc0000
 8007ff8:	f5b3 2f40 	cmp.w	r3, #786432	@ 0xc0000
 8007ffc:	d011      	beq.n	8008022 <UART_SetConfig+0x14e>
 8007ffe:	f5b3 2f40 	cmp.w	r3, #786432	@ 0xc0000
 8008002:	d817      	bhi.n	8008034 <UART_SetConfig+0x160>
 8008004:	f5b3 2f00 	cmp.w	r3, #524288	@ 0x80000
 8008008:	d011      	beq.n	800802e <UART_SetConfig+0x15a>
 800800a:	f5b3 2f00 	cmp.w	r3, #524288	@ 0x80000
 800800e:	d811      	bhi.n	8008034 <UART_SetConfig+0x160>
 8008010:	2b00      	cmp	r3, #0
 8008012:	d003      	beq.n	800801c <UART_SetConfig+0x148>
 8008014:	f5b3 2f80 	cmp.w	r3, #262144	@ 0x40000
 8008018:	d006      	beq.n	8008028 <UART_SetConfig+0x154>
 800801a:	e00b      	b.n	8008034 <UART_SetConfig+0x160>
 800801c:	2300      	movs	r3, #0
 800801e:	77fb      	strb	r3, [r7, #31]
 8008020:	e061      	b.n	80080e6 <UART_SetConfig+0x212>
 8008022:	2302      	movs	r3, #2
 8008024:	77fb      	strb	r3, [r7, #31]
 8008026:	e05e      	b.n	80080e6 <UART_SetConfig+0x212>
 8008028:	2304      	movs	r3, #4
 800802a:	77fb      	strb	r3, [r7, #31]
 800802c:	e05b      	b.n	80080e6 <UART_SetConfig+0x212>
 800802e:	2308      	movs	r3, #8
 8008030:	77fb      	strb	r3, [r7, #31]
 8008032:	e058      	b.n	80080e6 <UART_SetConfig+0x212>
 8008034:	2310      	movs	r3, #16
 8008036:	77fb      	strb	r3, [r7, #31]
 8008038:	e055      	b.n	80080e6 <UART_SetConfig+0x212>
 800803a:	687b      	ldr	r3, [r7, #4]
 800803c:	681b      	ldr	r3, [r3, #0]
 800803e:	4a47      	ldr	r2, [pc, #284]	@ (800815c <UART_SetConfig+0x288>)
 8008040:	4293      	cmp	r3, r2
 8008042:	d124      	bne.n	800808e <UART_SetConfig+0x1ba>
 8008044:	4b42      	ldr	r3, [pc, #264]	@ (8008150 <UART_SetConfig+0x27c>)
 8008046:	6b1b      	ldr	r3, [r3, #48]	@ 0x30
 8008048:	f403 1340 	and.w	r3, r3, #3145728	@ 0x300000
 800804c:	f5b3 1f40 	cmp.w	r3, #3145728	@ 0x300000
 8008050:	d011      	beq.n	8008076 <UART_SetConfig+0x1a2>
 8008052:	f5b3 1f40 	cmp.w	r3, #3145728	@ 0x300000
 8008056:	d817      	bhi.n	8008088 <UART_SetConfig+0x1b4>
 8008058:	f5b3 1f00 	cmp.w	r3, #2097152	@ 0x200000
 800805c:	d011      	beq.n	8008082 <UART_SetConfig+0x1ae>
 800805e:	f5b3 1f00 	cmp.w	r3, #2097152	@ 0x200000
 8008062:	d811      	bhi.n	8008088 <UART_SetConfig+0x1b4>
 8008064:	2b00      	cmp	r3, #0
 8008066:	d003      	beq.n	8008070 <UART_SetConfig+0x19c>
 8008068:	f5b3 1f80 	cmp.w	r3, #1048576	@ 0x100000
 800806c:	d006      	beq.n	800807c <UART_SetConfig+0x1a8>
 800806e:	e00b      	b.n	8008088 <UART_SetConfig+0x1b4>
 8008070:	2300      	movs	r3, #0
 8008072:	77fb      	strb	r3, [r7, #31]
 8008074:	e037      	b.n	80080e6 <UART_SetConfig+0x212>
 8008076:	2302      	movs	r3, #2
 8008078:	77fb      	strb	r3, [r7, #31]
 800807a:	e034      	b.n	80080e6 <UART_SetConfig+0x212>
 800807c:	2304      	movs	r3, #4
 800807e:	77fb      	strb	r3, [r7, #31]
 8008080:	e031      	b.n	80080e6 <UART_SetConfig+0x212>
 8008082:	2308      	movs	r3, #8
 8008084:	77fb      	strb	r3, [r7, #31]
 8008086:	e02e      	b.n	80080e6 <UART_SetConfig+0x212>
 8008088:	2310      	movs	r3, #16
 800808a:	77fb      	strb	r3, [r7, #31]
 800808c:	e02b      	b.n	80080e6 <UART_SetConfig+0x212>
 800808e:	687b      	ldr	r3, [r7, #4]
 8008090:	681b      	ldr	r3, [r3, #0]
 8008092:	4a33      	ldr	r2, [pc, #204]	@ (8008160 <UART_SetConfig+0x28c>)
 8008094:	4293      	cmp	r3, r2
 8008096:	d124      	bne.n	80080e2 <UART_SetConfig+0x20e>
 8008098:	4b2d      	ldr	r3, [pc, #180]	@ (8008150 <UART_SetConfig+0x27c>)
 800809a:	6b1b      	ldr	r3, [r3, #48]	@ 0x30
 800809c:	f403 0340 	and.w	r3, r3, #12582912	@ 0xc00000
 80080a0:	f5b3 0f40 	cmp.w	r3, #12582912	@ 0xc00000
 80080a4:	d011      	beq.n	80080ca <UART_SetConfig+0x1f6>
 80080a6:	f5b3 0f40 	cmp.w	r3, #12582912	@ 0xc00000
 80080aa:	d817      	bhi.n	80080dc <UART_SetConfig+0x208>
 80080ac:	f5b3 0f00 	cmp.w	r3, #8388608	@ 0x800000
 80080b0:	d011      	beq.n	80080d6 <UART_SetConfig+0x202>
 80080b2:	f5b3 0f00 	cmp.w	r3, #8388608	@ 0x800000
 80080b6:	d811      	bhi.n	80080dc <UART_SetConfig+0x208>
 80080b8:	2b00      	cmp	r3, #0
 80080ba:	d003      	beq.n	80080c4 <UART_SetConfig+0x1f0>
 80080bc:	f5b3 0f80 	cmp.w	r3, #4194304	@ 0x400000
 80080c0:	d006      	beq.n	80080d0 <UART_SetConfig+0x1fc>
 80080c2:	e00b      	b.n	80080dc <UART_SetConfig+0x208>
 80080c4:	2300      	movs	r3, #0
 80080c6:	77fb      	strb	r3, [r7, #31]
 80080c8:	e00d      	b.n	80080e6 <UART_SetConfig+0x212>
 80080ca:	2302      	movs	r3, #2
 80080cc:	77fb      	strb	r3, [r7, #31]
 80080ce:	e00a      	b.n	80080e6 <UART_SetConfig+0x212>
 80080d0:	2304      	movs	r3, #4
 80080d2:	77fb      	strb	r3, [r7, #31]
 80080d4:	e007      	b.n	80080e6 <UART_SetConfig+0x212>
 80080d6:	2308      	movs	r3, #8
 80080d8:	77fb      	strb	r3, [r7, #31]
 80080da:	e004      	b.n	80080e6 <UART_SetConfig+0x212>
 80080dc:	2310      	movs	r3, #16
 80080de:	77fb      	strb	r3, [r7, #31]
 80080e0:	e001      	b.n	80080e6 <UART_SetConfig+0x212>
 80080e2:	2310      	movs	r3, #16
 80080e4:	77fb      	strb	r3, [r7, #31]

  if (huart->Init.OverSampling == UART_OVERSAMPLING_8)
 80080e6:	687b      	ldr	r3, [r7, #4]
 80080e8:	69db      	ldr	r3, [r3, #28]
 80080ea:	f5b3 4f00 	cmp.w	r3, #32768	@ 0x8000
 80080ee:	d16b      	bne.n	80081c8 <UART_SetConfig+0x2f4>
  {
    switch (clocksource)
 80080f0:	7ffb      	ldrb	r3, [r7, #31]
 80080f2:	2b08      	cmp	r3, #8
 80080f4:	d838      	bhi.n	8008168 <UART_SetConfig+0x294>
 80080f6:	a201      	add	r2, pc, #4	@ (adr r2, 80080fc <UART_SetConfig+0x228>)
 80080f8:	f852 f023 	ldr.w	pc, [r2, r3, lsl #2]
 80080fc:	08008121 	.word	0x08008121
 8008100:	08008129 	.word	0x08008129
 8008104:	08008131 	.word	0x08008131
 8008108:	08008169 	.word	0x08008169
 800810c:	08008137 	.word	0x08008137
 8008110:	08008169 	.word	0x08008169
 8008114:	08008169 	.word	0x08008169
 8008118:	08008169 	.word	0x08008169
 800811c:	0800813f 	.word	0x0800813f
    {
      case UART_CLOCKSOURCE_PCLK1:
        pclk = HAL_RCC_GetPCLK1Freq();
 8008120:	f7ff fad8 	bl	80076d4 <HAL_RCC_GetPCLK1Freq>
 8008124:	61b8      	str	r0, [r7, #24]
        break;
 8008126:	e024      	b.n	8008172 <UART_SetConfig+0x29e>
      case UART_CLOCKSOURCE_PCLK2:
        pclk = HAL_RCC_GetPCLK2Freq();
 8008128:	f7ff faf6 	bl	8007718 <HAL_RCC_GetPCLK2Freq>
 800812c:	61b8      	str	r0, [r7, #24]
        break;
 800812e:	e020      	b.n	8008172 <UART_SetConfig+0x29e>
      case UART_CLOCKSOURCE_HSI:
        pclk = (uint32_t) HSI_VALUE;
 8008130:	4b0c      	ldr	r3, [pc, #48]	@ (8008164 <UART_SetConfig+0x290>)
 8008132:	61bb      	str	r3, [r7, #24]
        break;
 8008134:	e01d      	b.n	8008172 <UART_SetConfig+0x29e>
      case UART_CLOCKSOURCE_SYSCLK:
        pclk = HAL_RCC_GetSysClockFreq();
 8008136:	f7ff fa6f 	bl	8007618 <HAL_RCC_GetSysClockFreq>
 800813a:	61b8      	str	r0, [r7, #24]
        break;
 800813c:	e019      	b.n	8008172 <UART_SetConfig+0x29e>
      case UART_CLOCKSOURCE_LSE:
        pclk = (uint32_t) LSE_VALUE;
 800813e:	f44f 4300 	mov.w	r3, #32768	@ 0x8000
 8008142:	61bb      	str	r3, [r7, #24]
        break;
 8008144:	e015      	b.n	8008172 <UART_SetConfig+0x29e>
 8008146:	bf00      	nop
 8008148:	efff69f3 	.word	0xefff69f3
 800814c:	40013800 	.word	0x40013800
 8008150:	40021000 	.word	0x40021000
 8008154:	40004400 	.word	0x40004400
 8008158:	40004800 	.word	0x40004800
 800815c:	40004c00 	.word	0x40004c00
 8008160:	40005000 	.word	0x40005000
 8008164:	007a1200 	.word	0x007a1200
      default:
        pclk = 0U;
 8008168:	2300      	movs	r3, #0
 800816a:	61bb      	str	r3, [r7, #24]
        ret = HAL_ERROR;
 800816c:	2301      	movs	r3, #1
 800816e:	77bb      	strb	r3, [r7, #30]
        break;
 8008170:	bf00      	nop
    }

    /* USARTDIV must be greater than or equal to 0d16 */
    if (pclk != 0U)
 8008172:	69bb      	ldr	r3, [r7, #24]
 8008174:	2b00      	cmp	r3, #0
 8008176:	d073      	beq.n	8008260 <UART_SetConfig+0x38c>
    {
      usartdiv = (uint32_t)(UART_DIV_SAMPLING8(pclk, huart->Init.BaudRate));
 8008178:	69bb      	ldr	r3, [r7, #24]
 800817a:	005a      	lsls	r2, r3, #1
 800817c:	687b      	ldr	r3, [r7, #4]
 800817e:	685b      	ldr	r3, [r3, #4]
 8008180:	085b      	lsrs	r3, r3, #1
 8008182:	441a      	add	r2, r3
 8008184:	687b      	ldr	r3, [r7, #4]
 8008186:	685b      	ldr	r3, [r3, #4]
 8008188:	fbb2 f3f3 	udiv	r3, r2, r3
 800818c:	613b      	str	r3, [r7, #16]
      if ((usartdiv >= UART_BRR_MIN) && (usartdiv <= UART_BRR_MAX))
 800818e:	693b      	ldr	r3, [r7, #16]
 8008190:	2b0f      	cmp	r3, #15
 8008192:	d916      	bls.n	80081c2 <UART_SetConfig+0x2ee>
 8008194:	693b      	ldr	r3, [r7, #16]
 8008196:	f5b3 3f80 	cmp.w	r3, #65536	@ 0x10000
 800819a:	d212      	bcs.n	80081c2 <UART_SetConfig+0x2ee>
      {
        brrtemp = (uint16_t)(usartdiv & 0xFFF0U);
 800819c:	693b      	ldr	r3, [r7, #16]
 800819e:	b29b      	uxth	r3, r3
 80081a0:	f023 030f 	bic.w	r3, r3, #15
 80081a4:	81fb      	strh	r3, [r7, #14]
        brrtemp |= (uint16_t)((usartdiv & (uint16_t)0x000FU) >> 1U);
 80081a6:	693b      	ldr	r3, [r7, #16]
 80081a8:	085b      	lsrs	r3, r3, #1
 80081aa:	b29b      	uxth	r3, r3
 80081ac:	f003 0307 	and.w	r3, r3, #7
 80081b0:	b29a      	uxth	r2, r3
 80081b2:	89fb      	ldrh	r3, [r7, #14]
 80081b4:	4313      	orrs	r3, r2
 80081b6:	81fb      	strh	r3, [r7, #14]
        huart->Instance->BRR = brrtemp;
 80081b8:	687b      	ldr	r3, [r7, #4]
 80081ba:	681b      	ldr	r3, [r3, #0]
 80081bc:	89fa      	ldrh	r2, [r7, #14]
 80081be:	60da      	str	r2, [r3, #12]
 80081c0:	e04e      	b.n	8008260 <UART_SetConfig+0x38c>
      }
      else
      {
        ret = HAL_ERROR;
 80081c2:	2301      	movs	r3, #1
 80081c4:	77bb      	strb	r3, [r7, #30]
 80081c6:	e04b      	b.n	8008260 <UART_SetConfig+0x38c>
      }
    }
  }
  else
  {
    switch (clocksource)
 80081c8:	7ffb      	ldrb	r3, [r7, #31]
 80081ca:	2b08      	cmp	r3, #8
 80081cc:	d827      	bhi.n	800821e <UART_SetConfig+0x34a>
 80081ce:	a201      	add	r2, pc, #4	@ (adr r2, 80081d4 <UART_SetConfig+0x300>)
 80081d0:	f852 f023 	ldr.w	pc, [r2, r3, lsl #2]
 80081d4:	080081f9 	.word	0x080081f9
 80081d8:	08008201 	.word	0x08008201
 80081dc:	08008209 	.word	0x08008209
 80081e0:	0800821f 	.word	0x0800821f
 80081e4:	0800820f 	.word	0x0800820f
 80081e8:	0800821f 	.word	0x0800821f
 80081ec:	0800821f 	.word	0x0800821f
 80081f0:	0800821f 	.word	0x0800821f
 80081f4:	08008217 	.word	0x08008217
    {
      case UART_CLOCKSOURCE_PCLK1:
        pclk = HAL_RCC_GetPCLK1Freq();
 80081f8:	f7ff fa6c 	bl	80076d4 <HAL_RCC_GetPCLK1Freq>
 80081fc:	61b8      	str	r0, [r7, #24]
        break;
 80081fe:	e013      	b.n	8008228 <UART_SetConfig+0x354>
      case UART_CLOCKSOURCE_PCLK2:
        pclk = HAL_RCC_GetPCLK2Freq();
 8008200:	f7ff fa8a 	bl	8007718 <HAL_RCC_GetPCLK2Freq>
 8008204:	61b8      	str	r0, [r7, #24]
        break;
 8008206:	e00f      	b.n	8008228 <UART_SetConfig+0x354>
      case UART_CLOCKSOURCE_HSI:
        pclk = (uint32_t) HSI_VALUE;
 8008208:	4b1b      	ldr	r3, [pc, #108]	@ (8008278 <UART_SetConfig+0x3a4>)
 800820a:	61bb      	str	r3, [r7, #24]
        break;
 800820c:	e00c      	b.n	8008228 <UART_SetConfig+0x354>
      case UART_CLOCKSOURCE_SYSCLK:
        pclk = HAL_RCC_GetSysClockFreq();
 800820e:	f7ff fa03 	bl	8007618 <HAL_RCC_GetSysClockFreq>
 8008212:	61b8      	str	r0, [r7, #24]
        break;
 8008214:	e008      	b.n	8008228 <UART_SetConfig+0x354>
      case UART_CLOCKSOURCE_LSE:
        pclk = (uint32_t) LSE_VALUE;
 8008216:	f44f 4300 	mov.w	r3, #32768	@ 0x8000
 800821a:	61bb      	str	r3, [r7, #24]
        break;
 800821c:	e004      	b.n	8008228 <UART_SetConfig+0x354>
      default:
        pclk = 0U;
 800821e:	2300      	movs	r3, #0
 8008220:	61bb      	str	r3, [r7, #24]
        ret = HAL_ERROR;
 8008222:	2301      	movs	r3, #1
 8008224:	77bb      	strb	r3, [r7, #30]
        break;
 8008226:	bf00      	nop
    }

    if (pclk != 0U)
 8008228:	69bb      	ldr	r3, [r7, #24]
 800822a:	2b00      	cmp	r3, #0
 800822c:	d018      	beq.n	8008260 <UART_SetConfig+0x38c>
    {
      /* USARTDIV must be greater than or equal to 0d16 */
      usartdiv = (uint32_t)(UART_DIV_SAMPLING16(pclk, huart->Init.BaudRate));
 800822e:	687b      	ldr	r3, [r7, #4]
 8008230:	685b      	ldr	r3, [r3, #4]
 8008232:	085a      	lsrs	r2, r3, #1
 8008234:	69bb      	ldr	r3, [r7, #24]
 8008236:	441a      	add	r2, r3
 8008238:	687b      	ldr	r3, [r7, #4]
 800823a:	685b      	ldr	r3, [r3, #4]
 800823c:	fbb2 f3f3 	udiv	r3, r2, r3
 8008240:	613b      	str	r3, [r7, #16]
      if ((usartdiv >= UART_BRR_MIN) && (usartdiv <= UART_BRR_MAX))
 8008242:	693b      	ldr	r3, [r7, #16]
 8008244:	2b0f      	cmp	r3, #15
 8008246:	d909      	bls.n	800825c <UART_SetConfig+0x388>
 8008248:	693b      	ldr	r3, [r7, #16]
 800824a:	f5b3 3f80 	cmp.w	r3, #65536	@ 0x10000
 800824e:	d205      	bcs.n	800825c <UART_SetConfig+0x388>
      {
        huart->Instance->BRR = (uint16_t)usartdiv;
 8008250:	693b      	ldr	r3, [r7, #16]
 8008252:	b29a      	uxth	r2, r3
 8008254:	687b      	ldr	r3, [r7, #4]
 8008256:	681b      	ldr	r3, [r3, #0]
 8008258:	60da      	str	r2, [r3, #12]
 800825a:	e001      	b.n	8008260 <UART_SetConfig+0x38c>
      }
      else
      {
        ret = HAL_ERROR;
 800825c:	2301      	movs	r3, #1
 800825e:	77bb      	strb	r3, [r7, #30]
    }
  }


  /* Clear ISR function pointers */
  huart->RxISR = NULL;
 8008260:	687b      	ldr	r3, [r7, #4]
 8008262:	2200      	movs	r2, #0
 8008264:	669a      	str	r2, [r3, #104]	@ 0x68
  huart->TxISR = NULL;
 8008266:	687b      	ldr	r3, [r7, #4]
 8008268:	2200      	movs	r2, #0
 800826a:	66da      	str	r2, [r3, #108]	@ 0x6c

  return ret;
 800826c:	7fbb      	ldrb	r3, [r7, #30]
}
 800826e:	4618      	mov	r0, r3
 8008270:	3720      	adds	r7, #32
 8008272:	46bd      	mov	sp, r7
 8008274:	bd80      	pop	{r7, pc}
 8008276:	bf00      	nop
 8008278:	007a1200 	.word	0x007a1200

0800827c <UART_AdvFeatureConfig>:
  * @brief Configure the UART peripheral advanced features.
  * @param huart UART handle.
  * @retval None
  */
void UART_AdvFeatureConfig(UART_HandleTypeDef *huart)
{
 800827c:	b480      	push	{r7}
 800827e:	b083      	sub	sp, #12
 8008280:	af00      	add	r7, sp, #0
 8008282:	6078      	str	r0, [r7, #4]
  /* Check whether the set of advanced features to configure is properly set */
  assert_param(IS_UART_ADVFEATURE_INIT(huart->AdvancedInit.AdvFeatureInit));

  /* if required, configure RX/TX pins swap */
  if (HAL_IS_BIT_SET(huart->AdvancedInit.AdvFeatureInit, UART_ADVFEATURE_SWAP_INIT))
 8008284:	687b      	ldr	r3, [r7, #4]
 8008286:	6a5b      	ldr	r3, [r3, #36]	@ 0x24
 8008288:	f003 0308 	and.w	r3, r3, #8
 800828c:	2b00      	cmp	r3, #0
 800828e:	d00a      	beq.n	80082a6 <UART_AdvFeatureConfig+0x2a>
  {
    assert_param(IS_UART_ADVFEATURE_SWAP(huart->AdvancedInit.Swap));
    MODIFY_REG(huart->Instance->CR2, USART_CR2_SWAP, huart->AdvancedInit.Swap);
 8008290:	687b      	ldr	r3, [r7, #4]
 8008292:	681b      	ldr	r3, [r3, #0]
 8008294:	685b      	ldr	r3, [r3, #4]
 8008296:	f423 4100 	bic.w	r1, r3, #32768	@ 0x8000
 800829a:	687b      	ldr	r3, [r7, #4]
 800829c:	6b5a      	ldr	r2, [r3, #52]	@ 0x34
 800829e:	687b      	ldr	r3, [r7, #4]
 80082a0:	681b      	ldr	r3, [r3, #0]
 80082a2:	430a      	orrs	r2, r1
 80082a4:	605a      	str	r2, [r3, #4]
  }

  /* if required, configure TX pin active level inversion */
  if (HAL_IS_BIT_SET(huart->AdvancedInit.AdvFeatureInit, UART_ADVFEATURE_TXINVERT_INIT))
 80082a6:	687b      	ldr	r3, [r7, #4]
 80082a8:	6a5b      	ldr	r3, [r3, #36]	@ 0x24
 80082aa:	f003 0301 	and.w	r3, r3, #1
 80082ae:	2b00      	cmp	r3, #0
 80082b0:	d00a      	beq.n	80082c8 <UART_AdvFeatureConfig+0x4c>
  {
    assert_param(IS_UART_ADVFEATURE_TXINV(huart->AdvancedInit.TxPinLevelInvert));
    MODIFY_REG(huart->Instance->CR2, USART_CR2_TXINV, huart->AdvancedInit.TxPinLevelInvert);
 80082b2:	687b      	ldr	r3, [r7, #4]
 80082b4:	681b      	ldr	r3, [r3, #0]
 80082b6:	685b      	ldr	r3, [r3, #4]
 80082b8:	f423 3100 	bic.w	r1, r3, #131072	@ 0x20000
 80082bc:	687b      	ldr	r3, [r7, #4]
 80082be:	6a9a      	ldr	r2, [r3, #40]	@ 0x28
 80082c0:	687b      	ldr	r3, [r7, #4]
 80082c2:	681b      	ldr	r3, [r3, #0]
 80082c4:	430a      	orrs	r2, r1
 80082c6:	605a      	str	r2, [r3, #4]
  }

  /* if required, configure RX pin active level inversion */
  if (HAL_IS_BIT_SET(huart->AdvancedInit.AdvFeatureInit, UART_ADVFEATURE_RXINVERT_INIT))
 80082c8:	687b      	ldr	r3, [r7, #4]
 80082ca:	6a5b      	ldr	r3, [r3, #36]	@ 0x24
 80082cc:	f003 0302 	and.w	r3, r3, #2
 80082d0:	2b00      	cmp	r3, #0
 80082d2:	d00a      	beq.n	80082ea <UART_AdvFeatureConfig+0x6e>
  {
    assert_param(IS_UART_ADVFEATURE_RXINV(huart->AdvancedInit.RxPinLevelInvert));
    MODIFY_REG(huart->Instance->CR2, USART_CR2_RXINV, huart->AdvancedInit.RxPinLevelInvert);
 80082d4:	687b      	ldr	r3, [r7, #4]
 80082d6:	681b      	ldr	r3, [r3, #0]
 80082d8:	685b      	ldr	r3, [r3, #4]
 80082da:	f423 3180 	bic.w	r1, r3, #65536	@ 0x10000
 80082de:	687b      	ldr	r3, [r7, #4]
 80082e0:	6ada      	ldr	r2, [r3, #44]	@ 0x2c
 80082e2:	687b      	ldr	r3, [r7, #4]
 80082e4:	681b      	ldr	r3, [r3, #0]
 80082e6:	430a      	orrs	r2, r1
 80082e8:	605a      	str	r2, [r3, #4]
  }

  /* if required, configure data inversion */
  if (HAL_IS_BIT_SET(huart->AdvancedInit.AdvFeatureInit, UART_ADVFEATURE_DATAINVERT_INIT))
 80082ea:	687b      	ldr	r3, [r7, #4]
 80082ec:	6a5b      	ldr	r3, [r3, #36]	@ 0x24
 80082ee:	f003 0304 	and.w	r3, r3, #4
 80082f2:	2b00      	cmp	r3, #0
 80082f4:	d00a      	beq.n	800830c <UART_AdvFeatureConfig+0x90>
  {
    assert_param(IS_UART_ADVFEATURE_DATAINV(huart->AdvancedInit.DataInvert));
    MODIFY_REG(huart->Instance->CR2, USART_CR2_DATAINV, huart->AdvancedInit.DataInvert);
 80082f6:	687b      	ldr	r3, [r7, #4]
 80082f8:	681b      	ldr	r3, [r3, #0]
 80082fa:	685b      	ldr	r3, [r3, #4]
 80082fc:	f423 2180 	bic.w	r1, r3, #262144	@ 0x40000
 8008300:	687b      	ldr	r3, [r7, #4]
 8008302:	6b1a      	ldr	r2, [r3, #48]	@ 0x30
 8008304:	687b      	ldr	r3, [r7, #4]
 8008306:	681b      	ldr	r3, [r3, #0]
 8008308:	430a      	orrs	r2, r1
 800830a:	605a      	str	r2, [r3, #4]
  }

  /* if required, configure RX overrun detection disabling */
  if (HAL_IS_BIT_SET(huart->AdvancedInit.AdvFeatureInit, UART_ADVFEATURE_RXOVERRUNDISABLE_INIT))
 800830c:	687b      	ldr	r3, [r7, #4]
 800830e:	6a5b      	ldr	r3, [r3, #36]	@ 0x24
 8008310:	f003 0310 	and.w	r3, r3, #16
 8008314:	2b00      	cmp	r3, #0
 8008316:	d00a      	beq.n	800832e <UART_AdvFeatureConfig+0xb2>
  {
    assert_param(IS_UART_OVERRUN(huart->AdvancedInit.OverrunDisable));
    MODIFY_REG(huart->Instance->CR3, USART_CR3_OVRDIS, huart->AdvancedInit.OverrunDisable);
 8008318:	687b      	ldr	r3, [r7, #4]
 800831a:	681b      	ldr	r3, [r3, #0]
 800831c:	689b      	ldr	r3, [r3, #8]
 800831e:	f423 5180 	bic.w	r1, r3, #4096	@ 0x1000
 8008322:	687b      	ldr	r3, [r7, #4]
 8008324:	6b9a      	ldr	r2, [r3, #56]	@ 0x38
 8008326:	687b      	ldr	r3, [r7, #4]
 8008328:	681b      	ldr	r3, [r3, #0]
 800832a:	430a      	orrs	r2, r1
 800832c:	609a      	str	r2, [r3, #8]
  }

  /* if required, configure DMA disabling on reception error */
  if (HAL_IS_BIT_SET(huart->AdvancedInit.AdvFeatureInit, UART_ADVFEATURE_DMADISABLEONERROR_INIT))
 800832e:	687b      	ldr	r3, [r7, #4]
 8008330:	6a5b      	ldr	r3, [r3, #36]	@ 0x24
 8008332:	f003 0320 	and.w	r3, r3, #32
 8008336:	2b00      	cmp	r3, #0
 8008338:	d00a      	beq.n	8008350 <UART_AdvFeatureConfig+0xd4>
  {
    assert_param(IS_UART_ADVFEATURE_DMAONRXERROR(huart->AdvancedInit.DMADisableonRxError));
    MODIFY_REG(huart->Instance->CR3, USART_CR3_DDRE, huart->AdvancedInit.DMADisableonRxError);
 800833a:	687b      	ldr	r3, [r7, #4]
 800833c:	681b      	ldr	r3, [r3, #0]
 800833e:	689b      	ldr	r3, [r3, #8]
 8008340:	f423 5100 	bic.w	r1, r3, #8192	@ 0x2000
 8008344:	687b      	ldr	r3, [r7, #4]
 8008346:	6bda      	ldr	r2, [r3, #60]	@ 0x3c
 8008348:	687b      	ldr	r3, [r7, #4]
 800834a:	681b      	ldr	r3, [r3, #0]
 800834c:	430a      	orrs	r2, r1
 800834e:	609a      	str	r2, [r3, #8]
  }

  /* if required, configure auto Baud rate detection scheme */
  if (HAL_IS_BIT_SET(huart->AdvancedInit.AdvFeatureInit, UART_ADVFEATURE_AUTOBAUDRATE_INIT))
 8008350:	687b      	ldr	r3, [r7, #4]
 8008352:	6a5b      	ldr	r3, [r3, #36]	@ 0x24
 8008354:	f003 0340 	and.w	r3, r3, #64	@ 0x40
 8008358:	2b00      	cmp	r3, #0
 800835a:	d01a      	beq.n	8008392 <UART_AdvFeatureConfig+0x116>
  {
    assert_param(IS_USART_AUTOBAUDRATE_DETECTION_INSTANCE(huart->Instance));
    assert_param(IS_UART_ADVFEATURE_AUTOBAUDRATE(huart->AdvancedInit.AutoBaudRateEnable));
    MODIFY_REG(huart->Instance->CR2, USART_CR2_ABREN, huart->AdvancedInit.AutoBaudRateEnable);
 800835c:	687b      	ldr	r3, [r7, #4]
 800835e:	681b      	ldr	r3, [r3, #0]
 8008360:	685b      	ldr	r3, [r3, #4]
 8008362:	f423 1180 	bic.w	r1, r3, #1048576	@ 0x100000
 8008366:	687b      	ldr	r3, [r7, #4]
 8008368:	6c1a      	ldr	r2, [r3, #64]	@ 0x40
 800836a:	687b      	ldr	r3, [r7, #4]
 800836c:	681b      	ldr	r3, [r3, #0]
 800836e:	430a      	orrs	r2, r1
 8008370:	605a      	str	r2, [r3, #4]
    /* set auto Baudrate detection parameters if detection is enabled */
    if (huart->AdvancedInit.AutoBaudRateEnable == UART_ADVFEATURE_AUTOBAUDRATE_ENABLE)
 8008372:	687b      	ldr	r3, [r7, #4]
 8008374:	6c1b      	ldr	r3, [r3, #64]	@ 0x40
 8008376:	f5b3 1f80 	cmp.w	r3, #1048576	@ 0x100000
 800837a:	d10a      	bne.n	8008392 <UART_AdvFeatureConfig+0x116>
    {
      assert_param(IS_UART_ADVFEATURE_AUTOBAUDRATEMODE(huart->AdvancedInit.AutoBaudRateMode));
      MODIFY_REG(huart->Instance->CR2, USART_CR2_ABRMODE, huart->AdvancedInit.AutoBaudRateMode);
 800837c:	687b      	ldr	r3, [r7, #4]
 800837e:	681b      	ldr	r3, [r3, #0]
 8008380:	685b      	ldr	r3, [r3, #4]
 8008382:	f423 01c0 	bic.w	r1, r3, #6291456	@ 0x600000
 8008386:	687b      	ldr	r3, [r7, #4]
 8008388:	6c5a      	ldr	r2, [r3, #68]	@ 0x44
 800838a:	687b      	ldr	r3, [r7, #4]
 800838c:	681b      	ldr	r3, [r3, #0]
 800838e:	430a      	orrs	r2, r1
 8008390:	605a      	str	r2, [r3, #4]
    }
  }

  /* if required, configure MSB first on communication line */
  if (HAL_IS_BIT_SET(huart->AdvancedInit.AdvFeatureInit, UART_ADVFEATURE_MSBFIRST_INIT))
 8008392:	687b      	ldr	r3, [r7, #4]
 8008394:	6a5b      	ldr	r3, [r3, #36]	@ 0x24
 8008396:	f003 0380 	and.w	r3, r3, #128	@ 0x80
 800839a:	2b00      	cmp	r3, #0
 800839c:	d00a      	beq.n	80083b4 <UART_AdvFeatureConfig+0x138>
  {
    assert_param(IS_UART_ADVFEATURE_MSBFIRST(huart->AdvancedInit.MSBFirst));
    MODIFY_REG(huart->Instance->CR2, USART_CR2_MSBFIRST, huart->AdvancedInit.MSBFirst);
 800839e:	687b      	ldr	r3, [r7, #4]
 80083a0:	681b      	ldr	r3, [r3, #0]
 80083a2:	685b      	ldr	r3, [r3, #4]
 80083a4:	f423 2100 	bic.w	r1, r3, #524288	@ 0x80000
 80083a8:	687b      	ldr	r3, [r7, #4]
 80083aa:	6c9a      	ldr	r2, [r3, #72]	@ 0x48
 80083ac:	687b      	ldr	r3, [r7, #4]
 80083ae:	681b      	ldr	r3, [r3, #0]
 80083b0:	430a      	orrs	r2, r1
 80083b2:	605a      	str	r2, [r3, #4]
  }
}
 80083b4:	bf00      	nop
 80083b6:	370c      	adds	r7, #12
 80083b8:	46bd      	mov	sp, r7
 80083ba:	bc80      	pop	{r7}
 80083bc:	4770      	bx	lr

080083be <UART_CheckIdleState>:
  * @brief Check the UART Idle State.
  * @param huart UART handle.
  * @retval HAL status
  */
HAL_StatusTypeDef UART_CheckIdleState(UART_HandleTypeDef *huart)
{
 80083be:	b580      	push	{r7, lr}
 80083c0:	b098      	sub	sp, #96	@ 0x60
 80083c2:	af02      	add	r7, sp, #8
 80083c4:	6078      	str	r0, [r7, #4]
  uint32_t tickstart;

  /* Initialize the UART ErrorCode */
  huart->ErrorCode = HAL_UART_ERROR_NONE;
 80083c6:	687b      	ldr	r3, [r7, #4]
 80083c8:	2200      	movs	r2, #0
 80083ca:	f8c3 2084 	str.w	r2, [r3, #132]	@ 0x84

  /* Init tickstart for timeout management */
  tickstart = HAL_GetTick();
 80083ce:	f7fd fa21 	bl	8005814 <HAL_GetTick>
 80083d2:	6578      	str	r0, [r7, #84]	@ 0x54

  /* Check if the Transmitter is enabled */
  if ((huart->Instance->CR1 & USART_CR1_TE) == USART_CR1_TE)
 80083d4:	687b      	ldr	r3, [r7, #4]
 80083d6:	681b      	ldr	r3, [r3, #0]
 80083d8:	681b      	ldr	r3, [r3, #0]
 80083da:	f003 0308 	and.w	r3, r3, #8
 80083de:	2b08      	cmp	r3, #8
 80083e0:	d12e      	bne.n	8008440 <UART_CheckIdleState+0x82>
  {
    /* Wait until TEACK flag is set */
    if (UART_WaitOnFlagUntilTimeout(huart, USART_ISR_TEACK, RESET, tickstart, HAL_UART_TIMEOUT_VALUE) != HAL_OK)
 80083e2:	f06f 437e 	mvn.w	r3, #4261412864	@ 0xfe000000
 80083e6:	9300      	str	r3, [sp, #0]
 80083e8:	6d7b      	ldr	r3, [r7, #84]	@ 0x54
 80083ea:	2200      	movs	r2, #0
 80083ec:	f44f 1100 	mov.w	r1, #2097152	@ 0x200000
 80083f0:	6878      	ldr	r0, [r7, #4]
 80083f2:	f000 f88c 	bl	800850e <UART_WaitOnFlagUntilTimeout>
 80083f6:	4603      	mov	r3, r0
 80083f8:	2b00      	cmp	r3, #0
 80083fa:	d021      	beq.n	8008440 <UART_CheckIdleState+0x82>
    {
      /* Disable TXE interrupt for the interrupt process */
      ATOMIC_CLEAR_BIT(huart->Instance->CR1, (USART_CR1_TXEIE));
 80083fc:	687b      	ldr	r3, [r7, #4]
 80083fe:	681b      	ldr	r3, [r3, #0]
 8008400:	63bb      	str	r3, [r7, #56]	@ 0x38
 */
__STATIC_FORCEINLINE uint32_t __LDREXW(volatile uint32_t *addr)
{
    uint32_t result;

   __ASM volatile ("ldrex %0, %1" : "=r" (result) : "Q" (*addr) );
 8008402:	6bbb      	ldr	r3, [r7, #56]	@ 0x38
 8008404:	e853 3f00 	ldrex	r3, [r3]
 8008408:	637b      	str	r3, [r7, #52]	@ 0x34
   return(result);
 800840a:	6b7b      	ldr	r3, [r7, #52]	@ 0x34
 800840c:	f023 0380 	bic.w	r3, r3, #128	@ 0x80
 8008410:	653b      	str	r3, [r7, #80]	@ 0x50
 8008412:	687b      	ldr	r3, [r7, #4]
 8008414:	681b      	ldr	r3, [r3, #0]
 8008416:	461a      	mov	r2, r3
 8008418:	6d3b      	ldr	r3, [r7, #80]	@ 0x50
 800841a:	647b      	str	r3, [r7, #68]	@ 0x44
 800841c:	643a      	str	r2, [r7, #64]	@ 0x40
 */
__STATIC_FORCEINLINE uint32_t __STREXW(uint32_t value, volatile uint32_t *addr)
{
   uint32_t result;

   __ASM volatile ("strex %0, %2, %1" : "=&r" (result), "=Q" (*addr) : "r" (value) );
 800841e:	6c39      	ldr	r1, [r7, #64]	@ 0x40
 8008420:	6c7a      	ldr	r2, [r7, #68]	@ 0x44
 8008422:	e841 2300 	strex	r3, r2, [r1]
 8008426:	63fb      	str	r3, [r7, #60]	@ 0x3c
   return(result);
 8008428:	6bfb      	ldr	r3, [r7, #60]	@ 0x3c
 800842a:	2b00      	cmp	r3, #0
 800842c:	d1e6      	bne.n	80083fc <UART_CheckIdleState+0x3e>

      huart->gState = HAL_UART_STATE_READY;
 800842e:	687b      	ldr	r3, [r7, #4]
 8008430:	2220      	movs	r2, #32
 8008432:	67da      	str	r2, [r3, #124]	@ 0x7c

      __HAL_UNLOCK(huart);
 8008434:	687b      	ldr	r3, [r7, #4]
 8008436:	2200      	movs	r2, #0
 8008438:	f883 2078 	strb.w	r2, [r3, #120]	@ 0x78

      /* Timeout occurred */
      return HAL_TIMEOUT;
 800843c:	2303      	movs	r3, #3
 800843e:	e062      	b.n	8008506 <UART_CheckIdleState+0x148>
    }
  }

  /* Check if the Receiver is enabled */
  if ((huart->Instance->CR1 & USART_CR1_RE) == USART_CR1_RE)
 8008440:	687b      	ldr	r3, [r7, #4]
 8008442:	681b      	ldr	r3, [r3, #0]
 8008444:	681b      	ldr	r3, [r3, #0]
 8008446:	f003 0304 	and.w	r3, r3, #4
 800844a:	2b04      	cmp	r3, #4
 800844c:	d149      	bne.n	80084e2 <UART_CheckIdleState+0x124>
  {
    /* Wait until REACK flag is set */
    if (UART_WaitOnFlagUntilTimeout(huart, USART_ISR_REACK, RESET, tickstart, HAL_UART_TIMEOUT_VALUE) != HAL_OK)
 800844e:	f06f 437e 	mvn.w	r3, #4261412864	@ 0xfe000000
 8008452:	9300      	str	r3, [sp, #0]
 8008454:	6d7b      	ldr	r3, [r7, #84]	@ 0x54
 8008456:	2200      	movs	r2, #0
 8008458:	f44f 0180 	mov.w	r1, #4194304	@ 0x400000
 800845c:	6878      	ldr	r0, [r7, #4]
 800845e:	f000 f856 	bl	800850e <UART_WaitOnFlagUntilTimeout>
 8008462:	4603      	mov	r3, r0
 8008464:	2b00      	cmp	r3, #0
 8008466:	d03c      	beq.n	80084e2 <UART_CheckIdleState+0x124>
    {
      /* Disable RXNE, PE and ERR (Frame error, noise error, overrun error)
      interrupts for the interrupt process */
      ATOMIC_CLEAR_BIT(huart->Instance->CR1, (USART_CR1_RXNEIE | USART_CR1_PEIE));
 8008468:	687b      	ldr	r3, [r7, #4]
 800846a:	681b      	ldr	r3, [r3, #0]
 800846c:	627b      	str	r3, [r7, #36]	@ 0x24
   __ASM volatile ("ldrex %0, %1" : "=r" (result) : "Q" (*addr) );
 800846e:	6a7b      	ldr	r3, [r7, #36]	@ 0x24
 8008470:	e853 3f00 	ldrex	r3, [r3]
 8008474:	623b      	str	r3, [r7, #32]
   return(result);
 8008476:	6a3b      	ldr	r3, [r7, #32]
 8008478:	f423 7390 	bic.w	r3, r3, #288	@ 0x120
 800847c:	64fb      	str	r3, [r7, #76]	@ 0x4c
 800847e:	687b      	ldr	r3, [r7, #4]
 8008480:	681b      	ldr	r3, [r3, #0]
 8008482:	461a      	mov	r2, r3
 8008484:	6cfb      	ldr	r3, [r7, #76]	@ 0x4c
 8008486:	633b      	str	r3, [r7, #48]	@ 0x30
 8008488:	62fa      	str	r2, [r7, #44]	@ 0x2c
   __ASM volatile ("strex %0, %2, %1" : "=&r" (result), "=Q" (*addr) : "r" (value) );
 800848a:	6af9      	ldr	r1, [r7, #44]	@ 0x2c
 800848c:	6b3a      	ldr	r2, [r7, #48]	@ 0x30
 800848e:	e841 2300 	strex	r3, r2, [r1]
 8008492:	62bb      	str	r3, [r7, #40]	@ 0x28
   return(result);
 8008494:	6abb      	ldr	r3, [r7, #40]	@ 0x28
 8008496:	2b00      	cmp	r3, #0
 8008498:	d1e6      	bne.n	8008468 <UART_CheckIdleState+0xaa>
      ATOMIC_CLEAR_BIT(huart->Instance->CR3, USART_CR3_EIE);
 800849a:	687b      	ldr	r3, [r7, #4]
 800849c:	681b      	ldr	r3, [r3, #0]
 800849e:	3308      	adds	r3, #8
 80084a0:	613b      	str	r3, [r7, #16]
   __ASM volatile ("ldrex %0, %1" : "=r" (result) : "Q" (*addr) );
 80084a2:	693b      	ldr	r3, [r7, #16]
 80084a4:	e853 3f00 	ldrex	r3, [r3]
 80084a8:	60fb      	str	r3, [r7, #12]
   return(result);
 80084aa:	68fb      	ldr	r3, [r7, #12]
 80084ac:	f023 0301 	bic.w	r3, r3, #1
 80084b0:	64bb      	str	r3, [r7, #72]	@ 0x48
 80084b2:	687b      	ldr	r3, [r7, #4]
 80084b4:	681b      	ldr	r3, [r3, #0]
 80084b6:	3308      	adds	r3, #8
 80084b8:	6cba      	ldr	r2, [r7, #72]	@ 0x48
 80084ba:	61fa      	str	r2, [r7, #28]
 80084bc:	61bb      	str	r3, [r7, #24]
   __ASM volatile ("strex %0, %2, %1" : "=&r" (result), "=Q" (*addr) : "r" (value) );
 80084be:	69b9      	ldr	r1, [r7, #24]
 80084c0:	69fa      	ldr	r2, [r7, #28]
 80084c2:	e841 2300 	strex	r3, r2, [r1]
 80084c6:	617b      	str	r3, [r7, #20]
   return(result);
 80084c8:	697b      	ldr	r3, [r7, #20]
 80084ca:	2b00      	cmp	r3, #0
 80084cc:	d1e5      	bne.n	800849a <UART_CheckIdleState+0xdc>

      huart->RxState = HAL_UART_STATE_READY;
 80084ce:	687b      	ldr	r3, [r7, #4]
 80084d0:	2220      	movs	r2, #32
 80084d2:	f8c3 2080 	str.w	r2, [r3, #128]	@ 0x80

      __HAL_UNLOCK(huart);
 80084d6:	687b      	ldr	r3, [r7, #4]
 80084d8:	2200      	movs	r2, #0
 80084da:	f883 2078 	strb.w	r2, [r3, #120]	@ 0x78

      /* Timeout occurred */
      return HAL_TIMEOUT;
 80084de:	2303      	movs	r3, #3
 80084e0:	e011      	b.n	8008506 <UART_CheckIdleState+0x148>
    }
  }

  /* Initialize the UART State */
  huart->gState = HAL_UART_STATE_READY;
 80084e2:	687b      	ldr	r3, [r7, #4]
 80084e4:	2220      	movs	r2, #32
 80084e6:	67da      	str	r2, [r3, #124]	@ 0x7c
  huart->RxState = HAL_UART_STATE_READY;
 80084e8:	687b      	ldr	r3, [r7, #4]
 80084ea:	2220      	movs	r2, #32
 80084ec:	f8c3 2080 	str.w	r2, [r3, #128]	@ 0x80
  huart->ReceptionType = HAL_UART_RECEPTION_STANDARD;
 80084f0:	687b      	ldr	r3, [r7, #4]
 80084f2:	2200      	movs	r2, #0
 80084f4:	661a      	str	r2, [r3, #96]	@ 0x60
  huart->RxEventType = HAL_UART_RXEVENT_TC;
 80084f6:	687b      	ldr	r3, [r7, #4]
 80084f8:	2200      	movs	r2, #0
 80084fa:	665a      	str	r2, [r3, #100]	@ 0x64

  __HAL_UNLOCK(huart);
 80084fc:	687b      	ldr	r3, [r7, #4]
 80084fe:	2200      	movs	r2, #0
 8008500:	f883 2078 	strb.w	r2, [r3, #120]	@ 0x78

  return HAL_OK;
 8008504:	2300      	movs	r3, #0
}
 8008506:	4618      	mov	r0, r3
 8008508:	3758      	adds	r7, #88	@ 0x58
 800850a:	46bd      	mov	sp, r7
 800850c:	bd80      	pop	{r7, pc}

0800850e <UART_WaitOnFlagUntilTimeout>:
  * @param Timeout   Timeout duration
  * @retval HAL status
  */
HAL_StatusTypeDef UART_WaitOnFlagUntilTimeout(UART_HandleTypeDef *huart, uint32_t Flag, FlagStatus Status,
                                              uint32_t Tickstart, uint32_t Timeout)
{
 800850e:	b580      	push	{r7, lr}
 8008510:	b084      	sub	sp, #16
 8008512:	af00      	add	r7, sp, #0
 8008514:	60f8      	str	r0, [r7, #12]
 8008516:	60b9      	str	r1, [r7, #8]
 8008518:	603b      	str	r3, [r7, #0]
 800851a:	4613      	mov	r3, r2
 800851c:	71fb      	strb	r3, [r7, #7]
  /* Wait until flag is set */
  while ((__HAL_UART_GET_FLAG(huart, Flag) ? SET : RESET) == Status)
 800851e:	e04f      	b.n	80085c0 <UART_WaitOnFlagUntilTimeout+0xb2>
  {
    /* Check for the Timeout */
    if (Timeout != HAL_MAX_DELAY)
 8008520:	69bb      	ldr	r3, [r7, #24]
 8008522:	f1b3 3fff 	cmp.w	r3, #4294967295
 8008526:	d04b      	beq.n	80085c0 <UART_WaitOnFlagUntilTimeout+0xb2>
    {
      if (((HAL_GetTick() - Tickstart) > Timeout) || (Timeout == 0U))
 8008528:	f7fd f974 	bl	8005814 <HAL_GetTick>
 800852c:	4602      	mov	r2, r0
 800852e:	683b      	ldr	r3, [r7, #0]
 8008530:	1ad3      	subs	r3, r2, r3
 8008532:	69ba      	ldr	r2, [r7, #24]
 8008534:	429a      	cmp	r2, r3
 8008536:	d302      	bcc.n	800853e <UART_WaitOnFlagUntilTimeout+0x30>
 8008538:	69bb      	ldr	r3, [r7, #24]
 800853a:	2b00      	cmp	r3, #0
 800853c:	d101      	bne.n	8008542 <UART_WaitOnFlagUntilTimeout+0x34>
      {

        return HAL_TIMEOUT;
 800853e:	2303      	movs	r3, #3
 8008540:	e04e      	b.n	80085e0 <UART_WaitOnFlagUntilTimeout+0xd2>
      }

      if ((READ_BIT(huart->Instance->CR1, USART_CR1_RE) != 0U) && (Flag != UART_FLAG_TXE) && (Flag != UART_FLAG_TC))
 8008542:	68fb      	ldr	r3, [r7, #12]
 8008544:	681b      	ldr	r3, [r3, #0]
 8008546:	681b      	ldr	r3, [r3, #0]
 8008548:	f003 0304 	and.w	r3, r3, #4
 800854c:	2b00      	cmp	r3, #0
 800854e:	d037      	beq.n	80085c0 <UART_WaitOnFlagUntilTimeout+0xb2>
 8008550:	68bb      	ldr	r3, [r7, #8]
 8008552:	2b80      	cmp	r3, #128	@ 0x80
 8008554:	d034      	beq.n	80085c0 <UART_WaitOnFlagUntilTimeout+0xb2>
 8008556:	68bb      	ldr	r3, [r7, #8]
 8008558:	2b40      	cmp	r3, #64	@ 0x40
 800855a:	d031      	beq.n	80085c0 <UART_WaitOnFlagUntilTimeout+0xb2>
      {
        if (__HAL_UART_GET_FLAG(huart, UART_FLAG_ORE) == SET)
 800855c:	68fb      	ldr	r3, [r7, #12]
 800855e:	681b      	ldr	r3, [r3, #0]
 8008560:	69db      	ldr	r3, [r3, #28]
 8008562:	f003 0308 	and.w	r3, r3, #8
 8008566:	2b08      	cmp	r3, #8
 8008568:	d110      	bne.n	800858c <UART_WaitOnFlagUntilTimeout+0x7e>
        {
          /* Clear Overrun Error flag*/
          __HAL_UART_CLEAR_FLAG(huart, UART_CLEAR_OREF);
 800856a:	68fb      	ldr	r3, [r7, #12]
 800856c:	681b      	ldr	r3, [r3, #0]
 800856e:	2208      	movs	r2, #8
 8008570:	621a      	str	r2, [r3, #32]

          /* Blocking error : transfer is aborted
          Set the UART state ready to be able to start again the process,
          Disable Rx Interrupts if ongoing */
          UART_EndRxTransfer(huart);
 8008572:	68f8      	ldr	r0, [r7, #12]
 8008574:	f000 f838 	bl	80085e8 <UART_EndRxTransfer>

          huart->ErrorCode = HAL_UART_ERROR_ORE;
 8008578:	68fb      	ldr	r3, [r7, #12]
 800857a:	2208      	movs	r2, #8
 800857c:	f8c3 2084 	str.w	r2, [r3, #132]	@ 0x84

          /* Process Unlocked */
          __HAL_UNLOCK(huart);
 8008580:	68fb      	ldr	r3, [r7, #12]
 8008582:	2200      	movs	r2, #0
 8008584:	f883 2078 	strb.w	r2, [r3, #120]	@ 0x78

          return HAL_ERROR;
 8008588:	2301      	movs	r3, #1
 800858a:	e029      	b.n	80085e0 <UART_WaitOnFlagUntilTimeout+0xd2>
        }
        if (__HAL_UART_GET_FLAG(huart, UART_FLAG_RTOF) == SET)
 800858c:	68fb      	ldr	r3, [r7, #12]
 800858e:	681b      	ldr	r3, [r3, #0]
 8008590:	69db      	ldr	r3, [r3, #28]
 8008592:	f403 6300 	and.w	r3, r3, #2048	@ 0x800
 8008596:	f5b3 6f00 	cmp.w	r3, #2048	@ 0x800
 800859a:	d111      	bne.n	80085c0 <UART_WaitOnFlagUntilTimeout+0xb2>
        {
          /* Clear Receiver Timeout flag*/
          __HAL_UART_CLEAR_FLAG(huart, UART_CLEAR_RTOF);
 800859c:	68fb      	ldr	r3, [r7, #12]
 800859e:	681b      	ldr	r3, [r3, #0]
 80085a0:	f44f 6200 	mov.w	r2, #2048	@ 0x800
 80085a4:	621a      	str	r2, [r3, #32]

          /* Blocking error : transfer is aborted
          Set the UART state ready to be able to start again the process,
          Disable Rx Interrupts if ongoing */
          UART_EndRxTransfer(huart);
 80085a6:	68f8      	ldr	r0, [r7, #12]
 80085a8:	f000 f81e 	bl	80085e8 <UART_EndRxTransfer>

          huart->ErrorCode = HAL_UART_ERROR_RTO;
 80085ac:	68fb      	ldr	r3, [r7, #12]
 80085ae:	2220      	movs	r2, #32
 80085b0:	f8c3 2084 	str.w	r2, [r3, #132]	@ 0x84

          /* Process Unlocked */
          __HAL_UNLOCK(huart);
 80085b4:	68fb      	ldr	r3, [r7, #12]
 80085b6:	2200      	movs	r2, #0
 80085b8:	f883 2078 	strb.w	r2, [r3, #120]	@ 0x78

          return HAL_TIMEOUT;
 80085bc:	2303      	movs	r3, #3
 80085be:	e00f      	b.n	80085e0 <UART_WaitOnFlagUntilTimeout+0xd2>
  while ((__HAL_UART_GET_FLAG(huart, Flag) ? SET : RESET) == Status)
 80085c0:	68fb      	ldr	r3, [r7, #12]
 80085c2:	681b      	ldr	r3, [r3, #0]
 80085c4:	69da      	ldr	r2, [r3, #28]
 80085c6:	68bb      	ldr	r3, [r7, #8]
 80085c8:	4013      	ands	r3, r2
 80085ca:	68ba      	ldr	r2, [r7, #8]
 80085cc:	429a      	cmp	r2, r3
 80085ce:	bf0c      	ite	eq
 80085d0:	2301      	moveq	r3, #1
 80085d2:	2300      	movne	r3, #0
 80085d4:	b2db      	uxtb	r3, r3
 80085d6:	461a      	mov	r2, r3
 80085d8:	79fb      	ldrb	r3, [r7, #7]
 80085da:	429a      	cmp	r2, r3
 80085dc:	d0a0      	beq.n	8008520 <UART_WaitOnFlagUntilTimeout+0x12>
        }
      }
    }
  }
  return HAL_OK;
 80085de:	2300      	movs	r3, #0
}
 80085e0:	4618      	mov	r0, r3
 80085e2:	3710      	adds	r7, #16
 80085e4:	46bd      	mov	sp, r7
 80085e6:	bd80      	pop	{r7, pc}

080085e8 <UART_EndRxTransfer>:
  * @brief  End ongoing Rx transfer on UART peripheral (following error detection or Reception completion).
  * @param  huart UART handle.
  * @retval None
  */
static void UART_EndRxTransfer(UART_HandleTypeDef *huart)
{
 80085e8:	b480      	push	{r7}
 80085ea:	b095      	sub	sp, #84	@ 0x54
 80085ec:	af00      	add	r7, sp, #0
 80085ee:	6078      	str	r0, [r7, #4]
  /* Disable RXNE, PE and ERR (Frame error, noise error, overrun error) interrupts */
  ATOMIC_CLEAR_BIT(huart->Instance->CR1, (USART_CR1_RXNEIE | USART_CR1_PEIE));
 80085f0:	687b      	ldr	r3, [r7, #4]
 80085f2:	681b      	ldr	r3, [r3, #0]
 80085f4:	637b      	str	r3, [r7, #52]	@ 0x34
   __ASM volatile ("ldrex %0, %1" : "=r" (result) : "Q" (*addr) );
 80085f6:	6b7b      	ldr	r3, [r7, #52]	@ 0x34
 80085f8:	e853 3f00 	ldrex	r3, [r3]
 80085fc:	633b      	str	r3, [r7, #48]	@ 0x30
   return(result);
 80085fe:	6b3b      	ldr	r3, [r7, #48]	@ 0x30
 8008600:	f423 7390 	bic.w	r3, r3, #288	@ 0x120
 8008604:	64fb      	str	r3, [r7, #76]	@ 0x4c
 8008606:	687b      	ldr	r3, [r7, #4]
 8008608:	681b      	ldr	r3, [r3, #0]
 800860a:	461a      	mov	r2, r3
 800860c:	6cfb      	ldr	r3, [r7, #76]	@ 0x4c
 800860e:	643b      	str	r3, [r7, #64]	@ 0x40
 8008610:	63fa      	str	r2, [r7, #60]	@ 0x3c
   __ASM volatile ("strex %0, %2, %1" : "=&r" (result), "=Q" (*addr) : "r" (value) );
 8008612:	6bf9      	ldr	r1, [r7, #60]	@ 0x3c
 8008614:	6c3a      	ldr	r2, [r7, #64]	@ 0x40
 8008616:	e841 2300 	strex	r3, r2, [r1]
 800861a:	63bb      	str	r3, [r7, #56]	@ 0x38
   return(result);
 800861c:	6bbb      	ldr	r3, [r7, #56]	@ 0x38
 800861e:	2b00      	cmp	r3, #0
 8008620:	d1e6      	bne.n	80085f0 <UART_EndRxTransfer+0x8>
  ATOMIC_CLEAR_BIT(huart->Instance->CR3, USART_CR3_EIE);
 8008622:	687b      	ldr	r3, [r7, #4]
 8008624:	681b      	ldr	r3, [r3, #0]
 8008626:	3308      	adds	r3, #8
 8008628:	623b      	str	r3, [r7, #32]
   __ASM volatile ("ldrex %0, %1" : "=r" (result) : "Q" (*addr) );
 800862a:	6a3b      	ldr	r3, [r7, #32]
 800862c:	e853 3f00 	ldrex	r3, [r3]
 8008630:	61fb      	str	r3, [r7, #28]
   return(result);
 8008632:	69fb      	ldr	r3, [r7, #28]
 8008634:	f023 0301 	bic.w	r3, r3, #1
 8008638:	64bb      	str	r3, [r7, #72]	@ 0x48
 800863a:	687b      	ldr	r3, [r7, #4]
 800863c:	681b      	ldr	r3, [r3, #0]
 800863e:	3308      	adds	r3, #8
 8008640:	6cba      	ldr	r2, [r7, #72]	@ 0x48
 8008642:	62fa      	str	r2, [r7, #44]	@ 0x2c
 8008644:	62bb      	str	r3, [r7, #40]	@ 0x28
   __ASM volatile ("strex %0, %2, %1" : "=&r" (result), "=Q" (*addr) : "r" (value) );
 8008646:	6ab9      	ldr	r1, [r7, #40]	@ 0x28
 8008648:	6afa      	ldr	r2, [r7, #44]	@ 0x2c
 800864a:	e841 2300 	strex	r3, r2, [r1]
 800864e:	627b      	str	r3, [r7, #36]	@ 0x24
   return(result);
 8008650:	6a7b      	ldr	r3, [r7, #36]	@ 0x24
 8008652:	2b00      	cmp	r3, #0
 8008654:	d1e5      	bne.n	8008622 <UART_EndRxTransfer+0x3a>

  /* In case of reception waiting for IDLE event, disable also the IDLE IE interrupt source */
  if (huart->ReceptionType == HAL_UART_RECEPTION_TOIDLE)
 8008656:	687b      	ldr	r3, [r7, #4]
 8008658:	6e1b      	ldr	r3, [r3, #96]	@ 0x60
 800865a:	2b01      	cmp	r3, #1
 800865c:	d118      	bne.n	8008690 <UART_EndRxTransfer+0xa8>
  {
    ATOMIC_CLEAR_BIT(huart->Instance->CR1, USART_CR1_IDLEIE);
 800865e:	687b      	ldr	r3, [r7, #4]
 8008660:	681b      	ldr	r3, [r3, #0]
 8008662:	60fb      	str	r3, [r7, #12]
   __ASM volatile ("ldrex %0, %1" : "=r" (result) : "Q" (*addr) );
 8008664:	68fb      	ldr	r3, [r7, #12]
 8008666:	e853 3f00 	ldrex	r3, [r3]
 800866a:	60bb      	str	r3, [r7, #8]
   return(result);
 800866c:	68bb      	ldr	r3, [r7, #8]
 800866e:	f023 0310 	bic.w	r3, r3, #16
 8008672:	647b      	str	r3, [r7, #68]	@ 0x44
 8008674:	687b      	ldr	r3, [r7, #4]
 8008676:	681b      	ldr	r3, [r3, #0]
 8008678:	461a      	mov	r2, r3
 800867a:	6c7b      	ldr	r3, [r7, #68]	@ 0x44
 800867c:	61bb      	str	r3, [r7, #24]
 800867e:	617a      	str	r2, [r7, #20]
   __ASM volatile ("strex %0, %2, %1" : "=&r" (result), "=Q" (*addr) : "r" (value) );
 8008680:	6979      	ldr	r1, [r7, #20]
 8008682:	69ba      	ldr	r2, [r7, #24]
 8008684:	e841 2300 	strex	r3, r2, [r1]
 8008688:	613b      	str	r3, [r7, #16]
   return(result);
 800868a:	693b      	ldr	r3, [r7, #16]
 800868c:	2b00      	cmp	r3, #0
 800868e:	d1e6      	bne.n	800865e <UART_EndRxTransfer+0x76>
  }

  /* At end of Rx process, restore huart->RxState to Ready */
  huart->RxState = HAL_UART_STATE_READY;
 8008690:	687b      	ldr	r3, [r7, #4]
 8008692:	2220      	movs	r2, #32
 8008694:	f8c3 2080 	str.w	r2, [r3, #128]	@ 0x80
  huart->ReceptionType = HAL_UART_RECEPTION_STANDARD;
 8008698:	687b      	ldr	r3, [r7, #4]
 800869a:	2200      	movs	r2, #0
 800869c:	661a      	str	r2, [r3, #96]	@ 0x60

  /* Reset RxIsr function pointer */
  huart->RxISR = NULL;
 800869e:	687b      	ldr	r3, [r7, #4]
 80086a0:	2200      	movs	r2, #0
 80086a2:	669a      	str	r2, [r3, #104]	@ 0x68
}
 80086a4:	bf00      	nop
 80086a6:	3754      	adds	r7, #84	@ 0x54
 80086a8:	46bd      	mov	sp, r7
 80086aa:	bc80      	pop	{r7}
 80086ac:	4770      	bx	lr
	...

080086b0 <_vsiprintf_r>:
 80086b0:	b510      	push	{r4, lr}
 80086b2:	b09a      	sub	sp, #104	@ 0x68
 80086b4:	2400      	movs	r4, #0
 80086b6:	9100      	str	r1, [sp, #0]
 80086b8:	9104      	str	r1, [sp, #16]
 80086ba:	f06f 4100 	mvn.w	r1, #2147483648	@ 0x80000000
 80086be:	9105      	str	r1, [sp, #20]
 80086c0:	9102      	str	r1, [sp, #8]
 80086c2:	4905      	ldr	r1, [pc, #20]	@ (80086d8 <_vsiprintf_r+0x28>)
 80086c4:	9103      	str	r1, [sp, #12]
 80086c6:	4669      	mov	r1, sp
 80086c8:	9419      	str	r4, [sp, #100]	@ 0x64
 80086ca:	f000 f9ad 	bl	8008a28 <_svfiprintf_r>
 80086ce:	9b00      	ldr	r3, [sp, #0]
 80086d0:	701c      	strb	r4, [r3, #0]
 80086d2:	b01a      	add	sp, #104	@ 0x68
 80086d4:	bd10      	pop	{r4, pc}
 80086d6:	bf00      	nop
 80086d8:	ffff0208 	.word	0xffff0208

080086dc <vsiprintf>:
 80086dc:	4613      	mov	r3, r2
 80086de:	460a      	mov	r2, r1
 80086e0:	4601      	mov	r1, r0
 80086e2:	4802      	ldr	r0, [pc, #8]	@ (80086ec <vsiprintf+0x10>)
 80086e4:	6800      	ldr	r0, [r0, #0]
 80086e6:	f7ff bfe3 	b.w	80086b0 <_vsiprintf_r>
 80086ea:	bf00      	nop
 80086ec:	2000004c 	.word	0x2000004c

080086f0 <memset>:
 80086f0:	4402      	add	r2, r0
 80086f2:	4603      	mov	r3, r0
 80086f4:	4293      	cmp	r3, r2
 80086f6:	d100      	bne.n	80086fa <memset+0xa>
 80086f8:	4770      	bx	lr
 80086fa:	f803 1b01 	strb.w	r1, [r3], #1
 80086fe:	e7f9      	b.n	80086f4 <memset+0x4>

08008700 <__errno>:
 8008700:	4b01      	ldr	r3, [pc, #4]	@ (8008708 <__errno+0x8>)
 8008702:	6818      	ldr	r0, [r3, #0]
 8008704:	4770      	bx	lr
 8008706:	bf00      	nop
 8008708:	2000004c 	.word	0x2000004c

0800870c <__libc_init_array>:
 800870c:	b570      	push	{r4, r5, r6, lr}
 800870e:	4d0d      	ldr	r5, [pc, #52]	@ (8008744 <__libc_init_array+0x38>)
 8008710:	4c0d      	ldr	r4, [pc, #52]	@ (8008748 <__libc_init_array+0x3c>)
 8008712:	1b64      	subs	r4, r4, r5
 8008714:	10a4      	asrs	r4, r4, #2
 8008716:	2600      	movs	r6, #0
 8008718:	42a6      	cmp	r6, r4
 800871a:	d109      	bne.n	8008730 <__libc_init_array+0x24>
 800871c:	4d0b      	ldr	r5, [pc, #44]	@ (800874c <__libc_init_array+0x40>)
 800871e:	4c0c      	ldr	r4, [pc, #48]	@ (8008750 <__libc_init_array+0x44>)
 8008720:	f000 fc70 	bl	8009004 <_init>
 8008724:	1b64      	subs	r4, r4, r5
 8008726:	10a4      	asrs	r4, r4, #2
 8008728:	2600      	movs	r6, #0
 800872a:	42a6      	cmp	r6, r4
 800872c:	d105      	bne.n	800873a <__libc_init_array+0x2e>
 800872e:	bd70      	pop	{r4, r5, r6, pc}
 8008730:	f855 3b04 	ldr.w	r3, [r5], #4
 8008734:	4798      	blx	r3
 8008736:	3601      	adds	r6, #1
 8008738:	e7ee      	b.n	8008718 <__libc_init_array+0xc>
 800873a:	f855 3b04 	ldr.w	r3, [r5], #4
 800873e:	4798      	blx	r3
 8008740:	3601      	adds	r6, #1
 8008742:	e7f2      	b.n	800872a <__libc_init_array+0x1e>
 8008744:	080098ec 	.word	0x080098ec
 8008748:	080098ec 	.word	0x080098ec
 800874c:	080098ec 	.word	0x080098ec
 8008750:	080098f0 	.word	0x080098f0

08008754 <__retarget_lock_acquire_recursive>:
 8008754:	4770      	bx	lr

08008756 <__retarget_lock_release_recursive>:
 8008756:	4770      	bx	lr

08008758 <__aeabi_memcpy>:
 8008758:	f000 b803 	b.w	8008762 <memcpy>

0800875c <__aeabi_memclr>:
 800875c:	2200      	movs	r2, #0
 800875e:	f000 bc15 	b.w	8008f8c <__aeabi_memset>

08008762 <memcpy>:
 8008762:	440a      	add	r2, r1
 8008764:	4291      	cmp	r1, r2
 8008766:	f100 33ff 	add.w	r3, r0, #4294967295
 800876a:	d100      	bne.n	800876e <memcpy+0xc>
 800876c:	4770      	bx	lr
 800876e:	b510      	push	{r4, lr}
 8008770:	f811 4b01 	ldrb.w	r4, [r1], #1
 8008774:	f803 4f01 	strb.w	r4, [r3, #1]!
 8008778:	4291      	cmp	r1, r2
 800877a:	d1f9      	bne.n	8008770 <memcpy+0xe>
 800877c:	bd10      	pop	{r4, pc}
	...

08008780 <_free_r>:
 8008780:	b538      	push	{r3, r4, r5, lr}
 8008782:	4605      	mov	r5, r0
 8008784:	2900      	cmp	r1, #0
 8008786:	d041      	beq.n	800880c <_free_r+0x8c>
 8008788:	f851 3c04 	ldr.w	r3, [r1, #-4]
 800878c:	1f0c      	subs	r4, r1, #4
 800878e:	2b00      	cmp	r3, #0
 8008790:	bfb8      	it	lt
 8008792:	18e4      	addlt	r4, r4, r3
 8008794:	f000 f8e0 	bl	8008958 <__malloc_lock>
 8008798:	4a1d      	ldr	r2, [pc, #116]	@ (8008810 <_free_r+0x90>)
 800879a:	6813      	ldr	r3, [r2, #0]
 800879c:	b933      	cbnz	r3, 80087ac <_free_r+0x2c>
 800879e:	6063      	str	r3, [r4, #4]
 80087a0:	6014      	str	r4, [r2, #0]
 80087a2:	4628      	mov	r0, r5
 80087a4:	e8bd 4038 	ldmia.w	sp!, {r3, r4, r5, lr}
 80087a8:	f000 b8dc 	b.w	8008964 <__malloc_unlock>
 80087ac:	42a3      	cmp	r3, r4
 80087ae:	d908      	bls.n	80087c2 <_free_r+0x42>
 80087b0:	6820      	ldr	r0, [r4, #0]
 80087b2:	1821      	adds	r1, r4, r0
 80087b4:	428b      	cmp	r3, r1
 80087b6:	bf01      	itttt	eq
 80087b8:	6819      	ldreq	r1, [r3, #0]
 80087ba:	685b      	ldreq	r3, [r3, #4]
 80087bc:	1809      	addeq	r1, r1, r0
 80087be:	6021      	streq	r1, [r4, #0]
 80087c0:	e7ed      	b.n	800879e <_free_r+0x1e>
 80087c2:	461a      	mov	r2, r3
 80087c4:	685b      	ldr	r3, [r3, #4]
 80087c6:	b10b      	cbz	r3, 80087cc <_free_r+0x4c>
 80087c8:	42a3      	cmp	r3, r4
 80087ca:	d9fa      	bls.n	80087c2 <_free_r+0x42>
 80087cc:	6811      	ldr	r1, [r2, #0]
 80087ce:	1850      	adds	r0, r2, r1
 80087d0:	42a0      	cmp	r0, r4
 80087d2:	d10b      	bne.n	80087ec <_free_r+0x6c>
 80087d4:	6820      	ldr	r0, [r4, #0]
 80087d6:	4401      	add	r1, r0
 80087d8:	1850      	adds	r0, r2, r1
 80087da:	4283      	cmp	r3, r0
 80087dc:	6011      	str	r1, [r2, #0]
 80087de:	d1e0      	bne.n	80087a2 <_free_r+0x22>
 80087e0:	6818      	ldr	r0, [r3, #0]
 80087e2:	685b      	ldr	r3, [r3, #4]
 80087e4:	6053      	str	r3, [r2, #4]
 80087e6:	4408      	add	r0, r1
 80087e8:	6010      	str	r0, [r2, #0]
 80087ea:	e7da      	b.n	80087a2 <_free_r+0x22>
 80087ec:	d902      	bls.n	80087f4 <_free_r+0x74>
 80087ee:	230c      	movs	r3, #12
 80087f0:	602b      	str	r3, [r5, #0]
 80087f2:	e7d6      	b.n	80087a2 <_free_r+0x22>
 80087f4:	6820      	ldr	r0, [r4, #0]
 80087f6:	1821      	adds	r1, r4, r0
 80087f8:	428b      	cmp	r3, r1
 80087fa:	bf04      	itt	eq
 80087fc:	6819      	ldreq	r1, [r3, #0]
 80087fe:	685b      	ldreq	r3, [r3, #4]
 8008800:	6063      	str	r3, [r4, #4]
 8008802:	bf04      	itt	eq
 8008804:	1809      	addeq	r1, r1, r0
 8008806:	6021      	streq	r1, [r4, #0]
 8008808:	6054      	str	r4, [r2, #4]
 800880a:	e7ca      	b.n	80087a2 <_free_r+0x22>
 800880c:	bd38      	pop	{r3, r4, r5, pc}
 800880e:	bf00      	nop
 8008810:	20000bb4 	.word	0x20000bb4

08008814 <sbrk_aligned>:
 8008814:	b570      	push	{r4, r5, r6, lr}
 8008816:	4e0f      	ldr	r6, [pc, #60]	@ (8008854 <sbrk_aligned+0x40>)
 8008818:	460c      	mov	r4, r1
 800881a:	6831      	ldr	r1, [r6, #0]
 800881c:	4605      	mov	r5, r0
 800881e:	b911      	cbnz	r1, 8008826 <sbrk_aligned+0x12>
 8008820:	f000 fba4 	bl	8008f6c <_sbrk_r>
 8008824:	6030      	str	r0, [r6, #0]
 8008826:	4621      	mov	r1, r4
 8008828:	4628      	mov	r0, r5
 800882a:	f000 fb9f 	bl	8008f6c <_sbrk_r>
 800882e:	1c43      	adds	r3, r0, #1
 8008830:	d103      	bne.n	800883a <sbrk_aligned+0x26>
 8008832:	f04f 34ff 	mov.w	r4, #4294967295
 8008836:	4620      	mov	r0, r4
 8008838:	bd70      	pop	{r4, r5, r6, pc}
 800883a:	1cc4      	adds	r4, r0, #3
 800883c:	f024 0403 	bic.w	r4, r4, #3
 8008840:	42a0      	cmp	r0, r4
 8008842:	d0f8      	beq.n	8008836 <sbrk_aligned+0x22>
 8008844:	1a21      	subs	r1, r4, r0
 8008846:	4628      	mov	r0, r5
 8008848:	f000 fb90 	bl	8008f6c <_sbrk_r>
 800884c:	3001      	adds	r0, #1
 800884e:	d1f2      	bne.n	8008836 <sbrk_aligned+0x22>
 8008850:	e7ef      	b.n	8008832 <sbrk_aligned+0x1e>
 8008852:	bf00      	nop
 8008854:	20000bb0 	.word	0x20000bb0

08008858 <_malloc_r>:
 8008858:	e92d 43f8 	stmdb	sp!, {r3, r4, r5, r6, r7, r8, r9, lr}
 800885c:	1ccd      	adds	r5, r1, #3
 800885e:	f025 0503 	bic.w	r5, r5, #3
 8008862:	3508      	adds	r5, #8
 8008864:	2d0c      	cmp	r5, #12
 8008866:	bf38      	it	cc
 8008868:	250c      	movcc	r5, #12
 800886a:	2d00      	cmp	r5, #0
 800886c:	4606      	mov	r6, r0
 800886e:	db01      	blt.n	8008874 <_malloc_r+0x1c>
 8008870:	42a9      	cmp	r1, r5
 8008872:	d904      	bls.n	800887e <_malloc_r+0x26>
 8008874:	230c      	movs	r3, #12
 8008876:	6033      	str	r3, [r6, #0]
 8008878:	2000      	movs	r0, #0
 800887a:	e8bd 83f8 	ldmia.w	sp!, {r3, r4, r5, r6, r7, r8, r9, pc}
 800887e:	f8df 80d4 	ldr.w	r8, [pc, #212]	@ 8008954 <_malloc_r+0xfc>
 8008882:	f000 f869 	bl	8008958 <__malloc_lock>
 8008886:	f8d8 3000 	ldr.w	r3, [r8]
 800888a:	461c      	mov	r4, r3
 800888c:	bb44      	cbnz	r4, 80088e0 <_malloc_r+0x88>
 800888e:	4629      	mov	r1, r5
 8008890:	4630      	mov	r0, r6
 8008892:	f7ff ffbf 	bl	8008814 <sbrk_aligned>
 8008896:	1c43      	adds	r3, r0, #1
 8008898:	4604      	mov	r4, r0
 800889a:	d158      	bne.n	800894e <_malloc_r+0xf6>
 800889c:	f8d8 4000 	ldr.w	r4, [r8]
 80088a0:	4627      	mov	r7, r4
 80088a2:	2f00      	cmp	r7, #0
 80088a4:	d143      	bne.n	800892e <_malloc_r+0xd6>
 80088a6:	2c00      	cmp	r4, #0
 80088a8:	d04b      	beq.n	8008942 <_malloc_r+0xea>
 80088aa:	6823      	ldr	r3, [r4, #0]
 80088ac:	4639      	mov	r1, r7
 80088ae:	4630      	mov	r0, r6
 80088b0:	eb04 0903 	add.w	r9, r4, r3
 80088b4:	f000 fb5a 	bl	8008f6c <_sbrk_r>
 80088b8:	4581      	cmp	r9, r0
 80088ba:	d142      	bne.n	8008942 <_malloc_r+0xea>
 80088bc:	6821      	ldr	r1, [r4, #0]
 80088be:	1a6d      	subs	r5, r5, r1
 80088c0:	4629      	mov	r1, r5
 80088c2:	4630      	mov	r0, r6
 80088c4:	f7ff ffa6 	bl	8008814 <sbrk_aligned>
 80088c8:	3001      	adds	r0, #1
 80088ca:	d03a      	beq.n	8008942 <_malloc_r+0xea>
 80088cc:	6823      	ldr	r3, [r4, #0]
 80088ce:	442b      	add	r3, r5
 80088d0:	6023      	str	r3, [r4, #0]
 80088d2:	f8d8 3000 	ldr.w	r3, [r8]
 80088d6:	685a      	ldr	r2, [r3, #4]
 80088d8:	bb62      	cbnz	r2, 8008934 <_malloc_r+0xdc>
 80088da:	f8c8 7000 	str.w	r7, [r8]
 80088de:	e00f      	b.n	8008900 <_malloc_r+0xa8>
 80088e0:	6822      	ldr	r2, [r4, #0]
 80088e2:	1b52      	subs	r2, r2, r5
 80088e4:	d420      	bmi.n	8008928 <_malloc_r+0xd0>
 80088e6:	2a0b      	cmp	r2, #11
 80088e8:	d917      	bls.n	800891a <_malloc_r+0xc2>
 80088ea:	1961      	adds	r1, r4, r5
 80088ec:	42a3      	cmp	r3, r4
 80088ee:	6025      	str	r5, [r4, #0]
 80088f0:	bf18      	it	ne
 80088f2:	6059      	strne	r1, [r3, #4]
 80088f4:	6863      	ldr	r3, [r4, #4]
 80088f6:	bf08      	it	eq
 80088f8:	f8c8 1000 	streq.w	r1, [r8]
 80088fc:	5162      	str	r2, [r4, r5]
 80088fe:	604b      	str	r3, [r1, #4]
 8008900:	4630      	mov	r0, r6
 8008902:	f000 f82f 	bl	8008964 <__malloc_unlock>
 8008906:	f104 000b 	add.w	r0, r4, #11
 800890a:	1d23      	adds	r3, r4, #4
 800890c:	f020 0007 	bic.w	r0, r0, #7
 8008910:	1ac2      	subs	r2, r0, r3
 8008912:	bf1c      	itt	ne
 8008914:	1a1b      	subne	r3, r3, r0
 8008916:	50a3      	strne	r3, [r4, r2]
 8008918:	e7af      	b.n	800887a <_malloc_r+0x22>
 800891a:	6862      	ldr	r2, [r4, #4]
 800891c:	42a3      	cmp	r3, r4
 800891e:	bf0c      	ite	eq
 8008920:	f8c8 2000 	streq.w	r2, [r8]
 8008924:	605a      	strne	r2, [r3, #4]
 8008926:	e7eb      	b.n	8008900 <_malloc_r+0xa8>
 8008928:	4623      	mov	r3, r4
 800892a:	6864      	ldr	r4, [r4, #4]
 800892c:	e7ae      	b.n	800888c <_malloc_r+0x34>
 800892e:	463c      	mov	r4, r7
 8008930:	687f      	ldr	r7, [r7, #4]
 8008932:	e7b6      	b.n	80088a2 <_malloc_r+0x4a>
 8008934:	461a      	mov	r2, r3
 8008936:	685b      	ldr	r3, [r3, #4]
 8008938:	42a3      	cmp	r3, r4
 800893a:	d1fb      	bne.n	8008934 <_malloc_r+0xdc>
 800893c:	2300      	movs	r3, #0
 800893e:	6053      	str	r3, [r2, #4]
 8008940:	e7de      	b.n	8008900 <_malloc_r+0xa8>
 8008942:	230c      	movs	r3, #12
 8008944:	6033      	str	r3, [r6, #0]
 8008946:	4630      	mov	r0, r6
 8008948:	f000 f80c 	bl	8008964 <__malloc_unlock>
 800894c:	e794      	b.n	8008878 <_malloc_r+0x20>
 800894e:	6005      	str	r5, [r0, #0]
 8008950:	e7d6      	b.n	8008900 <_malloc_r+0xa8>
 8008952:	bf00      	nop
 8008954:	20000bb4 	.word	0x20000bb4

08008958 <__malloc_lock>:
 8008958:	4801      	ldr	r0, [pc, #4]	@ (8008960 <__malloc_lock+0x8>)
 800895a:	f7ff befb 	b.w	8008754 <__retarget_lock_acquire_recursive>
 800895e:	bf00      	nop
 8008960:	20000bac 	.word	0x20000bac

08008964 <__malloc_unlock>:
 8008964:	4801      	ldr	r0, [pc, #4]	@ (800896c <__malloc_unlock+0x8>)
 8008966:	f7ff bef6 	b.w	8008756 <__retarget_lock_release_recursive>
 800896a:	bf00      	nop
 800896c:	20000bac 	.word	0x20000bac

08008970 <__ssputs_r>:
 8008970:	e92d 47f0 	stmdb	sp!, {r4, r5, r6, r7, r8, r9, sl, lr}
 8008974:	688e      	ldr	r6, [r1, #8]
 8008976:	461f      	mov	r7, r3
 8008978:	42be      	cmp	r6, r7
 800897a:	680b      	ldr	r3, [r1, #0]
 800897c:	4682      	mov	sl, r0
 800897e:	460c      	mov	r4, r1
 8008980:	4690      	mov	r8, r2
 8008982:	d82d      	bhi.n	80089e0 <__ssputs_r+0x70>
 8008984:	f9b1 200c 	ldrsh.w	r2, [r1, #12]
 8008988:	f412 6f90 	tst.w	r2, #1152	@ 0x480
 800898c:	d026      	beq.n	80089dc <__ssputs_r+0x6c>
 800898e:	6965      	ldr	r5, [r4, #20]
 8008990:	6909      	ldr	r1, [r1, #16]
 8008992:	eb05 0545 	add.w	r5, r5, r5, lsl #1
 8008996:	eba3 0901 	sub.w	r9, r3, r1
 800899a:	eb05 75d5 	add.w	r5, r5, r5, lsr #31
 800899e:	1c7b      	adds	r3, r7, #1
 80089a0:	444b      	add	r3, r9
 80089a2:	106d      	asrs	r5, r5, #1
 80089a4:	429d      	cmp	r5, r3
 80089a6:	bf38      	it	cc
 80089a8:	461d      	movcc	r5, r3
 80089aa:	0553      	lsls	r3, r2, #21
 80089ac:	d527      	bpl.n	80089fe <__ssputs_r+0x8e>
 80089ae:	4629      	mov	r1, r5
 80089b0:	f7ff ff52 	bl	8008858 <_malloc_r>
 80089b4:	4606      	mov	r6, r0
 80089b6:	b360      	cbz	r0, 8008a12 <__ssputs_r+0xa2>
 80089b8:	6921      	ldr	r1, [r4, #16]
 80089ba:	464a      	mov	r2, r9
 80089bc:	f7ff fed1 	bl	8008762 <memcpy>
 80089c0:	89a3      	ldrh	r3, [r4, #12]
 80089c2:	f423 6390 	bic.w	r3, r3, #1152	@ 0x480
 80089c6:	f043 0380 	orr.w	r3, r3, #128	@ 0x80
 80089ca:	81a3      	strh	r3, [r4, #12]
 80089cc:	6126      	str	r6, [r4, #16]
 80089ce:	6165      	str	r5, [r4, #20]
 80089d0:	444e      	add	r6, r9
 80089d2:	eba5 0509 	sub.w	r5, r5, r9
 80089d6:	6026      	str	r6, [r4, #0]
 80089d8:	60a5      	str	r5, [r4, #8]
 80089da:	463e      	mov	r6, r7
 80089dc:	42be      	cmp	r6, r7
 80089de:	d900      	bls.n	80089e2 <__ssputs_r+0x72>
 80089e0:	463e      	mov	r6, r7
 80089e2:	6820      	ldr	r0, [r4, #0]
 80089e4:	4632      	mov	r2, r6
 80089e6:	4641      	mov	r1, r8
 80089e8:	f000 faa6 	bl	8008f38 <memmove>
 80089ec:	68a3      	ldr	r3, [r4, #8]
 80089ee:	1b9b      	subs	r3, r3, r6
 80089f0:	60a3      	str	r3, [r4, #8]
 80089f2:	6823      	ldr	r3, [r4, #0]
 80089f4:	4433      	add	r3, r6
 80089f6:	6023      	str	r3, [r4, #0]
 80089f8:	2000      	movs	r0, #0
 80089fa:	e8bd 87f0 	ldmia.w	sp!, {r4, r5, r6, r7, r8, r9, sl, pc}
 80089fe:	462a      	mov	r2, r5
 8008a00:	f000 fac9 	bl	8008f96 <_realloc_r>
 8008a04:	4606      	mov	r6, r0
 8008a06:	2800      	cmp	r0, #0
 8008a08:	d1e0      	bne.n	80089cc <__ssputs_r+0x5c>
 8008a0a:	6921      	ldr	r1, [r4, #16]
 8008a0c:	4650      	mov	r0, sl
 8008a0e:	f7ff feb7 	bl	8008780 <_free_r>
 8008a12:	230c      	movs	r3, #12
 8008a14:	f8ca 3000 	str.w	r3, [sl]
 8008a18:	89a3      	ldrh	r3, [r4, #12]
 8008a1a:	f043 0340 	orr.w	r3, r3, #64	@ 0x40
 8008a1e:	81a3      	strh	r3, [r4, #12]
 8008a20:	f04f 30ff 	mov.w	r0, #4294967295
 8008a24:	e7e9      	b.n	80089fa <__ssputs_r+0x8a>
	...

08008a28 <_svfiprintf_r>:
 8008a28:	e92d 4ff0 	stmdb	sp!, {r4, r5, r6, r7, r8, r9, sl, fp, lr}
 8008a2c:	4698      	mov	r8, r3
 8008a2e:	898b      	ldrh	r3, [r1, #12]
 8008a30:	061b      	lsls	r3, r3, #24
 8008a32:	b09d      	sub	sp, #116	@ 0x74
 8008a34:	4607      	mov	r7, r0
 8008a36:	460d      	mov	r5, r1
 8008a38:	4614      	mov	r4, r2
 8008a3a:	d510      	bpl.n	8008a5e <_svfiprintf_r+0x36>
 8008a3c:	690b      	ldr	r3, [r1, #16]
 8008a3e:	b973      	cbnz	r3, 8008a5e <_svfiprintf_r+0x36>
 8008a40:	2140      	movs	r1, #64	@ 0x40
 8008a42:	f7ff ff09 	bl	8008858 <_malloc_r>
 8008a46:	6028      	str	r0, [r5, #0]
 8008a48:	6128      	str	r0, [r5, #16]
 8008a4a:	b930      	cbnz	r0, 8008a5a <_svfiprintf_r+0x32>
 8008a4c:	230c      	movs	r3, #12
 8008a4e:	603b      	str	r3, [r7, #0]
 8008a50:	f04f 30ff 	mov.w	r0, #4294967295
 8008a54:	b01d      	add	sp, #116	@ 0x74
 8008a56:	e8bd 8ff0 	ldmia.w	sp!, {r4, r5, r6, r7, r8, r9, sl, fp, pc}
 8008a5a:	2340      	movs	r3, #64	@ 0x40
 8008a5c:	616b      	str	r3, [r5, #20]
 8008a5e:	2300      	movs	r3, #0
 8008a60:	9309      	str	r3, [sp, #36]	@ 0x24
 8008a62:	2320      	movs	r3, #32
 8008a64:	f88d 3029 	strb.w	r3, [sp, #41]	@ 0x29
 8008a68:	f8cd 800c 	str.w	r8, [sp, #12]
 8008a6c:	2330      	movs	r3, #48	@ 0x30
 8008a6e:	f8df 819c 	ldr.w	r8, [pc, #412]	@ 8008c0c <_svfiprintf_r+0x1e4>
 8008a72:	f88d 302a 	strb.w	r3, [sp, #42]	@ 0x2a
 8008a76:	f04f 0901 	mov.w	r9, #1
 8008a7a:	4623      	mov	r3, r4
 8008a7c:	469a      	mov	sl, r3
 8008a7e:	f813 2b01 	ldrb.w	r2, [r3], #1
 8008a82:	b10a      	cbz	r2, 8008a88 <_svfiprintf_r+0x60>
 8008a84:	2a25      	cmp	r2, #37	@ 0x25
 8008a86:	d1f9      	bne.n	8008a7c <_svfiprintf_r+0x54>
 8008a88:	ebba 0b04 	subs.w	fp, sl, r4
 8008a8c:	d00b      	beq.n	8008aa6 <_svfiprintf_r+0x7e>
 8008a8e:	465b      	mov	r3, fp
 8008a90:	4622      	mov	r2, r4
 8008a92:	4629      	mov	r1, r5
 8008a94:	4638      	mov	r0, r7
 8008a96:	f7ff ff6b 	bl	8008970 <__ssputs_r>
 8008a9a:	3001      	adds	r0, #1
 8008a9c:	f000 80a7 	beq.w	8008bee <_svfiprintf_r+0x1c6>
 8008aa0:	9a09      	ldr	r2, [sp, #36]	@ 0x24
 8008aa2:	445a      	add	r2, fp
 8008aa4:	9209      	str	r2, [sp, #36]	@ 0x24
 8008aa6:	f89a 3000 	ldrb.w	r3, [sl]
 8008aaa:	2b00      	cmp	r3, #0
 8008aac:	f000 809f 	beq.w	8008bee <_svfiprintf_r+0x1c6>
 8008ab0:	2300      	movs	r3, #0
 8008ab2:	f04f 32ff 	mov.w	r2, #4294967295
 8008ab6:	e9cd 2305 	strd	r2, r3, [sp, #20]
 8008aba:	f10a 0a01 	add.w	sl, sl, #1
 8008abe:	9304      	str	r3, [sp, #16]
 8008ac0:	9307      	str	r3, [sp, #28]
 8008ac2:	f88d 3053 	strb.w	r3, [sp, #83]	@ 0x53
 8008ac6:	931a      	str	r3, [sp, #104]	@ 0x68
 8008ac8:	4654      	mov	r4, sl
 8008aca:	2205      	movs	r2, #5
 8008acc:	f814 1b01 	ldrb.w	r1, [r4], #1
 8008ad0:	484e      	ldr	r0, [pc, #312]	@ (8008c0c <_svfiprintf_r+0x1e4>)
 8008ad2:	f7fc f895 	bl	8004c00 <memchr>
 8008ad6:	9a04      	ldr	r2, [sp, #16]
 8008ad8:	b9d8      	cbnz	r0, 8008b12 <_svfiprintf_r+0xea>
 8008ada:	06d0      	lsls	r0, r2, #27
 8008adc:	bf44      	itt	mi
 8008ade:	2320      	movmi	r3, #32
 8008ae0:	f88d 3053 	strbmi.w	r3, [sp, #83]	@ 0x53
 8008ae4:	0711      	lsls	r1, r2, #28
 8008ae6:	bf44      	itt	mi
 8008ae8:	232b      	movmi	r3, #43	@ 0x2b
 8008aea:	f88d 3053 	strbmi.w	r3, [sp, #83]	@ 0x53
 8008aee:	f89a 3000 	ldrb.w	r3, [sl]
 8008af2:	2b2a      	cmp	r3, #42	@ 0x2a
 8008af4:	d015      	beq.n	8008b22 <_svfiprintf_r+0xfa>
 8008af6:	9a07      	ldr	r2, [sp, #28]
 8008af8:	4654      	mov	r4, sl
 8008afa:	2000      	movs	r0, #0
 8008afc:	f04f 0c0a 	mov.w	ip, #10
 8008b00:	4621      	mov	r1, r4
 8008b02:	f811 3b01 	ldrb.w	r3, [r1], #1
 8008b06:	3b30      	subs	r3, #48	@ 0x30
 8008b08:	2b09      	cmp	r3, #9
 8008b0a:	d94b      	bls.n	8008ba4 <_svfiprintf_r+0x17c>
 8008b0c:	b1b0      	cbz	r0, 8008b3c <_svfiprintf_r+0x114>
 8008b0e:	9207      	str	r2, [sp, #28]
 8008b10:	e014      	b.n	8008b3c <_svfiprintf_r+0x114>
 8008b12:	eba0 0308 	sub.w	r3, r0, r8
 8008b16:	fa09 f303 	lsl.w	r3, r9, r3
 8008b1a:	4313      	orrs	r3, r2
 8008b1c:	9304      	str	r3, [sp, #16]
 8008b1e:	46a2      	mov	sl, r4
 8008b20:	e7d2      	b.n	8008ac8 <_svfiprintf_r+0xa0>
 8008b22:	9b03      	ldr	r3, [sp, #12]
 8008b24:	1d19      	adds	r1, r3, #4
 8008b26:	681b      	ldr	r3, [r3, #0]
 8008b28:	9103      	str	r1, [sp, #12]
 8008b2a:	2b00      	cmp	r3, #0
 8008b2c:	bfbb      	ittet	lt
 8008b2e:	425b      	neglt	r3, r3
 8008b30:	f042 0202 	orrlt.w	r2, r2, #2
 8008b34:	9307      	strge	r3, [sp, #28]
 8008b36:	9307      	strlt	r3, [sp, #28]
 8008b38:	bfb8      	it	lt
 8008b3a:	9204      	strlt	r2, [sp, #16]
 8008b3c:	7823      	ldrb	r3, [r4, #0]
 8008b3e:	2b2e      	cmp	r3, #46	@ 0x2e
 8008b40:	d10a      	bne.n	8008b58 <_svfiprintf_r+0x130>
 8008b42:	7863      	ldrb	r3, [r4, #1]
 8008b44:	2b2a      	cmp	r3, #42	@ 0x2a
 8008b46:	d132      	bne.n	8008bae <_svfiprintf_r+0x186>
 8008b48:	9b03      	ldr	r3, [sp, #12]
 8008b4a:	1d1a      	adds	r2, r3, #4
 8008b4c:	681b      	ldr	r3, [r3, #0]
 8008b4e:	9203      	str	r2, [sp, #12]
 8008b50:	ea43 73e3 	orr.w	r3, r3, r3, asr #31
 8008b54:	3402      	adds	r4, #2
 8008b56:	9305      	str	r3, [sp, #20]
 8008b58:	f8df a0b4 	ldr.w	sl, [pc, #180]	@ 8008c10 <_svfiprintf_r+0x1e8>
 8008b5c:	7821      	ldrb	r1, [r4, #0]
 8008b5e:	2203      	movs	r2, #3
 8008b60:	4650      	mov	r0, sl
 8008b62:	f7fc f84d 	bl	8004c00 <memchr>
 8008b66:	b138      	cbz	r0, 8008b78 <_svfiprintf_r+0x150>
 8008b68:	9b04      	ldr	r3, [sp, #16]
 8008b6a:	eba0 000a 	sub.w	r0, r0, sl
 8008b6e:	2240      	movs	r2, #64	@ 0x40
 8008b70:	4082      	lsls	r2, r0
 8008b72:	4313      	orrs	r3, r2
 8008b74:	3401      	adds	r4, #1
 8008b76:	9304      	str	r3, [sp, #16]
 8008b78:	f814 1b01 	ldrb.w	r1, [r4], #1
 8008b7c:	4825      	ldr	r0, [pc, #148]	@ (8008c14 <_svfiprintf_r+0x1ec>)
 8008b7e:	f88d 1028 	strb.w	r1, [sp, #40]	@ 0x28
 8008b82:	2206      	movs	r2, #6
 8008b84:	f7fc f83c 	bl	8004c00 <memchr>
 8008b88:	2800      	cmp	r0, #0
 8008b8a:	d036      	beq.n	8008bfa <_svfiprintf_r+0x1d2>
 8008b8c:	4b22      	ldr	r3, [pc, #136]	@ (8008c18 <_svfiprintf_r+0x1f0>)
 8008b8e:	bb1b      	cbnz	r3, 8008bd8 <_svfiprintf_r+0x1b0>
 8008b90:	9b03      	ldr	r3, [sp, #12]
 8008b92:	3307      	adds	r3, #7
 8008b94:	f023 0307 	bic.w	r3, r3, #7
 8008b98:	3308      	adds	r3, #8
 8008b9a:	9303      	str	r3, [sp, #12]
 8008b9c:	9b09      	ldr	r3, [sp, #36]	@ 0x24
 8008b9e:	4433      	add	r3, r6
 8008ba0:	9309      	str	r3, [sp, #36]	@ 0x24
 8008ba2:	e76a      	b.n	8008a7a <_svfiprintf_r+0x52>
 8008ba4:	fb0c 3202 	mla	r2, ip, r2, r3
 8008ba8:	460c      	mov	r4, r1
 8008baa:	2001      	movs	r0, #1
 8008bac:	e7a8      	b.n	8008b00 <_svfiprintf_r+0xd8>
 8008bae:	2300      	movs	r3, #0
 8008bb0:	3401      	adds	r4, #1
 8008bb2:	9305      	str	r3, [sp, #20]
 8008bb4:	4619      	mov	r1, r3
 8008bb6:	f04f 0c0a 	mov.w	ip, #10
 8008bba:	4620      	mov	r0, r4
 8008bbc:	f810 2b01 	ldrb.w	r2, [r0], #1
 8008bc0:	3a30      	subs	r2, #48	@ 0x30
 8008bc2:	2a09      	cmp	r2, #9
 8008bc4:	d903      	bls.n	8008bce <_svfiprintf_r+0x1a6>
 8008bc6:	2b00      	cmp	r3, #0
 8008bc8:	d0c6      	beq.n	8008b58 <_svfiprintf_r+0x130>
 8008bca:	9105      	str	r1, [sp, #20]
 8008bcc:	e7c4      	b.n	8008b58 <_svfiprintf_r+0x130>
 8008bce:	fb0c 2101 	mla	r1, ip, r1, r2
 8008bd2:	4604      	mov	r4, r0
 8008bd4:	2301      	movs	r3, #1
 8008bd6:	e7f0      	b.n	8008bba <_svfiprintf_r+0x192>
 8008bd8:	ab03      	add	r3, sp, #12
 8008bda:	9300      	str	r3, [sp, #0]
 8008bdc:	462a      	mov	r2, r5
 8008bde:	4b0f      	ldr	r3, [pc, #60]	@ (8008c1c <_svfiprintf_r+0x1f4>)
 8008be0:	a904      	add	r1, sp, #16
 8008be2:	4638      	mov	r0, r7
 8008be4:	f3af 8000 	nop.w
 8008be8:	1c42      	adds	r2, r0, #1
 8008bea:	4606      	mov	r6, r0
 8008bec:	d1d6      	bne.n	8008b9c <_svfiprintf_r+0x174>
 8008bee:	89ab      	ldrh	r3, [r5, #12]
 8008bf0:	065b      	lsls	r3, r3, #25
 8008bf2:	f53f af2d 	bmi.w	8008a50 <_svfiprintf_r+0x28>
 8008bf6:	9809      	ldr	r0, [sp, #36]	@ 0x24
 8008bf8:	e72c      	b.n	8008a54 <_svfiprintf_r+0x2c>
 8008bfa:	ab03      	add	r3, sp, #12
 8008bfc:	9300      	str	r3, [sp, #0]
 8008bfe:	462a      	mov	r2, r5
 8008c00:	4b06      	ldr	r3, [pc, #24]	@ (8008c1c <_svfiprintf_r+0x1f4>)
 8008c02:	a904      	add	r1, sp, #16
 8008c04:	4638      	mov	r0, r7
 8008c06:	f000 f879 	bl	8008cfc <_printf_i>
 8008c0a:	e7ed      	b.n	8008be8 <_svfiprintf_r+0x1c0>
 8008c0c:	0800964c 	.word	0x0800964c
 8008c10:	08009652 	.word	0x08009652
 8008c14:	08009656 	.word	0x08009656
 8008c18:	00000000 	.word	0x00000000
 8008c1c:	08008971 	.word	0x08008971

08008c20 <_printf_common>:
 8008c20:	e92d 47f0 	stmdb	sp!, {r4, r5, r6, r7, r8, r9, sl, lr}
 8008c24:	4616      	mov	r6, r2
 8008c26:	4698      	mov	r8, r3
 8008c28:	688a      	ldr	r2, [r1, #8]
 8008c2a:	690b      	ldr	r3, [r1, #16]
 8008c2c:	f8dd 9020 	ldr.w	r9, [sp, #32]
 8008c30:	4293      	cmp	r3, r2
 8008c32:	bfb8      	it	lt
 8008c34:	4613      	movlt	r3, r2
 8008c36:	6033      	str	r3, [r6, #0]
 8008c38:	f891 2043 	ldrb.w	r2, [r1, #67]	@ 0x43
 8008c3c:	4607      	mov	r7, r0
 8008c3e:	460c      	mov	r4, r1
 8008c40:	b10a      	cbz	r2, 8008c46 <_printf_common+0x26>
 8008c42:	3301      	adds	r3, #1
 8008c44:	6033      	str	r3, [r6, #0]
 8008c46:	6823      	ldr	r3, [r4, #0]
 8008c48:	0699      	lsls	r1, r3, #26
 8008c4a:	bf42      	ittt	mi
 8008c4c:	6833      	ldrmi	r3, [r6, #0]
 8008c4e:	3302      	addmi	r3, #2
 8008c50:	6033      	strmi	r3, [r6, #0]
 8008c52:	6825      	ldr	r5, [r4, #0]
 8008c54:	f015 0506 	ands.w	r5, r5, #6
 8008c58:	d106      	bne.n	8008c68 <_printf_common+0x48>
 8008c5a:	f104 0a19 	add.w	sl, r4, #25
 8008c5e:	68e3      	ldr	r3, [r4, #12]
 8008c60:	6832      	ldr	r2, [r6, #0]
 8008c62:	1a9b      	subs	r3, r3, r2
 8008c64:	42ab      	cmp	r3, r5
 8008c66:	dc26      	bgt.n	8008cb6 <_printf_common+0x96>
 8008c68:	f894 3043 	ldrb.w	r3, [r4, #67]	@ 0x43
 8008c6c:	6822      	ldr	r2, [r4, #0]
 8008c6e:	3b00      	subs	r3, #0
 8008c70:	bf18      	it	ne
 8008c72:	2301      	movne	r3, #1
 8008c74:	0692      	lsls	r2, r2, #26
 8008c76:	d42b      	bmi.n	8008cd0 <_printf_common+0xb0>
 8008c78:	f104 0243 	add.w	r2, r4, #67	@ 0x43
 8008c7c:	4641      	mov	r1, r8
 8008c7e:	4638      	mov	r0, r7
 8008c80:	47c8      	blx	r9
 8008c82:	3001      	adds	r0, #1
 8008c84:	d01e      	beq.n	8008cc4 <_printf_common+0xa4>
 8008c86:	6823      	ldr	r3, [r4, #0]
 8008c88:	6922      	ldr	r2, [r4, #16]
 8008c8a:	f003 0306 	and.w	r3, r3, #6
 8008c8e:	2b04      	cmp	r3, #4
 8008c90:	bf02      	ittt	eq
 8008c92:	68e5      	ldreq	r5, [r4, #12]
 8008c94:	6833      	ldreq	r3, [r6, #0]
 8008c96:	1aed      	subeq	r5, r5, r3
 8008c98:	68a3      	ldr	r3, [r4, #8]
 8008c9a:	bf0c      	ite	eq
 8008c9c:	ea25 75e5 	biceq.w	r5, r5, r5, asr #31
 8008ca0:	2500      	movne	r5, #0
 8008ca2:	4293      	cmp	r3, r2
 8008ca4:	bfc4      	itt	gt
 8008ca6:	1a9b      	subgt	r3, r3, r2
 8008ca8:	18ed      	addgt	r5, r5, r3
 8008caa:	2600      	movs	r6, #0
 8008cac:	341a      	adds	r4, #26
 8008cae:	42b5      	cmp	r5, r6
 8008cb0:	d11a      	bne.n	8008ce8 <_printf_common+0xc8>
 8008cb2:	2000      	movs	r0, #0
 8008cb4:	e008      	b.n	8008cc8 <_printf_common+0xa8>
 8008cb6:	2301      	movs	r3, #1
 8008cb8:	4652      	mov	r2, sl
 8008cba:	4641      	mov	r1, r8
 8008cbc:	4638      	mov	r0, r7
 8008cbe:	47c8      	blx	r9
 8008cc0:	3001      	adds	r0, #1
 8008cc2:	d103      	bne.n	8008ccc <_printf_common+0xac>
 8008cc4:	f04f 30ff 	mov.w	r0, #4294967295
 8008cc8:	e8bd 87f0 	ldmia.w	sp!, {r4, r5, r6, r7, r8, r9, sl, pc}
 8008ccc:	3501      	adds	r5, #1
 8008cce:	e7c6      	b.n	8008c5e <_printf_common+0x3e>
 8008cd0:	18e1      	adds	r1, r4, r3
 8008cd2:	1c5a      	adds	r2, r3, #1
 8008cd4:	2030      	movs	r0, #48	@ 0x30
 8008cd6:	f881 0043 	strb.w	r0, [r1, #67]	@ 0x43
 8008cda:	4422      	add	r2, r4
 8008cdc:	f894 1045 	ldrb.w	r1, [r4, #69]	@ 0x45
 8008ce0:	f882 1043 	strb.w	r1, [r2, #67]	@ 0x43
 8008ce4:	3302      	adds	r3, #2
 8008ce6:	e7c7      	b.n	8008c78 <_printf_common+0x58>
 8008ce8:	2301      	movs	r3, #1
 8008cea:	4622      	mov	r2, r4
 8008cec:	4641      	mov	r1, r8
 8008cee:	4638      	mov	r0, r7
 8008cf0:	47c8      	blx	r9
 8008cf2:	3001      	adds	r0, #1
 8008cf4:	d0e6      	beq.n	8008cc4 <_printf_common+0xa4>
 8008cf6:	3601      	adds	r6, #1
 8008cf8:	e7d9      	b.n	8008cae <_printf_common+0x8e>
	...

08008cfc <_printf_i>:
 8008cfc:	e92d 47ff 	stmdb	sp!, {r0, r1, r2, r3, r4, r5, r6, r7, r8, r9, sl, lr}
 8008d00:	7e0f      	ldrb	r7, [r1, #24]
 8008d02:	9e0c      	ldr	r6, [sp, #48]	@ 0x30
 8008d04:	2f78      	cmp	r7, #120	@ 0x78
 8008d06:	4691      	mov	r9, r2
 8008d08:	4680      	mov	r8, r0
 8008d0a:	460c      	mov	r4, r1
 8008d0c:	469a      	mov	sl, r3
 8008d0e:	f101 0243 	add.w	r2, r1, #67	@ 0x43
 8008d12:	d807      	bhi.n	8008d24 <_printf_i+0x28>
 8008d14:	2f62      	cmp	r7, #98	@ 0x62
 8008d16:	d80a      	bhi.n	8008d2e <_printf_i+0x32>
 8008d18:	2f00      	cmp	r7, #0
 8008d1a:	f000 80d1 	beq.w	8008ec0 <_printf_i+0x1c4>
 8008d1e:	2f58      	cmp	r7, #88	@ 0x58
 8008d20:	f000 80b8 	beq.w	8008e94 <_printf_i+0x198>
 8008d24:	f104 0642 	add.w	r6, r4, #66	@ 0x42
 8008d28:	f884 7042 	strb.w	r7, [r4, #66]	@ 0x42
 8008d2c:	e03a      	b.n	8008da4 <_printf_i+0xa8>
 8008d2e:	f1a7 0363 	sub.w	r3, r7, #99	@ 0x63
 8008d32:	2b15      	cmp	r3, #21
 8008d34:	d8f6      	bhi.n	8008d24 <_printf_i+0x28>
 8008d36:	a101      	add	r1, pc, #4	@ (adr r1, 8008d3c <_printf_i+0x40>)
 8008d38:	f851 f023 	ldr.w	pc, [r1, r3, lsl #2]
 8008d3c:	08008d95 	.word	0x08008d95
 8008d40:	08008da9 	.word	0x08008da9
 8008d44:	08008d25 	.word	0x08008d25
 8008d48:	08008d25 	.word	0x08008d25
 8008d4c:	08008d25 	.word	0x08008d25
 8008d50:	08008d25 	.word	0x08008d25
 8008d54:	08008da9 	.word	0x08008da9
 8008d58:	08008d25 	.word	0x08008d25
 8008d5c:	08008d25 	.word	0x08008d25
 8008d60:	08008d25 	.word	0x08008d25
 8008d64:	08008d25 	.word	0x08008d25
 8008d68:	08008ea7 	.word	0x08008ea7
 8008d6c:	08008dd3 	.word	0x08008dd3
 8008d70:	08008e61 	.word	0x08008e61
 8008d74:	08008d25 	.word	0x08008d25
 8008d78:	08008d25 	.word	0x08008d25
 8008d7c:	08008ec9 	.word	0x08008ec9
 8008d80:	08008d25 	.word	0x08008d25
 8008d84:	08008dd3 	.word	0x08008dd3
 8008d88:	08008d25 	.word	0x08008d25
 8008d8c:	08008d25 	.word	0x08008d25
 8008d90:	08008e69 	.word	0x08008e69
 8008d94:	6833      	ldr	r3, [r6, #0]
 8008d96:	1d1a      	adds	r2, r3, #4
 8008d98:	681b      	ldr	r3, [r3, #0]
 8008d9a:	6032      	str	r2, [r6, #0]
 8008d9c:	f104 0642 	add.w	r6, r4, #66	@ 0x42
 8008da0:	f884 3042 	strb.w	r3, [r4, #66]	@ 0x42
 8008da4:	2301      	movs	r3, #1
 8008da6:	e09c      	b.n	8008ee2 <_printf_i+0x1e6>
 8008da8:	6833      	ldr	r3, [r6, #0]
 8008daa:	6820      	ldr	r0, [r4, #0]
 8008dac:	1d19      	adds	r1, r3, #4
 8008dae:	6031      	str	r1, [r6, #0]
 8008db0:	0606      	lsls	r6, r0, #24
 8008db2:	d501      	bpl.n	8008db8 <_printf_i+0xbc>
 8008db4:	681d      	ldr	r5, [r3, #0]
 8008db6:	e003      	b.n	8008dc0 <_printf_i+0xc4>
 8008db8:	0645      	lsls	r5, r0, #25
 8008dba:	d5fb      	bpl.n	8008db4 <_printf_i+0xb8>
 8008dbc:	f9b3 5000 	ldrsh.w	r5, [r3]
 8008dc0:	2d00      	cmp	r5, #0
 8008dc2:	da03      	bge.n	8008dcc <_printf_i+0xd0>
 8008dc4:	232d      	movs	r3, #45	@ 0x2d
 8008dc6:	426d      	negs	r5, r5
 8008dc8:	f884 3043 	strb.w	r3, [r4, #67]	@ 0x43
 8008dcc:	4858      	ldr	r0, [pc, #352]	@ (8008f30 <_printf_i+0x234>)
 8008dce:	230a      	movs	r3, #10
 8008dd0:	e011      	b.n	8008df6 <_printf_i+0xfa>
 8008dd2:	6821      	ldr	r1, [r4, #0]
 8008dd4:	6833      	ldr	r3, [r6, #0]
 8008dd6:	0608      	lsls	r0, r1, #24
 8008dd8:	f853 5b04 	ldr.w	r5, [r3], #4
 8008ddc:	d402      	bmi.n	8008de4 <_printf_i+0xe8>
 8008dde:	0649      	lsls	r1, r1, #25
 8008de0:	bf48      	it	mi
 8008de2:	b2ad      	uxthmi	r5, r5
 8008de4:	2f6f      	cmp	r7, #111	@ 0x6f
 8008de6:	4852      	ldr	r0, [pc, #328]	@ (8008f30 <_printf_i+0x234>)
 8008de8:	6033      	str	r3, [r6, #0]
 8008dea:	bf14      	ite	ne
 8008dec:	230a      	movne	r3, #10
 8008dee:	2308      	moveq	r3, #8
 8008df0:	2100      	movs	r1, #0
 8008df2:	f884 1043 	strb.w	r1, [r4, #67]	@ 0x43
 8008df6:	6866      	ldr	r6, [r4, #4]
 8008df8:	60a6      	str	r6, [r4, #8]
 8008dfa:	2e00      	cmp	r6, #0
 8008dfc:	db05      	blt.n	8008e0a <_printf_i+0x10e>
 8008dfe:	6821      	ldr	r1, [r4, #0]
 8008e00:	432e      	orrs	r6, r5
 8008e02:	f021 0104 	bic.w	r1, r1, #4
 8008e06:	6021      	str	r1, [r4, #0]
 8008e08:	d04b      	beq.n	8008ea2 <_printf_i+0x1a6>
 8008e0a:	4616      	mov	r6, r2
 8008e0c:	fbb5 f1f3 	udiv	r1, r5, r3
 8008e10:	fb03 5711 	mls	r7, r3, r1, r5
 8008e14:	5dc7      	ldrb	r7, [r0, r7]
 8008e16:	f806 7d01 	strb.w	r7, [r6, #-1]!
 8008e1a:	462f      	mov	r7, r5
 8008e1c:	42bb      	cmp	r3, r7
 8008e1e:	460d      	mov	r5, r1
 8008e20:	d9f4      	bls.n	8008e0c <_printf_i+0x110>
 8008e22:	2b08      	cmp	r3, #8
 8008e24:	d10b      	bne.n	8008e3e <_printf_i+0x142>
 8008e26:	6823      	ldr	r3, [r4, #0]
 8008e28:	07df      	lsls	r7, r3, #31
 8008e2a:	d508      	bpl.n	8008e3e <_printf_i+0x142>
 8008e2c:	6923      	ldr	r3, [r4, #16]
 8008e2e:	6861      	ldr	r1, [r4, #4]
 8008e30:	4299      	cmp	r1, r3
 8008e32:	bfde      	ittt	le
 8008e34:	2330      	movle	r3, #48	@ 0x30
 8008e36:	f806 3c01 	strble.w	r3, [r6, #-1]
 8008e3a:	f106 36ff 	addle.w	r6, r6, #4294967295
 8008e3e:	1b92      	subs	r2, r2, r6
 8008e40:	6122      	str	r2, [r4, #16]
 8008e42:	f8cd a000 	str.w	sl, [sp]
 8008e46:	464b      	mov	r3, r9
 8008e48:	aa03      	add	r2, sp, #12
 8008e4a:	4621      	mov	r1, r4
 8008e4c:	4640      	mov	r0, r8
 8008e4e:	f7ff fee7 	bl	8008c20 <_printf_common>
 8008e52:	3001      	adds	r0, #1
 8008e54:	d14a      	bne.n	8008eec <_printf_i+0x1f0>
 8008e56:	f04f 30ff 	mov.w	r0, #4294967295
 8008e5a:	b004      	add	sp, #16
 8008e5c:	e8bd 87f0 	ldmia.w	sp!, {r4, r5, r6, r7, r8, r9, sl, pc}
 8008e60:	6823      	ldr	r3, [r4, #0]
 8008e62:	f043 0320 	orr.w	r3, r3, #32
 8008e66:	6023      	str	r3, [r4, #0]
 8008e68:	4832      	ldr	r0, [pc, #200]	@ (8008f34 <_printf_i+0x238>)
 8008e6a:	2778      	movs	r7, #120	@ 0x78
 8008e6c:	f884 7045 	strb.w	r7, [r4, #69]	@ 0x45
 8008e70:	6823      	ldr	r3, [r4, #0]
 8008e72:	6831      	ldr	r1, [r6, #0]
 8008e74:	061f      	lsls	r7, r3, #24
 8008e76:	f851 5b04 	ldr.w	r5, [r1], #4
 8008e7a:	d402      	bmi.n	8008e82 <_printf_i+0x186>
 8008e7c:	065f      	lsls	r7, r3, #25
 8008e7e:	bf48      	it	mi
 8008e80:	b2ad      	uxthmi	r5, r5
 8008e82:	6031      	str	r1, [r6, #0]
 8008e84:	07d9      	lsls	r1, r3, #31
 8008e86:	bf44      	itt	mi
 8008e88:	f043 0320 	orrmi.w	r3, r3, #32
 8008e8c:	6023      	strmi	r3, [r4, #0]
 8008e8e:	b11d      	cbz	r5, 8008e98 <_printf_i+0x19c>
 8008e90:	2310      	movs	r3, #16
 8008e92:	e7ad      	b.n	8008df0 <_printf_i+0xf4>
 8008e94:	4826      	ldr	r0, [pc, #152]	@ (8008f30 <_printf_i+0x234>)
 8008e96:	e7e9      	b.n	8008e6c <_printf_i+0x170>
 8008e98:	6823      	ldr	r3, [r4, #0]
 8008e9a:	f023 0320 	bic.w	r3, r3, #32
 8008e9e:	6023      	str	r3, [r4, #0]
 8008ea0:	e7f6      	b.n	8008e90 <_printf_i+0x194>
 8008ea2:	4616      	mov	r6, r2
 8008ea4:	e7bd      	b.n	8008e22 <_printf_i+0x126>
 8008ea6:	6833      	ldr	r3, [r6, #0]
 8008ea8:	6825      	ldr	r5, [r4, #0]
 8008eaa:	6961      	ldr	r1, [r4, #20]
 8008eac:	1d18      	adds	r0, r3, #4
 8008eae:	6030      	str	r0, [r6, #0]
 8008eb0:	062e      	lsls	r6, r5, #24
 8008eb2:	681b      	ldr	r3, [r3, #0]
 8008eb4:	d501      	bpl.n	8008eba <_printf_i+0x1be>
 8008eb6:	6019      	str	r1, [r3, #0]
 8008eb8:	e002      	b.n	8008ec0 <_printf_i+0x1c4>
 8008eba:	0668      	lsls	r0, r5, #25
 8008ebc:	d5fb      	bpl.n	8008eb6 <_printf_i+0x1ba>
 8008ebe:	8019      	strh	r1, [r3, #0]
 8008ec0:	2300      	movs	r3, #0
 8008ec2:	6123      	str	r3, [r4, #16]
 8008ec4:	4616      	mov	r6, r2
 8008ec6:	e7bc      	b.n	8008e42 <_printf_i+0x146>
 8008ec8:	6833      	ldr	r3, [r6, #0]
 8008eca:	1d1a      	adds	r2, r3, #4
 8008ecc:	6032      	str	r2, [r6, #0]
 8008ece:	681e      	ldr	r6, [r3, #0]
 8008ed0:	6862      	ldr	r2, [r4, #4]
 8008ed2:	2100      	movs	r1, #0
 8008ed4:	4630      	mov	r0, r6
 8008ed6:	f7fb fe93 	bl	8004c00 <memchr>
 8008eda:	b108      	cbz	r0, 8008ee0 <_printf_i+0x1e4>
 8008edc:	1b80      	subs	r0, r0, r6
 8008ede:	6060      	str	r0, [r4, #4]
 8008ee0:	6863      	ldr	r3, [r4, #4]
 8008ee2:	6123      	str	r3, [r4, #16]
 8008ee4:	2300      	movs	r3, #0
 8008ee6:	f884 3043 	strb.w	r3, [r4, #67]	@ 0x43
 8008eea:	e7aa      	b.n	8008e42 <_printf_i+0x146>
 8008eec:	6923      	ldr	r3, [r4, #16]
 8008eee:	4632      	mov	r2, r6
 8008ef0:	4649      	mov	r1, r9
 8008ef2:	4640      	mov	r0, r8
 8008ef4:	47d0      	blx	sl
 8008ef6:	3001      	adds	r0, #1
 8008ef8:	d0ad      	beq.n	8008e56 <_printf_i+0x15a>
 8008efa:	6823      	ldr	r3, [r4, #0]
 8008efc:	079b      	lsls	r3, r3, #30
 8008efe:	d413      	bmi.n	8008f28 <_printf_i+0x22c>
 8008f00:	68e0      	ldr	r0, [r4, #12]
 8008f02:	9b03      	ldr	r3, [sp, #12]
 8008f04:	4298      	cmp	r0, r3
 8008f06:	bfb8      	it	lt
 8008f08:	4618      	movlt	r0, r3
 8008f0a:	e7a6      	b.n	8008e5a <_printf_i+0x15e>
 8008f0c:	2301      	movs	r3, #1
 8008f0e:	4632      	mov	r2, r6
 8008f10:	4649      	mov	r1, r9
 8008f12:	4640      	mov	r0, r8
 8008f14:	47d0      	blx	sl
 8008f16:	3001      	adds	r0, #1
 8008f18:	d09d      	beq.n	8008e56 <_printf_i+0x15a>
 8008f1a:	3501      	adds	r5, #1
 8008f1c:	68e3      	ldr	r3, [r4, #12]
 8008f1e:	9903      	ldr	r1, [sp, #12]
 8008f20:	1a5b      	subs	r3, r3, r1
 8008f22:	42ab      	cmp	r3, r5
 8008f24:	dcf2      	bgt.n	8008f0c <_printf_i+0x210>
 8008f26:	e7eb      	b.n	8008f00 <_printf_i+0x204>
 8008f28:	2500      	movs	r5, #0
 8008f2a:	f104 0619 	add.w	r6, r4, #25
 8008f2e:	e7f5      	b.n	8008f1c <_printf_i+0x220>
 8008f30:	0800965d 	.word	0x0800965d
 8008f34:	0800966e 	.word	0x0800966e

08008f38 <memmove>:
 8008f38:	4288      	cmp	r0, r1
 8008f3a:	b510      	push	{r4, lr}
 8008f3c:	eb01 0402 	add.w	r4, r1, r2
 8008f40:	d902      	bls.n	8008f48 <memmove+0x10>
 8008f42:	4284      	cmp	r4, r0
 8008f44:	4623      	mov	r3, r4
 8008f46:	d807      	bhi.n	8008f58 <memmove+0x20>
 8008f48:	1e43      	subs	r3, r0, #1
 8008f4a:	42a1      	cmp	r1, r4
 8008f4c:	d008      	beq.n	8008f60 <memmove+0x28>
 8008f4e:	f811 2b01 	ldrb.w	r2, [r1], #1
 8008f52:	f803 2f01 	strb.w	r2, [r3, #1]!
 8008f56:	e7f8      	b.n	8008f4a <memmove+0x12>
 8008f58:	4402      	add	r2, r0
 8008f5a:	4601      	mov	r1, r0
 8008f5c:	428a      	cmp	r2, r1
 8008f5e:	d100      	bne.n	8008f62 <memmove+0x2a>
 8008f60:	bd10      	pop	{r4, pc}
 8008f62:	f813 4d01 	ldrb.w	r4, [r3, #-1]!
 8008f66:	f802 4d01 	strb.w	r4, [r2, #-1]!
 8008f6a:	e7f7      	b.n	8008f5c <memmove+0x24>

08008f6c <_sbrk_r>:
 8008f6c:	b538      	push	{r3, r4, r5, lr}
 8008f6e:	4d06      	ldr	r5, [pc, #24]	@ (8008f88 <_sbrk_r+0x1c>)
 8008f70:	2300      	movs	r3, #0
 8008f72:	4604      	mov	r4, r0
 8008f74:	4608      	mov	r0, r1
 8008f76:	602b      	str	r3, [r5, #0]
 8008f78:	f7fc fb8e 	bl	8005698 <_sbrk>
 8008f7c:	1c43      	adds	r3, r0, #1
 8008f7e:	d102      	bne.n	8008f86 <_sbrk_r+0x1a>
 8008f80:	682b      	ldr	r3, [r5, #0]
 8008f82:	b103      	cbz	r3, 8008f86 <_sbrk_r+0x1a>
 8008f84:	6023      	str	r3, [r4, #0]
 8008f86:	bd38      	pop	{r3, r4, r5, pc}
 8008f88:	20000ba8 	.word	0x20000ba8

08008f8c <__aeabi_memset>:
 8008f8c:	4613      	mov	r3, r2
 8008f8e:	460a      	mov	r2, r1
 8008f90:	4619      	mov	r1, r3
 8008f92:	f7ff bbad 	b.w	80086f0 <memset>

08008f96 <_realloc_r>:
 8008f96:	e92d 41f0 	stmdb	sp!, {r4, r5, r6, r7, r8, lr}
 8008f9a:	4607      	mov	r7, r0
 8008f9c:	4614      	mov	r4, r2
 8008f9e:	460d      	mov	r5, r1
 8008fa0:	b921      	cbnz	r1, 8008fac <_realloc_r+0x16>
 8008fa2:	e8bd 41f0 	ldmia.w	sp!, {r4, r5, r6, r7, r8, lr}
 8008fa6:	4611      	mov	r1, r2
 8008fa8:	f7ff bc56 	b.w	8008858 <_malloc_r>
 8008fac:	b92a      	cbnz	r2, 8008fba <_realloc_r+0x24>
 8008fae:	f7ff fbe7 	bl	8008780 <_free_r>
 8008fb2:	4625      	mov	r5, r4
 8008fb4:	4628      	mov	r0, r5
 8008fb6:	e8bd 81f0 	ldmia.w	sp!, {r4, r5, r6, r7, r8, pc}
 8008fba:	f000 f81a 	bl	8008ff2 <_malloc_usable_size_r>
 8008fbe:	4284      	cmp	r4, r0
 8008fc0:	4606      	mov	r6, r0
 8008fc2:	d802      	bhi.n	8008fca <_realloc_r+0x34>
 8008fc4:	ebb4 0f50 	cmp.w	r4, r0, lsr #1
 8008fc8:	d8f4      	bhi.n	8008fb4 <_realloc_r+0x1e>
 8008fca:	4621      	mov	r1, r4
 8008fcc:	4638      	mov	r0, r7
 8008fce:	f7ff fc43 	bl	8008858 <_malloc_r>
 8008fd2:	4680      	mov	r8, r0
 8008fd4:	b908      	cbnz	r0, 8008fda <_realloc_r+0x44>
 8008fd6:	4645      	mov	r5, r8
 8008fd8:	e7ec      	b.n	8008fb4 <_realloc_r+0x1e>
 8008fda:	42b4      	cmp	r4, r6
 8008fdc:	4622      	mov	r2, r4
 8008fde:	4629      	mov	r1, r5
 8008fe0:	bf28      	it	cs
 8008fe2:	4632      	movcs	r2, r6
 8008fe4:	f7ff fbbd 	bl	8008762 <memcpy>
 8008fe8:	4629      	mov	r1, r5
 8008fea:	4638      	mov	r0, r7
 8008fec:	f7ff fbc8 	bl	8008780 <_free_r>
 8008ff0:	e7f1      	b.n	8008fd6 <_realloc_r+0x40>

08008ff2 <_malloc_usable_size_r>:
 8008ff2:	f851 3c04 	ldr.w	r3, [r1, #-4]
 8008ff6:	1f18      	subs	r0, r3, #4
 8008ff8:	2b00      	cmp	r3, #0
 8008ffa:	bfbc      	itt	lt
 8008ffc:	580b      	ldrlt	r3, [r1, r0]
 8008ffe:	18c0      	addlt	r0, r0, r3
 8009000:	4770      	bx	lr
	...

08009004 <_init>:
 8009004:	b5f8      	push	{r3, r4, r5, r6, r7, lr}
 8009006:	bf00      	nop
 8009008:	bcf8      	pop	{r3, r4, r5, r6, r7}
 800900a:	bc08      	pop	{r3}
 800900c:	469e      	mov	lr, r3
 800900e:	4770      	bx	lr

08009010 <_fini>:
 8009010:	b5f8      	push	{r3, r4, r5, r6, r7, lr}
 8009012:	bf00      	nop
 8009014:	bcf8      	pop	{r3, r4, r5, r6, r7}
 8009016:	bc08      	pop	{r3}
 8009018:	469e      	mov	lr, r3
 800901a:	4770      	bx	lr
